ARM GAS  /tmp/cc9Z1tj7.s 			page 1


   1              		.cpu cortex-m4
   2              		.eabi_attribute 27, 1
   3              		.eabi_attribute 28, 1
   4              		.eabi_attribute 20, 1
   5              		.eabi_attribute 21, 1
   6              		.eabi_attribute 23, 3
   7              		.eabi_attribute 24, 1
   8              		.eabi_attribute 25, 1
   9              		.eabi_attribute 26, 1
  10              		.eabi_attribute 30, 6
  11              		.eabi_attribute 34, 1
  12              		.eabi_attribute 18, 4
  13              		.file	"deca_range_tables.c"
  14              		.text
  15              	.Ltext0:
  16              		.cfi_sections	.debug_frame
  17              		.global	chan_idxnb
  18              		.section	.rodata.chan_idxnb,"a"
  19              		.align	2
  22              	chan_idxnb:
  23 0000 00000102 		.ascii	"\000\000\001\002\000\003\000\000"
  23      00030000 
  24              		.global	chan_idxwb
  25              		.section	.rodata.chan_idxwb,"a"
  26              		.align	2
  29              	chan_idxwb:
  30 0000 00000000 		.ascii	"\000\000\000\000\000\000\000\001"
  30      00000001 
  31              		.global	range25cm16PRFnb
  32              		.section	.rodata.range25cm16PRFnb,"a"
  33              		.align	2
  36              	range25cm16PRFnb:
  37 0000 01030405 		.ascii	"\001\003\004\005\007\011\013\014\015\017\022\024\027"
  37      07090B0C 
  37      0D0F1214 
  37      17
  38 000d 191C1E21 		.ascii	"\031\034\036!$(+/26:?BGLRYbm\177\233\336\377\377"
  38      24282B2F 
  38      32363A3F 
  38      42474C52 
  38      59626D7F 
  39 0025 01020405 		.ascii	"\001\002\004\005\006\010\011\012\014\015\017\022\024"
  39      0608090A 
  39      0C0D0F12 
  39      14
  40 0032 16181B1D 		.ascii	"\026\030\033\035 #&),/37:>BGNU`o\207\302\360\377"
  40      20232629 
  40      2C2F3337 
  40      3A3E4247 
  40      4E55606F 
  41 004a 01020304 		.ascii	"\001\002\003\004\005\007\010\011\012\014\016\020\022"
  41      05070809 
  41      0A0C0E10 
  41      12
  42 0057 1416181A 		.ascii	"\024\026\030\032\034\037!$'*-147;?ELUbx\255\325\377"
  42      1C1F2124 
  42      272A2D31 
ARM GAS  /tmp/cc9Z1tj7.s 			page 2


  42      34373B3F 
  42      454C5562 
  43 006f 01010203 		.ascii	"\001\001\002\003\004\005\006\006\007\010\011\013\014"
  43      04050606 
  43      0708090B 
  43      0C
  44 007c 0E0F1012 		.ascii	"\016\017\020\022\024\025\027\031\033\035\037\"$&),0"
  44      14151719 
  44      1B1D1F22 
  44      2426292C 
  44      30
  45 008d 353B4453 		.ascii	"5;DSx\224\377"
  45      7894FF
  46              		.global	range25cm16PRFwb
  47              		.section	.rodata.range25cm16PRFwb,"a"
  48              		.align	2
  51              	range25cm16PRFwb:
  52 0000 07070809 		.ascii	"\007\007\010\011\011\012\013\013\014\015\016\017\020"
  52      090A0B0B 
  52      0C0D0E0F 
  52      10
  53 000d 11121314 		.ascii	"\021\022\023\024\025\026\027\030\032\033\034\036\037"
  53      15161718 
  53      1A1B1C1E 
  53      1F
  54 001a 20222426 		.ascii	" \"$&(*,.02479;=?BDGJNQUY^chnt{\202\213\226\244\266"
  54      282A2C2E 
  54      30323437 
  54      393B3D3F 
  54      4244474A 
  55 003d CFEEFFFF 		.ascii	"\317\356\377\377\377\377\377"
  55      FFFFFF
  56 0044 04050505 		.ascii	"\004\005\005\005\006\006\007\007\007\010\011\011\012"
  56      06060707 
  56      07080909 
  56      0A
  57 0051 0A0B0B0C 		.ascii	"\012\013\013\014\015\015\016\017\020\021\021\022\023"
  57      0D0D0E0F 
  57      10111112 
  57      13
  58 005e 14151617 		.ascii	"\024\025\026\027\031\032\033\035\036\037 \"#$&'(*,."
  58      191A1B1D 
  58      1E1F2022 
  58      23242627 
  58      282A2C2E 
  59 0072 30323437 		.ascii	"0247:=@DHKPU\\ep\177\223\250\266\302\315\377"
  59      3A3D4044 
  59      484B5055 
  59      5C65707F 
  59      93A8B6C2 
  60              		.global	range25cm64PRFnb
  61              		.section	.rodata.range25cm64PRFnb,"a"
  62              		.align	2
  65              	range25cm64PRFnb:
  66 0000 01020203 		.ascii	"\001\002\002\003\004\005\007\012\015\020\023\026\030"
  66      0405070A 
  66      0D101316 
ARM GAS  /tmp/cc9Z1tj7.s 			page 3


  66      18
  67 000d 1B1E2023 		.ascii	"\033\036 #&+08Nex\235\377"
  67      262B3038 
  67      4E65789D 
  67      FF
  68 001a 01020203 		.ascii	"\001\002\002\003\004\004\006\011\014\016\021\023\025"
  68      04040609 
  68      0C0E1113 
  68      15
  69 0027 181A1C1F 		.ascii	"\030\032\034\037!%*1DYi\212\377"
  69      21252A31 
  69      4459698A 
  69      FF
  70 0034 01010203 		.ascii	"\001\001\002\003\003\004\005\010\012\015\017\021\023"
  70      03040508 
  70      0A0D0F11 
  70      13
  71 0041 1517191B 		.ascii	"\025\027\031\033\036!%,<O]z\377"
  71      1E21252C 
  71      3C4F5D7A 
  71      FF
  72 004e 01010102 		.ascii	"\001\001\001\002\002\003\004\006\007\011\012\014\015"
  72      02030406 
  72      07090A0C 
  72      0D
  73 005b 0F101113 		.ascii	"\017\020\021\023\025\027\032\036*7AU\377"
  73      15171A1E 
  73      2A374155 
  73      FF
  74              		.global	range25cm64PRFwb
  75              		.section	.rodata.range25cm64PRFwb,"a"
  76              		.align	2
  79              	range25cm64PRFwb:
  80 0000 07080809 		.ascii	"\007\010\010\011\011\012\013\014\015\015\016\017\020"
  80      090A0B0C 
  80      0D0D0E0F 
  80      10
  81 000d 10111213 		.ascii	"\020\021\022\023\023\024\025\026\030\031\033\034\035"
  81      13141516 
  81      18191B1C 
  81      1D
  82 001a 1E202122 		.ascii	"\036 !\"#%')+-0258<@DJQYbmz\210\222\232\242\262\334"
  82      23252729 
  82      2B2D3032 
  82      35383C40 
  82      444A5159 
  83 0037 F9FFFFFF 		.ascii	"\371\377\377\377"
  84 003b 04050505 		.ascii	"\004\005\005\005\006\006\007\007\010\010\011\011\012"
  84      06060707 
  84      08080909 
  84      0A
  85 0048 0A0A0B0B 		.ascii	"\012\012\013\013\014\015\015\016\017\020\020\021\022"
  85      0C0D0D0E 
  85      0F101011 
  85      12
  86 0055 13131415 		.ascii	"\023\023\024\025\026\027\030\031\032\034\035\037!#%"
  86      16171819 
ARM GAS  /tmp/cc9Z1tj7.s 			page 4


  86      1A1C1D1F 
  86      212325
  87 0064 272A2E32 		.ascii	"'*.26<CKSZ_dn\207\231\254\300\377"
  87      363C434B 
  87      535A5F64 
  87      6E8799AC 
  87      C0FF
  88              		.global	__aeabi_f2d
  89              		.global	__aeabi_dmul
  90              		.global	__aeabi_d2iz
  91              		.section	.text.dwt_getrangebias,"ax",%progbits
  92              		.align	1
  93              		.global	dwt_getrangebias
  94              		.arch armv7e-m
  95              		.syntax unified
  96              		.thumb
  97              		.thumb_func
  98              		.fpu fpv4-sp-d16
 100              	dwt_getrangebias:
 101              	.LFB3:
 102              		.file 1 "Middlewares/Decawave/platform/deca_range_tables.c"
   1:Middlewares/Decawave/platform/deca_range_tables.c **** /*! ----------------------------------------------------------------------------
   2:Middlewares/Decawave/platform/deca_range_tables.c ****  *  @file    deca_range_tables.c
   3:Middlewares/Decawave/platform/deca_range_tables.c ****  *  @brief   DW1000 range correction tables
   4:Middlewares/Decawave/platform/deca_range_tables.c ****  *
   5:Middlewares/Decawave/platform/deca_range_tables.c ****  * @attention
   6:Middlewares/Decawave/platform/deca_range_tables.c ****  *
   7:Middlewares/Decawave/platform/deca_range_tables.c ****  * Copyright 2015 (c) DecaWave Ltd, Dublin, Ireland.
   8:Middlewares/Decawave/platform/deca_range_tables.c ****  *
   9:Middlewares/Decawave/platform/deca_range_tables.c ****  * All rights reserved.
  10:Middlewares/Decawave/platform/deca_range_tables.c ****  *
  11:Middlewares/Decawave/platform/deca_range_tables.c ****  */
  12:Middlewares/Decawave/platform/deca_range_tables.c **** #include <stdio.h>
  13:Middlewares/Decawave/platform/deca_range_tables.c **** #include <stdlib.h>
  14:Middlewares/Decawave/platform/deca_range_tables.c **** 
  15:Middlewares/Decawave/platform/deca_range_tables.c **** #include "deca_device_api.h"
  16:Middlewares/Decawave/platform/deca_range_tables.c **** #include "deca_param_types.h"
  17:Middlewares/Decawave/platform/deca_range_tables.c **** 
  18:Middlewares/Decawave/platform/deca_range_tables.c **** #define NUM_16M_OFFSET  (37)
  19:Middlewares/Decawave/platform/deca_range_tables.c **** #define NUM_16M_OFFSETWB  (68)
  20:Middlewares/Decawave/platform/deca_range_tables.c **** #define NUM_64M_OFFSET  (26)
  21:Middlewares/Decawave/platform/deca_range_tables.c **** #define NUM_64M_OFFSETWB  (59)
  22:Middlewares/Decawave/platform/deca_range_tables.c **** 
  23:Middlewares/Decawave/platform/deca_range_tables.c **** const uint8 chan_idxnb[NUM_CH_SUPPORTED] = {0, 0, 1, 2, 0, 3, 0, 0}; //only channels 1,2,3 and 5 ar
  24:Middlewares/Decawave/platform/deca_range_tables.c **** const uint8 chan_idxwb[NUM_CH_SUPPORTED] = {0, 0, 0, 0, 0, 0, 0, 1}; //only channels 4 and 7 are in
  25:Middlewares/Decawave/platform/deca_range_tables.c **** 
  26:Middlewares/Decawave/platform/deca_range_tables.c **** //-------------------------------------------------------------------------------------------------
  27:Middlewares/Decawave/platform/deca_range_tables.c **** // Range Bias Correction TABLES of range values in integer units of 25 CM, for 8-bit unsigned stora
  28:Middlewares/Decawave/platform/deca_range_tables.c **** //-------------------------------------------------------------------------------------------------
  29:Middlewares/Decawave/platform/deca_range_tables.c **** 
  30:Middlewares/Decawave/platform/deca_range_tables.c **** // offsets to nearest centimeter for index 0, all rest are +1 cm per value
  31:Middlewares/Decawave/platform/deca_range_tables.c **** 
  32:Middlewares/Decawave/platform/deca_range_tables.c **** #define CM_OFFSET_16M_NB    (-23)   // for normal band channels at 16 MHz PRF
  33:Middlewares/Decawave/platform/deca_range_tables.c **** #define CM_OFFSET_16M_WB    (-28)   // for wider  band channels at 16 MHz PRF
  34:Middlewares/Decawave/platform/deca_range_tables.c **** #define CM_OFFSET_64M_NB    (-17)   // for normal band channels at 64 MHz PRF
  35:Middlewares/Decawave/platform/deca_range_tables.c **** #define CM_OFFSET_64M_WB    (-30)   // for wider  band channels at 64 MHz PRF
  36:Middlewares/Decawave/platform/deca_range_tables.c **** 
ARM GAS  /tmp/cc9Z1tj7.s 			page 5


  37:Middlewares/Decawave/platform/deca_range_tables.c **** 
  38:Middlewares/Decawave/platform/deca_range_tables.c **** //-------------------------------------------------------------------------------------------------
  39:Middlewares/Decawave/platform/deca_range_tables.c **** // range25cm16PRFnb: Range Bias Correction table for narrow band channels at 16 MHz PRF, NB: !!!! e
  40:Middlewares/Decawave/platform/deca_range_tables.c **** //-------------------------------------------------------------------------------------------------
  41:Middlewares/Decawave/platform/deca_range_tables.c **** 
  42:Middlewares/Decawave/platform/deca_range_tables.c **** const uint8 range25cm16PRFnb[4][NUM_16M_OFFSET] =
  43:Middlewares/Decawave/platform/deca_range_tables.c **** {
  44:Middlewares/Decawave/platform/deca_range_tables.c ****     // ch 1 - range25cm16PRFnb
  45:Middlewares/Decawave/platform/deca_range_tables.c ****     {
  46:Middlewares/Decawave/platform/deca_range_tables.c ****            1,
  47:Middlewares/Decawave/platform/deca_range_tables.c ****            3,
  48:Middlewares/Decawave/platform/deca_range_tables.c ****            4,
  49:Middlewares/Decawave/platform/deca_range_tables.c ****            5,
  50:Middlewares/Decawave/platform/deca_range_tables.c ****            7,
  51:Middlewares/Decawave/platform/deca_range_tables.c ****            9,
  52:Middlewares/Decawave/platform/deca_range_tables.c ****           11,
  53:Middlewares/Decawave/platform/deca_range_tables.c ****           12,
  54:Middlewares/Decawave/platform/deca_range_tables.c ****           13,
  55:Middlewares/Decawave/platform/deca_range_tables.c ****           15,
  56:Middlewares/Decawave/platform/deca_range_tables.c ****           18,
  57:Middlewares/Decawave/platform/deca_range_tables.c ****           20,
  58:Middlewares/Decawave/platform/deca_range_tables.c ****           23,
  59:Middlewares/Decawave/platform/deca_range_tables.c ****           25,
  60:Middlewares/Decawave/platform/deca_range_tables.c ****           28,
  61:Middlewares/Decawave/platform/deca_range_tables.c ****           30,
  62:Middlewares/Decawave/platform/deca_range_tables.c ****           33,
  63:Middlewares/Decawave/platform/deca_range_tables.c ****           36,
  64:Middlewares/Decawave/platform/deca_range_tables.c ****           40,
  65:Middlewares/Decawave/platform/deca_range_tables.c ****           43,
  66:Middlewares/Decawave/platform/deca_range_tables.c ****           47,
  67:Middlewares/Decawave/platform/deca_range_tables.c ****           50,
  68:Middlewares/Decawave/platform/deca_range_tables.c ****           54,
  69:Middlewares/Decawave/platform/deca_range_tables.c ****           58,
  70:Middlewares/Decawave/platform/deca_range_tables.c ****           63,
  71:Middlewares/Decawave/platform/deca_range_tables.c ****           66,
  72:Middlewares/Decawave/platform/deca_range_tables.c ****           71,
  73:Middlewares/Decawave/platform/deca_range_tables.c ****           76,
  74:Middlewares/Decawave/platform/deca_range_tables.c ****           82,
  75:Middlewares/Decawave/platform/deca_range_tables.c ****           89,
  76:Middlewares/Decawave/platform/deca_range_tables.c ****           98,
  77:Middlewares/Decawave/platform/deca_range_tables.c ****          109,
  78:Middlewares/Decawave/platform/deca_range_tables.c ****          127,
  79:Middlewares/Decawave/platform/deca_range_tables.c ****          155,
  80:Middlewares/Decawave/platform/deca_range_tables.c ****          222,
  81:Middlewares/Decawave/platform/deca_range_tables.c ****          255,
  82:Middlewares/Decawave/platform/deca_range_tables.c ****          255
  83:Middlewares/Decawave/platform/deca_range_tables.c ****     },
  84:Middlewares/Decawave/platform/deca_range_tables.c **** 
  85:Middlewares/Decawave/platform/deca_range_tables.c ****     // ch 2 - range25cm16PRFnb
  86:Middlewares/Decawave/platform/deca_range_tables.c ****     {
  87:Middlewares/Decawave/platform/deca_range_tables.c ****            1,
  88:Middlewares/Decawave/platform/deca_range_tables.c ****            2,
  89:Middlewares/Decawave/platform/deca_range_tables.c ****            4,
  90:Middlewares/Decawave/platform/deca_range_tables.c ****            5,
  91:Middlewares/Decawave/platform/deca_range_tables.c ****            6,
  92:Middlewares/Decawave/platform/deca_range_tables.c ****            8,
  93:Middlewares/Decawave/platform/deca_range_tables.c ****            9,
ARM GAS  /tmp/cc9Z1tj7.s 			page 6


  94:Middlewares/Decawave/platform/deca_range_tables.c ****           10,
  95:Middlewares/Decawave/platform/deca_range_tables.c ****           12,
  96:Middlewares/Decawave/platform/deca_range_tables.c ****           13,
  97:Middlewares/Decawave/platform/deca_range_tables.c ****           15,
  98:Middlewares/Decawave/platform/deca_range_tables.c ****           18,
  99:Middlewares/Decawave/platform/deca_range_tables.c ****           20,
 100:Middlewares/Decawave/platform/deca_range_tables.c ****           22,
 101:Middlewares/Decawave/platform/deca_range_tables.c ****           24,
 102:Middlewares/Decawave/platform/deca_range_tables.c ****           27,
 103:Middlewares/Decawave/platform/deca_range_tables.c ****           29,
 104:Middlewares/Decawave/platform/deca_range_tables.c ****           32,
 105:Middlewares/Decawave/platform/deca_range_tables.c ****           35,
 106:Middlewares/Decawave/platform/deca_range_tables.c ****           38,
 107:Middlewares/Decawave/platform/deca_range_tables.c ****           41,
 108:Middlewares/Decawave/platform/deca_range_tables.c ****           44,
 109:Middlewares/Decawave/platform/deca_range_tables.c ****           47,
 110:Middlewares/Decawave/platform/deca_range_tables.c ****           51,
 111:Middlewares/Decawave/platform/deca_range_tables.c ****           55,
 112:Middlewares/Decawave/platform/deca_range_tables.c ****           58,
 113:Middlewares/Decawave/platform/deca_range_tables.c ****           62,
 114:Middlewares/Decawave/platform/deca_range_tables.c ****           66,
 115:Middlewares/Decawave/platform/deca_range_tables.c ****           71,
 116:Middlewares/Decawave/platform/deca_range_tables.c ****           78,
 117:Middlewares/Decawave/platform/deca_range_tables.c ****           85,
 118:Middlewares/Decawave/platform/deca_range_tables.c ****           96,
 119:Middlewares/Decawave/platform/deca_range_tables.c ****          111,
 120:Middlewares/Decawave/platform/deca_range_tables.c ****          135,
 121:Middlewares/Decawave/platform/deca_range_tables.c ****          194,
 122:Middlewares/Decawave/platform/deca_range_tables.c ****          240,
 123:Middlewares/Decawave/platform/deca_range_tables.c ****          255
 124:Middlewares/Decawave/platform/deca_range_tables.c ****     },
 125:Middlewares/Decawave/platform/deca_range_tables.c **** 
 126:Middlewares/Decawave/platform/deca_range_tables.c ****     // ch 3 - range25cm16PRFnb
 127:Middlewares/Decawave/platform/deca_range_tables.c ****     {
 128:Middlewares/Decawave/platform/deca_range_tables.c ****            1,
 129:Middlewares/Decawave/platform/deca_range_tables.c ****            2,
 130:Middlewares/Decawave/platform/deca_range_tables.c ****            3,
 131:Middlewares/Decawave/platform/deca_range_tables.c ****            4,
 132:Middlewares/Decawave/platform/deca_range_tables.c ****            5,
 133:Middlewares/Decawave/platform/deca_range_tables.c ****            7,
 134:Middlewares/Decawave/platform/deca_range_tables.c ****            8,
 135:Middlewares/Decawave/platform/deca_range_tables.c ****            9,
 136:Middlewares/Decawave/platform/deca_range_tables.c ****           10,
 137:Middlewares/Decawave/platform/deca_range_tables.c ****           12,
 138:Middlewares/Decawave/platform/deca_range_tables.c ****           14,
 139:Middlewares/Decawave/platform/deca_range_tables.c ****           16,
 140:Middlewares/Decawave/platform/deca_range_tables.c ****           18,
 141:Middlewares/Decawave/platform/deca_range_tables.c ****           20,
 142:Middlewares/Decawave/platform/deca_range_tables.c ****           22,
 143:Middlewares/Decawave/platform/deca_range_tables.c ****           24,
 144:Middlewares/Decawave/platform/deca_range_tables.c ****           26,
 145:Middlewares/Decawave/platform/deca_range_tables.c ****           28,
 146:Middlewares/Decawave/platform/deca_range_tables.c ****           31,
 147:Middlewares/Decawave/platform/deca_range_tables.c ****           33,
 148:Middlewares/Decawave/platform/deca_range_tables.c ****           36,
 149:Middlewares/Decawave/platform/deca_range_tables.c ****           39,
 150:Middlewares/Decawave/platform/deca_range_tables.c ****           42,
ARM GAS  /tmp/cc9Z1tj7.s 			page 7


 151:Middlewares/Decawave/platform/deca_range_tables.c ****           45,
 152:Middlewares/Decawave/platform/deca_range_tables.c ****           49,
 153:Middlewares/Decawave/platform/deca_range_tables.c ****           52,
 154:Middlewares/Decawave/platform/deca_range_tables.c ****           55,
 155:Middlewares/Decawave/platform/deca_range_tables.c ****           59,
 156:Middlewares/Decawave/platform/deca_range_tables.c ****           63,
 157:Middlewares/Decawave/platform/deca_range_tables.c ****           69,
 158:Middlewares/Decawave/platform/deca_range_tables.c ****           76,
 159:Middlewares/Decawave/platform/deca_range_tables.c ****           85,
 160:Middlewares/Decawave/platform/deca_range_tables.c ****           98,
 161:Middlewares/Decawave/platform/deca_range_tables.c ****          120,
 162:Middlewares/Decawave/platform/deca_range_tables.c ****          173,
 163:Middlewares/Decawave/platform/deca_range_tables.c ****          213,
 164:Middlewares/Decawave/platform/deca_range_tables.c ****          255
 165:Middlewares/Decawave/platform/deca_range_tables.c ****     },
 166:Middlewares/Decawave/platform/deca_range_tables.c **** 
 167:Middlewares/Decawave/platform/deca_range_tables.c ****     // ch 5 - range25cm16PRFnb
 168:Middlewares/Decawave/platform/deca_range_tables.c ****     {
 169:Middlewares/Decawave/platform/deca_range_tables.c ****            1,
 170:Middlewares/Decawave/platform/deca_range_tables.c ****            1,
 171:Middlewares/Decawave/platform/deca_range_tables.c ****            2,
 172:Middlewares/Decawave/platform/deca_range_tables.c ****            3,
 173:Middlewares/Decawave/platform/deca_range_tables.c ****            4,
 174:Middlewares/Decawave/platform/deca_range_tables.c ****            5,
 175:Middlewares/Decawave/platform/deca_range_tables.c ****            6,
 176:Middlewares/Decawave/platform/deca_range_tables.c ****            6,
 177:Middlewares/Decawave/platform/deca_range_tables.c ****            7,
 178:Middlewares/Decawave/platform/deca_range_tables.c ****            8,
 179:Middlewares/Decawave/platform/deca_range_tables.c ****            9,
 180:Middlewares/Decawave/platform/deca_range_tables.c ****           11,
 181:Middlewares/Decawave/platform/deca_range_tables.c ****           12,
 182:Middlewares/Decawave/platform/deca_range_tables.c ****           14,
 183:Middlewares/Decawave/platform/deca_range_tables.c ****           15,
 184:Middlewares/Decawave/platform/deca_range_tables.c ****           16,
 185:Middlewares/Decawave/platform/deca_range_tables.c ****           18,
 186:Middlewares/Decawave/platform/deca_range_tables.c ****           20,
 187:Middlewares/Decawave/platform/deca_range_tables.c ****           21,
 188:Middlewares/Decawave/platform/deca_range_tables.c ****           23,
 189:Middlewares/Decawave/platform/deca_range_tables.c ****           25,
 190:Middlewares/Decawave/platform/deca_range_tables.c ****           27,
 191:Middlewares/Decawave/platform/deca_range_tables.c ****           29,
 192:Middlewares/Decawave/platform/deca_range_tables.c ****           31,
 193:Middlewares/Decawave/platform/deca_range_tables.c ****           34,
 194:Middlewares/Decawave/platform/deca_range_tables.c ****           36,
 195:Middlewares/Decawave/platform/deca_range_tables.c ****           38,
 196:Middlewares/Decawave/platform/deca_range_tables.c ****           41,
 197:Middlewares/Decawave/platform/deca_range_tables.c ****           44,
 198:Middlewares/Decawave/platform/deca_range_tables.c ****           48,
 199:Middlewares/Decawave/platform/deca_range_tables.c ****           53,
 200:Middlewares/Decawave/platform/deca_range_tables.c ****           59,
 201:Middlewares/Decawave/platform/deca_range_tables.c ****           68,
 202:Middlewares/Decawave/platform/deca_range_tables.c ****           83,
 203:Middlewares/Decawave/platform/deca_range_tables.c ****          120,
 204:Middlewares/Decawave/platform/deca_range_tables.c ****          148,
 205:Middlewares/Decawave/platform/deca_range_tables.c ****          255
 206:Middlewares/Decawave/platform/deca_range_tables.c ****     }
 207:Middlewares/Decawave/platform/deca_range_tables.c **** }; // end range25cm16PRFnb
ARM GAS  /tmp/cc9Z1tj7.s 			page 8


 208:Middlewares/Decawave/platform/deca_range_tables.c **** 
 209:Middlewares/Decawave/platform/deca_range_tables.c **** 
 210:Middlewares/Decawave/platform/deca_range_tables.c **** //-------------------------------------------------------------------------------------------------
 211:Middlewares/Decawave/platform/deca_range_tables.c **** // range25cm16PRFwb: Range Bias Correction table for wide band channels at 16 MHz PRF, NB: !!!! eac
 212:Middlewares/Decawave/platform/deca_range_tables.c **** //-------------------------------------------------------------------------------------------------
 213:Middlewares/Decawave/platform/deca_range_tables.c **** 
 214:Middlewares/Decawave/platform/deca_range_tables.c **** const uint8 range25cm16PRFwb[2][NUM_16M_OFFSETWB] =
 215:Middlewares/Decawave/platform/deca_range_tables.c **** {
 216:Middlewares/Decawave/platform/deca_range_tables.c ****     // ch 4 - range25cm16PRFwb
 217:Middlewares/Decawave/platform/deca_range_tables.c ****     {
 218:Middlewares/Decawave/platform/deca_range_tables.c ****            7,
 219:Middlewares/Decawave/platform/deca_range_tables.c ****            7,
 220:Middlewares/Decawave/platform/deca_range_tables.c ****            8,
 221:Middlewares/Decawave/platform/deca_range_tables.c ****            9,
 222:Middlewares/Decawave/platform/deca_range_tables.c ****            9,
 223:Middlewares/Decawave/platform/deca_range_tables.c ****           10,
 224:Middlewares/Decawave/platform/deca_range_tables.c ****           11,
 225:Middlewares/Decawave/platform/deca_range_tables.c ****           11,
 226:Middlewares/Decawave/platform/deca_range_tables.c ****           12,
 227:Middlewares/Decawave/platform/deca_range_tables.c ****           13,
 228:Middlewares/Decawave/platform/deca_range_tables.c ****           14,
 229:Middlewares/Decawave/platform/deca_range_tables.c ****           15,
 230:Middlewares/Decawave/platform/deca_range_tables.c ****           16,
 231:Middlewares/Decawave/platform/deca_range_tables.c ****           17,
 232:Middlewares/Decawave/platform/deca_range_tables.c ****           18,
 233:Middlewares/Decawave/platform/deca_range_tables.c ****           19,
 234:Middlewares/Decawave/platform/deca_range_tables.c ****           20,
 235:Middlewares/Decawave/platform/deca_range_tables.c ****           21,
 236:Middlewares/Decawave/platform/deca_range_tables.c ****           22,
 237:Middlewares/Decawave/platform/deca_range_tables.c ****           23,
 238:Middlewares/Decawave/platform/deca_range_tables.c ****           24,
 239:Middlewares/Decawave/platform/deca_range_tables.c ****           26,
 240:Middlewares/Decawave/platform/deca_range_tables.c ****           27,
 241:Middlewares/Decawave/platform/deca_range_tables.c ****           28,
 242:Middlewares/Decawave/platform/deca_range_tables.c ****           30,
 243:Middlewares/Decawave/platform/deca_range_tables.c ****           31,
 244:Middlewares/Decawave/platform/deca_range_tables.c ****           32,
 245:Middlewares/Decawave/platform/deca_range_tables.c ****           34,
 246:Middlewares/Decawave/platform/deca_range_tables.c ****           36,
 247:Middlewares/Decawave/platform/deca_range_tables.c ****           38,
 248:Middlewares/Decawave/platform/deca_range_tables.c ****           40,
 249:Middlewares/Decawave/platform/deca_range_tables.c ****           42,
 250:Middlewares/Decawave/platform/deca_range_tables.c ****           44,
 251:Middlewares/Decawave/platform/deca_range_tables.c ****           46,
 252:Middlewares/Decawave/platform/deca_range_tables.c ****           48,
 253:Middlewares/Decawave/platform/deca_range_tables.c ****           50,
 254:Middlewares/Decawave/platform/deca_range_tables.c ****           52,
 255:Middlewares/Decawave/platform/deca_range_tables.c ****           55,
 256:Middlewares/Decawave/platform/deca_range_tables.c ****           57,
 257:Middlewares/Decawave/platform/deca_range_tables.c ****           59,
 258:Middlewares/Decawave/platform/deca_range_tables.c ****           61,
 259:Middlewares/Decawave/platform/deca_range_tables.c ****           63,
 260:Middlewares/Decawave/platform/deca_range_tables.c ****           66,
 261:Middlewares/Decawave/platform/deca_range_tables.c ****           68,
 262:Middlewares/Decawave/platform/deca_range_tables.c ****           71,
 263:Middlewares/Decawave/platform/deca_range_tables.c ****           74,
 264:Middlewares/Decawave/platform/deca_range_tables.c ****           78,
ARM GAS  /tmp/cc9Z1tj7.s 			page 9


 265:Middlewares/Decawave/platform/deca_range_tables.c ****           81,
 266:Middlewares/Decawave/platform/deca_range_tables.c ****           85,
 267:Middlewares/Decawave/platform/deca_range_tables.c ****           89,
 268:Middlewares/Decawave/platform/deca_range_tables.c ****           94,
 269:Middlewares/Decawave/platform/deca_range_tables.c ****           99,
 270:Middlewares/Decawave/platform/deca_range_tables.c ****          104,
 271:Middlewares/Decawave/platform/deca_range_tables.c ****          110,
 272:Middlewares/Decawave/platform/deca_range_tables.c ****          116,
 273:Middlewares/Decawave/platform/deca_range_tables.c ****          123,
 274:Middlewares/Decawave/platform/deca_range_tables.c ****          130,
 275:Middlewares/Decawave/platform/deca_range_tables.c ****          139,
 276:Middlewares/Decawave/platform/deca_range_tables.c ****          150,
 277:Middlewares/Decawave/platform/deca_range_tables.c ****          164,
 278:Middlewares/Decawave/platform/deca_range_tables.c ****          182,
 279:Middlewares/Decawave/platform/deca_range_tables.c ****          207,
 280:Middlewares/Decawave/platform/deca_range_tables.c ****          238,
 281:Middlewares/Decawave/platform/deca_range_tables.c ****          255,
 282:Middlewares/Decawave/platform/deca_range_tables.c ****          255,
 283:Middlewares/Decawave/platform/deca_range_tables.c ****          255,
 284:Middlewares/Decawave/platform/deca_range_tables.c ****          255,
 285:Middlewares/Decawave/platform/deca_range_tables.c ****          255
 286:Middlewares/Decawave/platform/deca_range_tables.c ****     },
 287:Middlewares/Decawave/platform/deca_range_tables.c **** 
 288:Middlewares/Decawave/platform/deca_range_tables.c ****     // ch 7 - range25cm16PRFwb
 289:Middlewares/Decawave/platform/deca_range_tables.c ****     {
 290:Middlewares/Decawave/platform/deca_range_tables.c ****            4,
 291:Middlewares/Decawave/platform/deca_range_tables.c ****            5,
 292:Middlewares/Decawave/platform/deca_range_tables.c ****            5,
 293:Middlewares/Decawave/platform/deca_range_tables.c ****            5,
 294:Middlewares/Decawave/platform/deca_range_tables.c ****            6,
 295:Middlewares/Decawave/platform/deca_range_tables.c ****            6,
 296:Middlewares/Decawave/platform/deca_range_tables.c ****            7,
 297:Middlewares/Decawave/platform/deca_range_tables.c ****            7,
 298:Middlewares/Decawave/platform/deca_range_tables.c ****            7,
 299:Middlewares/Decawave/platform/deca_range_tables.c ****            8,
 300:Middlewares/Decawave/platform/deca_range_tables.c ****            9,
 301:Middlewares/Decawave/platform/deca_range_tables.c ****            9,
 302:Middlewares/Decawave/platform/deca_range_tables.c ****           10,
 303:Middlewares/Decawave/platform/deca_range_tables.c ****           10,
 304:Middlewares/Decawave/platform/deca_range_tables.c ****           11,
 305:Middlewares/Decawave/platform/deca_range_tables.c ****           11,
 306:Middlewares/Decawave/platform/deca_range_tables.c ****           12,
 307:Middlewares/Decawave/platform/deca_range_tables.c ****           13,
 308:Middlewares/Decawave/platform/deca_range_tables.c ****           13,
 309:Middlewares/Decawave/platform/deca_range_tables.c ****           14,
 310:Middlewares/Decawave/platform/deca_range_tables.c ****           15,
 311:Middlewares/Decawave/platform/deca_range_tables.c ****           16,
 312:Middlewares/Decawave/platform/deca_range_tables.c ****           17,
 313:Middlewares/Decawave/platform/deca_range_tables.c ****           17,
 314:Middlewares/Decawave/platform/deca_range_tables.c ****           18,
 315:Middlewares/Decawave/platform/deca_range_tables.c ****           19,
 316:Middlewares/Decawave/platform/deca_range_tables.c ****           20,
 317:Middlewares/Decawave/platform/deca_range_tables.c ****           21,
 318:Middlewares/Decawave/platform/deca_range_tables.c ****           22,
 319:Middlewares/Decawave/platform/deca_range_tables.c ****           23,
 320:Middlewares/Decawave/platform/deca_range_tables.c ****           25,
 321:Middlewares/Decawave/platform/deca_range_tables.c ****           26,
ARM GAS  /tmp/cc9Z1tj7.s 			page 10


 322:Middlewares/Decawave/platform/deca_range_tables.c ****           27,
 323:Middlewares/Decawave/platform/deca_range_tables.c ****           29,
 324:Middlewares/Decawave/platform/deca_range_tables.c ****           30,
 325:Middlewares/Decawave/platform/deca_range_tables.c ****           31,
 326:Middlewares/Decawave/platform/deca_range_tables.c ****           32,
 327:Middlewares/Decawave/platform/deca_range_tables.c ****           34,
 328:Middlewares/Decawave/platform/deca_range_tables.c ****           35,
 329:Middlewares/Decawave/platform/deca_range_tables.c ****           36,
 330:Middlewares/Decawave/platform/deca_range_tables.c ****           38,
 331:Middlewares/Decawave/platform/deca_range_tables.c ****           39,
 332:Middlewares/Decawave/platform/deca_range_tables.c ****           40,
 333:Middlewares/Decawave/platform/deca_range_tables.c ****           42,
 334:Middlewares/Decawave/platform/deca_range_tables.c ****           44,
 335:Middlewares/Decawave/platform/deca_range_tables.c ****           46,
 336:Middlewares/Decawave/platform/deca_range_tables.c ****           48,
 337:Middlewares/Decawave/platform/deca_range_tables.c ****           50,
 338:Middlewares/Decawave/platform/deca_range_tables.c ****           52,
 339:Middlewares/Decawave/platform/deca_range_tables.c ****           55,
 340:Middlewares/Decawave/platform/deca_range_tables.c ****           58,
 341:Middlewares/Decawave/platform/deca_range_tables.c ****           61,
 342:Middlewares/Decawave/platform/deca_range_tables.c ****           64,
 343:Middlewares/Decawave/platform/deca_range_tables.c ****           68,
 344:Middlewares/Decawave/platform/deca_range_tables.c ****           72,
 345:Middlewares/Decawave/platform/deca_range_tables.c ****           75,
 346:Middlewares/Decawave/platform/deca_range_tables.c ****           80,
 347:Middlewares/Decawave/platform/deca_range_tables.c ****           85,
 348:Middlewares/Decawave/platform/deca_range_tables.c ****           92,
 349:Middlewares/Decawave/platform/deca_range_tables.c ****          101,
 350:Middlewares/Decawave/platform/deca_range_tables.c ****          112,
 351:Middlewares/Decawave/platform/deca_range_tables.c ****          127,
 352:Middlewares/Decawave/platform/deca_range_tables.c ****          147,
 353:Middlewares/Decawave/platform/deca_range_tables.c ****          168,
 354:Middlewares/Decawave/platform/deca_range_tables.c ****          182,
 355:Middlewares/Decawave/platform/deca_range_tables.c ****          194,
 356:Middlewares/Decawave/platform/deca_range_tables.c ****          205,
 357:Middlewares/Decawave/platform/deca_range_tables.c ****          255
 358:Middlewares/Decawave/platform/deca_range_tables.c ****     }
 359:Middlewares/Decawave/platform/deca_range_tables.c **** }; // end range25cm16PRFwb
 360:Middlewares/Decawave/platform/deca_range_tables.c **** 
 361:Middlewares/Decawave/platform/deca_range_tables.c **** //-------------------------------------------------------------------------------------------------
 362:Middlewares/Decawave/platform/deca_range_tables.c **** // range25cm64PRFnb: Range Bias Correction table for narrow band channels at 64 MHz PRF, NB: !!!! e
 363:Middlewares/Decawave/platform/deca_range_tables.c **** //-------------------------------------------------------------------------------------------------
 364:Middlewares/Decawave/platform/deca_range_tables.c **** 
 365:Middlewares/Decawave/platform/deca_range_tables.c **** const uint8 range25cm64PRFnb[4][NUM_64M_OFFSET] =
 366:Middlewares/Decawave/platform/deca_range_tables.c **** {
 367:Middlewares/Decawave/platform/deca_range_tables.c ****     // ch 1 - range25cm64PRFnb
 368:Middlewares/Decawave/platform/deca_range_tables.c ****     {
 369:Middlewares/Decawave/platform/deca_range_tables.c ****            1,
 370:Middlewares/Decawave/platform/deca_range_tables.c ****            2,
 371:Middlewares/Decawave/platform/deca_range_tables.c ****            2,
 372:Middlewares/Decawave/platform/deca_range_tables.c ****            3,
 373:Middlewares/Decawave/platform/deca_range_tables.c ****            4,
 374:Middlewares/Decawave/platform/deca_range_tables.c ****            5,
 375:Middlewares/Decawave/platform/deca_range_tables.c ****            7,
 376:Middlewares/Decawave/platform/deca_range_tables.c ****           10,
 377:Middlewares/Decawave/platform/deca_range_tables.c ****           13,
 378:Middlewares/Decawave/platform/deca_range_tables.c ****           16,
ARM GAS  /tmp/cc9Z1tj7.s 			page 11


 379:Middlewares/Decawave/platform/deca_range_tables.c ****           19,
 380:Middlewares/Decawave/platform/deca_range_tables.c ****           22,
 381:Middlewares/Decawave/platform/deca_range_tables.c ****           24,
 382:Middlewares/Decawave/platform/deca_range_tables.c ****           27,
 383:Middlewares/Decawave/platform/deca_range_tables.c ****           30,
 384:Middlewares/Decawave/platform/deca_range_tables.c ****           32,
 385:Middlewares/Decawave/platform/deca_range_tables.c ****           35,
 386:Middlewares/Decawave/platform/deca_range_tables.c ****           38,
 387:Middlewares/Decawave/platform/deca_range_tables.c ****           43,
 388:Middlewares/Decawave/platform/deca_range_tables.c ****           48,
 389:Middlewares/Decawave/platform/deca_range_tables.c ****           56,
 390:Middlewares/Decawave/platform/deca_range_tables.c ****           78,
 391:Middlewares/Decawave/platform/deca_range_tables.c ****          101,
 392:Middlewares/Decawave/platform/deca_range_tables.c ****          120,
 393:Middlewares/Decawave/platform/deca_range_tables.c ****          157,
 394:Middlewares/Decawave/platform/deca_range_tables.c ****          255
 395:Middlewares/Decawave/platform/deca_range_tables.c ****     },
 396:Middlewares/Decawave/platform/deca_range_tables.c **** 
 397:Middlewares/Decawave/platform/deca_range_tables.c ****     // ch 2 - range25cm64PRFnb
 398:Middlewares/Decawave/platform/deca_range_tables.c ****     {
 399:Middlewares/Decawave/platform/deca_range_tables.c ****            1,
 400:Middlewares/Decawave/platform/deca_range_tables.c ****            2,
 401:Middlewares/Decawave/platform/deca_range_tables.c ****            2,
 402:Middlewares/Decawave/platform/deca_range_tables.c ****            3,
 403:Middlewares/Decawave/platform/deca_range_tables.c ****            4,
 404:Middlewares/Decawave/platform/deca_range_tables.c ****            4,
 405:Middlewares/Decawave/platform/deca_range_tables.c ****            6,
 406:Middlewares/Decawave/platform/deca_range_tables.c ****            9,
 407:Middlewares/Decawave/platform/deca_range_tables.c ****           12,
 408:Middlewares/Decawave/platform/deca_range_tables.c ****           14,
 409:Middlewares/Decawave/platform/deca_range_tables.c ****           17,
 410:Middlewares/Decawave/platform/deca_range_tables.c ****           19,
 411:Middlewares/Decawave/platform/deca_range_tables.c ****           21,
 412:Middlewares/Decawave/platform/deca_range_tables.c ****           24,
 413:Middlewares/Decawave/platform/deca_range_tables.c ****           26,
 414:Middlewares/Decawave/platform/deca_range_tables.c ****           28,
 415:Middlewares/Decawave/platform/deca_range_tables.c ****           31,
 416:Middlewares/Decawave/platform/deca_range_tables.c ****           33,
 417:Middlewares/Decawave/platform/deca_range_tables.c ****           37,
 418:Middlewares/Decawave/platform/deca_range_tables.c ****           42,
 419:Middlewares/Decawave/platform/deca_range_tables.c ****           49,
 420:Middlewares/Decawave/platform/deca_range_tables.c ****           68,
 421:Middlewares/Decawave/platform/deca_range_tables.c ****           89,
 422:Middlewares/Decawave/platform/deca_range_tables.c ****          105,
 423:Middlewares/Decawave/platform/deca_range_tables.c ****          138,
 424:Middlewares/Decawave/platform/deca_range_tables.c ****          255
 425:Middlewares/Decawave/platform/deca_range_tables.c ****     },
 426:Middlewares/Decawave/platform/deca_range_tables.c **** 
 427:Middlewares/Decawave/platform/deca_range_tables.c ****     // ch 3 - range25cm64PRFnb
 428:Middlewares/Decawave/platform/deca_range_tables.c ****     {
 429:Middlewares/Decawave/platform/deca_range_tables.c ****            1,
 430:Middlewares/Decawave/platform/deca_range_tables.c ****            1,
 431:Middlewares/Decawave/platform/deca_range_tables.c ****            2,
 432:Middlewares/Decawave/platform/deca_range_tables.c ****            3,
 433:Middlewares/Decawave/platform/deca_range_tables.c ****            3,
 434:Middlewares/Decawave/platform/deca_range_tables.c ****            4,
 435:Middlewares/Decawave/platform/deca_range_tables.c ****            5,
ARM GAS  /tmp/cc9Z1tj7.s 			page 12


 436:Middlewares/Decawave/platform/deca_range_tables.c ****            8,
 437:Middlewares/Decawave/platform/deca_range_tables.c ****           10,
 438:Middlewares/Decawave/platform/deca_range_tables.c ****           13,
 439:Middlewares/Decawave/platform/deca_range_tables.c ****           15,
 440:Middlewares/Decawave/platform/deca_range_tables.c ****           17,
 441:Middlewares/Decawave/platform/deca_range_tables.c ****           19,
 442:Middlewares/Decawave/platform/deca_range_tables.c ****           21,
 443:Middlewares/Decawave/platform/deca_range_tables.c ****           23,
 444:Middlewares/Decawave/platform/deca_range_tables.c ****           25,
 445:Middlewares/Decawave/platform/deca_range_tables.c ****           27,
 446:Middlewares/Decawave/platform/deca_range_tables.c ****           30,
 447:Middlewares/Decawave/platform/deca_range_tables.c ****           33,
 448:Middlewares/Decawave/platform/deca_range_tables.c ****           37,
 449:Middlewares/Decawave/platform/deca_range_tables.c ****           44,
 450:Middlewares/Decawave/platform/deca_range_tables.c ****           60,
 451:Middlewares/Decawave/platform/deca_range_tables.c ****           79,
 452:Middlewares/Decawave/platform/deca_range_tables.c ****           93,
 453:Middlewares/Decawave/platform/deca_range_tables.c ****          122,
 454:Middlewares/Decawave/platform/deca_range_tables.c ****          255
 455:Middlewares/Decawave/platform/deca_range_tables.c ****     },
 456:Middlewares/Decawave/platform/deca_range_tables.c **** 
 457:Middlewares/Decawave/platform/deca_range_tables.c ****     // ch 5 - range25cm64PRFnb
 458:Middlewares/Decawave/platform/deca_range_tables.c ****     {
 459:Middlewares/Decawave/platform/deca_range_tables.c ****            1,
 460:Middlewares/Decawave/platform/deca_range_tables.c ****            1,
 461:Middlewares/Decawave/platform/deca_range_tables.c ****            1,
 462:Middlewares/Decawave/platform/deca_range_tables.c ****            2,
 463:Middlewares/Decawave/platform/deca_range_tables.c ****            2,
 464:Middlewares/Decawave/platform/deca_range_tables.c ****            3,
 465:Middlewares/Decawave/platform/deca_range_tables.c ****            4,
 466:Middlewares/Decawave/platform/deca_range_tables.c ****            6,
 467:Middlewares/Decawave/platform/deca_range_tables.c ****            7,
 468:Middlewares/Decawave/platform/deca_range_tables.c ****            9,
 469:Middlewares/Decawave/platform/deca_range_tables.c ****           10,
 470:Middlewares/Decawave/platform/deca_range_tables.c ****           12,
 471:Middlewares/Decawave/platform/deca_range_tables.c ****           13,
 472:Middlewares/Decawave/platform/deca_range_tables.c ****           15,
 473:Middlewares/Decawave/platform/deca_range_tables.c ****           16,
 474:Middlewares/Decawave/platform/deca_range_tables.c ****           17,
 475:Middlewares/Decawave/platform/deca_range_tables.c ****           19,
 476:Middlewares/Decawave/platform/deca_range_tables.c ****           21,
 477:Middlewares/Decawave/platform/deca_range_tables.c ****           23,
 478:Middlewares/Decawave/platform/deca_range_tables.c ****           26,
 479:Middlewares/Decawave/platform/deca_range_tables.c ****           30,
 480:Middlewares/Decawave/platform/deca_range_tables.c ****           42,
 481:Middlewares/Decawave/platform/deca_range_tables.c ****           55,
 482:Middlewares/Decawave/platform/deca_range_tables.c ****           65,
 483:Middlewares/Decawave/platform/deca_range_tables.c ****           85,
 484:Middlewares/Decawave/platform/deca_range_tables.c ****          255
 485:Middlewares/Decawave/platform/deca_range_tables.c ****     }
 486:Middlewares/Decawave/platform/deca_range_tables.c **** }; // end range25cm64PRFnb
 487:Middlewares/Decawave/platform/deca_range_tables.c **** 
 488:Middlewares/Decawave/platform/deca_range_tables.c **** //-------------------------------------------------------------------------------------------------
 489:Middlewares/Decawave/platform/deca_range_tables.c **** // range25cm64PRFwb: Range Bias Correction table for wide band channels at 64 MHz PRF, NB: !!!! eac
 490:Middlewares/Decawave/platform/deca_range_tables.c **** //-------------------------------------------------------------------------------------------------
 491:Middlewares/Decawave/platform/deca_range_tables.c **** 
 492:Middlewares/Decawave/platform/deca_range_tables.c **** const uint8 range25cm64PRFwb[2][NUM_64M_OFFSETWB] =
ARM GAS  /tmp/cc9Z1tj7.s 			page 13


 493:Middlewares/Decawave/platform/deca_range_tables.c **** {
 494:Middlewares/Decawave/platform/deca_range_tables.c ****     // ch 4 - range25cm64PRFwb
 495:Middlewares/Decawave/platform/deca_range_tables.c ****     {
 496:Middlewares/Decawave/platform/deca_range_tables.c ****            7,
 497:Middlewares/Decawave/platform/deca_range_tables.c ****            8,
 498:Middlewares/Decawave/platform/deca_range_tables.c ****            8,
 499:Middlewares/Decawave/platform/deca_range_tables.c ****            9,
 500:Middlewares/Decawave/platform/deca_range_tables.c ****            9,
 501:Middlewares/Decawave/platform/deca_range_tables.c ****           10,
 502:Middlewares/Decawave/platform/deca_range_tables.c ****           11,
 503:Middlewares/Decawave/platform/deca_range_tables.c ****           12,
 504:Middlewares/Decawave/platform/deca_range_tables.c ****           13,
 505:Middlewares/Decawave/platform/deca_range_tables.c ****           13,
 506:Middlewares/Decawave/platform/deca_range_tables.c ****           14,
 507:Middlewares/Decawave/platform/deca_range_tables.c ****           15,
 508:Middlewares/Decawave/platform/deca_range_tables.c ****           16,
 509:Middlewares/Decawave/platform/deca_range_tables.c ****           16,
 510:Middlewares/Decawave/platform/deca_range_tables.c ****           17,
 511:Middlewares/Decawave/platform/deca_range_tables.c ****           18,
 512:Middlewares/Decawave/platform/deca_range_tables.c ****           19,
 513:Middlewares/Decawave/platform/deca_range_tables.c ****           19,
 514:Middlewares/Decawave/platform/deca_range_tables.c ****           20,
 515:Middlewares/Decawave/platform/deca_range_tables.c ****           21,
 516:Middlewares/Decawave/platform/deca_range_tables.c ****           22,
 517:Middlewares/Decawave/platform/deca_range_tables.c ****           24,
 518:Middlewares/Decawave/platform/deca_range_tables.c ****           25,
 519:Middlewares/Decawave/platform/deca_range_tables.c ****           27,
 520:Middlewares/Decawave/platform/deca_range_tables.c ****           28,
 521:Middlewares/Decawave/platform/deca_range_tables.c ****           29,
 522:Middlewares/Decawave/platform/deca_range_tables.c ****           30,
 523:Middlewares/Decawave/platform/deca_range_tables.c ****           32,
 524:Middlewares/Decawave/platform/deca_range_tables.c ****           33,
 525:Middlewares/Decawave/platform/deca_range_tables.c ****           34,
 526:Middlewares/Decawave/platform/deca_range_tables.c ****           35,
 527:Middlewares/Decawave/platform/deca_range_tables.c ****           37,
 528:Middlewares/Decawave/platform/deca_range_tables.c ****           39,
 529:Middlewares/Decawave/platform/deca_range_tables.c ****           41,
 530:Middlewares/Decawave/platform/deca_range_tables.c ****           43,
 531:Middlewares/Decawave/platform/deca_range_tables.c ****           45,
 532:Middlewares/Decawave/platform/deca_range_tables.c ****           48,
 533:Middlewares/Decawave/platform/deca_range_tables.c ****           50,
 534:Middlewares/Decawave/platform/deca_range_tables.c ****           53,
 535:Middlewares/Decawave/platform/deca_range_tables.c ****           56,
 536:Middlewares/Decawave/platform/deca_range_tables.c ****           60,
 537:Middlewares/Decawave/platform/deca_range_tables.c ****           64,
 538:Middlewares/Decawave/platform/deca_range_tables.c ****           68,
 539:Middlewares/Decawave/platform/deca_range_tables.c ****           74,
 540:Middlewares/Decawave/platform/deca_range_tables.c ****           81,
 541:Middlewares/Decawave/platform/deca_range_tables.c ****           89,
 542:Middlewares/Decawave/platform/deca_range_tables.c ****           98,
 543:Middlewares/Decawave/platform/deca_range_tables.c ****          109,
 544:Middlewares/Decawave/platform/deca_range_tables.c ****          122,
 545:Middlewares/Decawave/platform/deca_range_tables.c ****          136,
 546:Middlewares/Decawave/platform/deca_range_tables.c ****          146,
 547:Middlewares/Decawave/platform/deca_range_tables.c ****          154,
 548:Middlewares/Decawave/platform/deca_range_tables.c ****          162,
 549:Middlewares/Decawave/platform/deca_range_tables.c ****          178,
ARM GAS  /tmp/cc9Z1tj7.s 			page 14


 550:Middlewares/Decawave/platform/deca_range_tables.c ****          220,
 551:Middlewares/Decawave/platform/deca_range_tables.c ****          249,
 552:Middlewares/Decawave/platform/deca_range_tables.c ****          255,
 553:Middlewares/Decawave/platform/deca_range_tables.c ****          255,
 554:Middlewares/Decawave/platform/deca_range_tables.c ****          255
 555:Middlewares/Decawave/platform/deca_range_tables.c ****     },
 556:Middlewares/Decawave/platform/deca_range_tables.c **** 
 557:Middlewares/Decawave/platform/deca_range_tables.c ****     // ch 7 - range25cm64PRFwb
 558:Middlewares/Decawave/platform/deca_range_tables.c ****     {
 559:Middlewares/Decawave/platform/deca_range_tables.c ****            4,
 560:Middlewares/Decawave/platform/deca_range_tables.c ****            5,
 561:Middlewares/Decawave/platform/deca_range_tables.c ****            5,
 562:Middlewares/Decawave/platform/deca_range_tables.c ****            5,
 563:Middlewares/Decawave/platform/deca_range_tables.c ****            6,
 564:Middlewares/Decawave/platform/deca_range_tables.c ****            6,
 565:Middlewares/Decawave/platform/deca_range_tables.c ****            7,
 566:Middlewares/Decawave/platform/deca_range_tables.c ****            7,
 567:Middlewares/Decawave/platform/deca_range_tables.c ****            8,
 568:Middlewares/Decawave/platform/deca_range_tables.c ****            8,
 569:Middlewares/Decawave/platform/deca_range_tables.c ****            9,
 570:Middlewares/Decawave/platform/deca_range_tables.c ****            9,
 571:Middlewares/Decawave/platform/deca_range_tables.c ****           10,
 572:Middlewares/Decawave/platform/deca_range_tables.c ****           10,
 573:Middlewares/Decawave/platform/deca_range_tables.c ****           10,
 574:Middlewares/Decawave/platform/deca_range_tables.c ****           11,
 575:Middlewares/Decawave/platform/deca_range_tables.c ****           11,
 576:Middlewares/Decawave/platform/deca_range_tables.c ****           12,
 577:Middlewares/Decawave/platform/deca_range_tables.c ****           13,
 578:Middlewares/Decawave/platform/deca_range_tables.c ****           13,
 579:Middlewares/Decawave/platform/deca_range_tables.c ****           14,
 580:Middlewares/Decawave/platform/deca_range_tables.c ****           15,
 581:Middlewares/Decawave/platform/deca_range_tables.c ****           16,
 582:Middlewares/Decawave/platform/deca_range_tables.c ****           16,
 583:Middlewares/Decawave/platform/deca_range_tables.c ****           17,
 584:Middlewares/Decawave/platform/deca_range_tables.c ****           18,
 585:Middlewares/Decawave/platform/deca_range_tables.c ****           19,
 586:Middlewares/Decawave/platform/deca_range_tables.c ****           19,
 587:Middlewares/Decawave/platform/deca_range_tables.c ****           20,
 588:Middlewares/Decawave/platform/deca_range_tables.c ****           21,
 589:Middlewares/Decawave/platform/deca_range_tables.c ****           22,
 590:Middlewares/Decawave/platform/deca_range_tables.c ****           23,
 591:Middlewares/Decawave/platform/deca_range_tables.c ****           24,
 592:Middlewares/Decawave/platform/deca_range_tables.c ****           25,
 593:Middlewares/Decawave/platform/deca_range_tables.c ****           26,
 594:Middlewares/Decawave/platform/deca_range_tables.c ****           28,
 595:Middlewares/Decawave/platform/deca_range_tables.c ****           29,
 596:Middlewares/Decawave/platform/deca_range_tables.c ****           31,
 597:Middlewares/Decawave/platform/deca_range_tables.c ****           33,
 598:Middlewares/Decawave/platform/deca_range_tables.c ****           35,
 599:Middlewares/Decawave/platform/deca_range_tables.c ****           37,
 600:Middlewares/Decawave/platform/deca_range_tables.c ****           39,
 601:Middlewares/Decawave/platform/deca_range_tables.c ****           42,
 602:Middlewares/Decawave/platform/deca_range_tables.c ****           46,
 603:Middlewares/Decawave/platform/deca_range_tables.c ****           50,
 604:Middlewares/Decawave/platform/deca_range_tables.c ****           54,
 605:Middlewares/Decawave/platform/deca_range_tables.c ****           60,
 606:Middlewares/Decawave/platform/deca_range_tables.c ****           67,
ARM GAS  /tmp/cc9Z1tj7.s 			page 15


 607:Middlewares/Decawave/platform/deca_range_tables.c ****           75,
 608:Middlewares/Decawave/platform/deca_range_tables.c ****           83,
 609:Middlewares/Decawave/platform/deca_range_tables.c ****           90,
 610:Middlewares/Decawave/platform/deca_range_tables.c ****           95,
 611:Middlewares/Decawave/platform/deca_range_tables.c ****          100,
 612:Middlewares/Decawave/platform/deca_range_tables.c ****          110,
 613:Middlewares/Decawave/platform/deca_range_tables.c ****          135,
 614:Middlewares/Decawave/platform/deca_range_tables.c ****          153,
 615:Middlewares/Decawave/platform/deca_range_tables.c ****          172,
 616:Middlewares/Decawave/platform/deca_range_tables.c ****          192,
 617:Middlewares/Decawave/platform/deca_range_tables.c ****          255
 618:Middlewares/Decawave/platform/deca_range_tables.c ****     }
 619:Middlewares/Decawave/platform/deca_range_tables.c **** }; // end range25cm64PRFwb
 620:Middlewares/Decawave/platform/deca_range_tables.c **** 
 621:Middlewares/Decawave/platform/deca_range_tables.c **** 
 622:Middlewares/Decawave/platform/deca_range_tables.c **** /*! -----------------------------------------------------------------------------------------------
 623:Middlewares/Decawave/platform/deca_range_tables.c ****  * Function: dwt_getrangebias()
 624:Middlewares/Decawave/platform/deca_range_tables.c ****  *
 625:Middlewares/Decawave/platform/deca_range_tables.c ****  * Description: This function is used to return the range bias correction need for TWR with DW1000 
 626:Middlewares/Decawave/platform/deca_range_tables.c ****  *
 627:Middlewares/Decawave/platform/deca_range_tables.c ****  * input parameters:	
 628:Middlewares/Decawave/platform/deca_range_tables.c ****  * @param chan  - specifies the operating channel (e.g. 1, 2, 3, 4, 5, 6 or 7) 
 629:Middlewares/Decawave/platform/deca_range_tables.c ****  * @param range - the calculated distance before correction
 630:Middlewares/Decawave/platform/deca_range_tables.c ****  * @param prf	- this is the PRF e.g. DWT_PRF_16M or DWT_PRF_64M
 631:Middlewares/Decawave/platform/deca_range_tables.c ****  *
 632:Middlewares/Decawave/platform/deca_range_tables.c ****  * output parameters
 633:Middlewares/Decawave/platform/deca_range_tables.c ****  *
 634:Middlewares/Decawave/platform/deca_range_tables.c ****  * returns correction needed in meters
 635:Middlewares/Decawave/platform/deca_range_tables.c ****  */
 636:Middlewares/Decawave/platform/deca_range_tables.c **** double dwt_getrangebias(uint8 chan, float range, uint8 prf)
 637:Middlewares/Decawave/platform/deca_range_tables.c **** {
 103              		.loc 1 637 1
 104              		.cfi_startproc
 105              		@ args = 0, pretend = 0, frame = 32
 106              		@ frame_needed = 1, uses_anonymous_args = 0
 107 0000 80B5     		push	{r7, lr}
 108              	.LCFI0:
 109              		.cfi_def_cfa_offset 8
 110              		.cfi_offset 7, -8
 111              		.cfi_offset 14, -4
 112 0002 88B0     		sub	sp, sp, #32
 113              	.LCFI1:
 114              		.cfi_def_cfa_offset 40
 115 0004 00AF     		add	r7, sp, #0
 116              	.LCFI2:
 117              		.cfi_def_cfa_register 7
 118 0006 0346     		mov	r3, r0
 119 0008 87ED000A 		vstr.32	s0, [r7]
 120 000c 0A46     		mov	r2, r1
 121 000e FB71     		strb	r3, [r7, #7]
 122 0010 1346     		mov	r3, r2
 123 0012 BB71     		strb	r3, [r7, #6]
 638:Middlewares/Decawave/platform/deca_range_tables.c ****     //first get the lookup index that corresponds to given range for a particular channel at 16M PR
 639:Middlewares/Decawave/platform/deca_range_tables.c ****     int i = 0 ;
 124              		.loc 1 639 9
 125 0014 0023     		movs	r3, #0
 126 0016 FB61     		str	r3, [r7, #28]
ARM GAS  /tmp/cc9Z1tj7.s 			page 16


 640:Middlewares/Decawave/platform/deca_range_tables.c ****     int chanIdx ;
 641:Middlewares/Decawave/platform/deca_range_tables.c ****     int cmoffseti ;                                 // integer number of CM offset
 642:Middlewares/Decawave/platform/deca_range_tables.c **** 
 643:Middlewares/Decawave/platform/deca_range_tables.c ****     double mOffset ;                                // final offset result in metres
 644:Middlewares/Decawave/platform/deca_range_tables.c **** 
 645:Middlewares/Decawave/platform/deca_range_tables.c ****     // NB: note we may get some small negitive values e.g. up to -50 cm.
 646:Middlewares/Decawave/platform/deca_range_tables.c **** 
 647:Middlewares/Decawave/platform/deca_range_tables.c ****     int rangeint25cm = (int) (range * 4.00) ;       // convert range to integer number of 25cm valu
 127              		.loc 1 647 37
 128 0018 3868     		ldr	r0, [r7]	@ float
 129 001a FFF7FEFF 		bl	__aeabi_f2d
 130              	.LVL0:
 131 001e 4FF00002 		mov	r2, #0
 132 0022 574B     		ldr	r3, .L19+8
 133 0024 FFF7FEFF 		bl	__aeabi_dmul
 134              	.LVL1:
 135 0028 0246     		mov	r2, r0
 136 002a 0B46     		mov	r3, r1
 137              		.loc 1 647 9
 138 002c 1046     		mov	r0, r2
 139 002e 1946     		mov	r1, r3
 140 0030 FFF7FEFF 		bl	__aeabi_d2iz
 141              	.LVL2:
 142 0034 0346     		mov	r3, r0
 143 0036 7B61     		str	r3, [r7, #20]
 648:Middlewares/Decawave/platform/deca_range_tables.c **** 
 649:Middlewares/Decawave/platform/deca_range_tables.c ****     if (rangeint25cm > 255) rangeint25cm = 255 ;    // make sure it matches largest value in table 
 144              		.loc 1 649 8
 145 0038 7B69     		ldr	r3, [r7, #20]
 146 003a FF2B     		cmp	r3, #255
 147 003c 01DD     		ble	.L2
 148              		.loc 1 649 42 discriminator 1
 149 003e FF23     		movs	r3, #255
 150 0040 7B61     		str	r3, [r7, #20]
 151              	.L2:
 650:Middlewares/Decawave/platform/deca_range_tables.c **** 
 651:Middlewares/Decawave/platform/deca_range_tables.c ****     if (prf == DWT_PRF_16M)
 152              		.loc 1 651 8
 153 0042 BB79     		ldrb	r3, [r7, #6]	@ zero_extendqisi2
 154 0044 012B     		cmp	r3, #1
 155 0046 39D1     		bne	.L3
 652:Middlewares/Decawave/platform/deca_range_tables.c ****     {
 653:Middlewares/Decawave/platform/deca_range_tables.c ****         switch(chan)
 156              		.loc 1 653 9
 157 0048 FB79     		ldrb	r3, [r7, #7]	@ zero_extendqisi2
 158 004a 042B     		cmp	r3, #4
 159 004c 01D0     		beq	.L4
 160 004e 072B     		cmp	r3, #7
 161 0050 19D1     		bne	.L5
 162              	.L4:
 654:Middlewares/Decawave/platform/deca_range_tables.c ****         {
 655:Middlewares/Decawave/platform/deca_range_tables.c ****             case 4:
 656:Middlewares/Decawave/platform/deca_range_tables.c ****             case 7:
 657:Middlewares/Decawave/platform/deca_range_tables.c ****             {
 658:Middlewares/Decawave/platform/deca_range_tables.c ****                 chanIdx = chan_idxwb[chan];
 163              		.loc 1 658 37
 164 0052 FB79     		ldrb	r3, [r7, #7]	@ zero_extendqisi2
ARM GAS  /tmp/cc9Z1tj7.s 			page 17


 165 0054 4B4A     		ldr	r2, .L19+12
 166 0056 D35C     		ldrb	r3, [r2, r3]	@ zero_extendqisi2
 167              		.loc 1 658 25
 168 0058 3B61     		str	r3, [r7, #16]
 659:Middlewares/Decawave/platform/deca_range_tables.c ****                 while (rangeint25cm > range25cm16PRFwb[chanIdx][i]) i++ ;       // find index in ta
 169              		.loc 1 659 23
 170 005a 02E0     		b	.L6
 171              	.L7:
 172              		.loc 1 659 70 discriminator 2
 173 005c FB69     		ldr	r3, [r7, #28]
 174 005e 0133     		adds	r3, r3, #1
 175 0060 FB61     		str	r3, [r7, #28]
 176              	.L6:
 177              		.loc 1 659 64 discriminator 1
 178 0062 4949     		ldr	r1, .L19+16
 179 0064 3A69     		ldr	r2, [r7, #16]
 180 0066 1346     		mov	r3, r2
 181 0068 1B01     		lsls	r3, r3, #4
 182 006a 1344     		add	r3, r3, r2
 183 006c 9B00     		lsls	r3, r3, #2
 184 006e CA18     		adds	r2, r1, r3
 185 0070 FB69     		ldr	r3, [r7, #28]
 186 0072 1344     		add	r3, r3, r2
 187 0074 1B78     		ldrb	r3, [r3]	@ zero_extendqisi2
 188 0076 1A46     		mov	r2, r3
 189              		.loc 1 659 23 discriminator 1
 190 0078 7B69     		ldr	r3, [r7, #20]
 191 007a 9342     		cmp	r3, r2
 192 007c EEDC     		bgt	.L7
 660:Middlewares/Decawave/platform/deca_range_tables.c ****                 cmoffseti = i + CM_OFFSET_16M_WB ;                              // nearest centimet
 193              		.loc 1 660 27
 194 007e FB69     		ldr	r3, [r7, #28]
 195 0080 1C3B     		subs	r3, r3, #28
 196 0082 BB61     		str	r3, [r7, #24]
 661:Middlewares/Decawave/platform/deca_range_tables.c ****             }
 662:Middlewares/Decawave/platform/deca_range_tables.c ****             break;
 197              		.loc 1 662 13
 198 0084 52E0     		b	.L11
 199              	.L5:
 663:Middlewares/Decawave/platform/deca_range_tables.c ****             default:
 664:Middlewares/Decawave/platform/deca_range_tables.c ****             {
 665:Middlewares/Decawave/platform/deca_range_tables.c ****                 chanIdx = chan_idxnb[chan];
 200              		.loc 1 665 37
 201 0086 FB79     		ldrb	r3, [r7, #7]	@ zero_extendqisi2
 202 0088 404A     		ldr	r2, .L19+20
 203 008a D35C     		ldrb	r3, [r2, r3]	@ zero_extendqisi2
 204              		.loc 1 665 25
 205 008c 3B61     		str	r3, [r7, #16]
 666:Middlewares/Decawave/platform/deca_range_tables.c ****                 while (rangeint25cm > range25cm16PRFnb[chanIdx][i]) i++ ;       // find index in ta
 206              		.loc 1 666 23
 207 008e 02E0     		b	.L9
 208              	.L10:
 209              		.loc 1 666 70 discriminator 2
 210 0090 FB69     		ldr	r3, [r7, #28]
 211 0092 0133     		adds	r3, r3, #1
 212 0094 FB61     		str	r3, [r7, #28]
 213              	.L9:
ARM GAS  /tmp/cc9Z1tj7.s 			page 18


 214              		.loc 1 666 64 discriminator 1
 215 0096 3E49     		ldr	r1, .L19+24
 216 0098 3A69     		ldr	r2, [r7, #16]
 217 009a 1346     		mov	r3, r2
 218 009c DB00     		lsls	r3, r3, #3
 219 009e 1344     		add	r3, r3, r2
 220 00a0 9B00     		lsls	r3, r3, #2
 221 00a2 1344     		add	r3, r3, r2
 222 00a4 CA18     		adds	r2, r1, r3
 223 00a6 FB69     		ldr	r3, [r7, #28]
 224 00a8 1344     		add	r3, r3, r2
 225 00aa 1B78     		ldrb	r3, [r3]	@ zero_extendqisi2
 226 00ac 1A46     		mov	r2, r3
 227              		.loc 1 666 23 discriminator 1
 228 00ae 7B69     		ldr	r3, [r7, #20]
 229 00b0 9342     		cmp	r3, r2
 230 00b2 EDDC     		bgt	.L10
 667:Middlewares/Decawave/platform/deca_range_tables.c ****                 cmoffseti = i + CM_OFFSET_16M_NB ;                              // nearest centimet
 231              		.loc 1 667 27
 232 00b4 FB69     		ldr	r3, [r7, #28]
 233 00b6 173B     		subs	r3, r3, #23
 234 00b8 BB61     		str	r3, [r7, #24]
 235 00ba 37E0     		b	.L11
 236              	.L3:
 668:Middlewares/Decawave/platform/deca_range_tables.c ****             }
 669:Middlewares/Decawave/platform/deca_range_tables.c ****         }//end of switch
 670:Middlewares/Decawave/platform/deca_range_tables.c ****     }
 671:Middlewares/Decawave/platform/deca_range_tables.c ****     else // 64M PRF
 672:Middlewares/Decawave/platform/deca_range_tables.c ****     {
 673:Middlewares/Decawave/platform/deca_range_tables.c ****         switch(chan)
 237              		.loc 1 673 9
 238 00bc FB79     		ldrb	r3, [r7, #7]	@ zero_extendqisi2
 239 00be 042B     		cmp	r3, #4
 240 00c0 01D0     		beq	.L12
 241 00c2 072B     		cmp	r3, #7
 242 00c4 1AD1     		bne	.L13
 243              	.L12:
 674:Middlewares/Decawave/platform/deca_range_tables.c ****         {
 675:Middlewares/Decawave/platform/deca_range_tables.c ****             case 4:
 676:Middlewares/Decawave/platform/deca_range_tables.c ****             case 7:
 677:Middlewares/Decawave/platform/deca_range_tables.c ****             {
 678:Middlewares/Decawave/platform/deca_range_tables.c ****                 chanIdx = chan_idxwb[chan];
 244              		.loc 1 678 37
 245 00c6 FB79     		ldrb	r3, [r7, #7]	@ zero_extendqisi2
 246 00c8 2E4A     		ldr	r2, .L19+12
 247 00ca D35C     		ldrb	r3, [r2, r3]	@ zero_extendqisi2
 248              		.loc 1 678 25
 249 00cc 3B61     		str	r3, [r7, #16]
 679:Middlewares/Decawave/platform/deca_range_tables.c ****                 while (rangeint25cm > range25cm64PRFwb[chanIdx][i]) i++ ;       // find index in ta
 250              		.loc 1 679 23
 251 00ce 02E0     		b	.L14
 252              	.L15:
 253              		.loc 1 679 70 discriminator 2
 254 00d0 FB69     		ldr	r3, [r7, #28]
 255 00d2 0133     		adds	r3, r3, #1
 256 00d4 FB61     		str	r3, [r7, #28]
 257              	.L14:
ARM GAS  /tmp/cc9Z1tj7.s 			page 19


 258              		.loc 1 679 64 discriminator 1
 259 00d6 2F49     		ldr	r1, .L19+28
 260 00d8 3A69     		ldr	r2, [r7, #16]
 261 00da 1346     		mov	r3, r2
 262 00dc 1B01     		lsls	r3, r3, #4
 263 00de 9B1A     		subs	r3, r3, r2
 264 00e0 9B00     		lsls	r3, r3, #2
 265 00e2 9B1A     		subs	r3, r3, r2
 266 00e4 CA18     		adds	r2, r1, r3
 267 00e6 FB69     		ldr	r3, [r7, #28]
 268 00e8 1344     		add	r3, r3, r2
 269 00ea 1B78     		ldrb	r3, [r3]	@ zero_extendqisi2
 270 00ec 1A46     		mov	r2, r3
 271              		.loc 1 679 23 discriminator 1
 272 00ee 7B69     		ldr	r3, [r7, #20]
 273 00f0 9342     		cmp	r3, r2
 274 00f2 EDDC     		bgt	.L15
 680:Middlewares/Decawave/platform/deca_range_tables.c ****                 cmoffseti = i + CM_OFFSET_64M_WB ;                              // nearest centimet
 275              		.loc 1 680 27
 276 00f4 FB69     		ldr	r3, [r7, #28]
 277 00f6 1E3B     		subs	r3, r3, #30
 278 00f8 BB61     		str	r3, [r7, #24]
 681:Middlewares/Decawave/platform/deca_range_tables.c ****             }
 682:Middlewares/Decawave/platform/deca_range_tables.c ****             break;
 279              		.loc 1 682 13
 280 00fa 17E0     		b	.L11
 281              	.L13:
 683:Middlewares/Decawave/platform/deca_range_tables.c ****             default:
 684:Middlewares/Decawave/platform/deca_range_tables.c ****             {
 685:Middlewares/Decawave/platform/deca_range_tables.c ****                 chanIdx = chan_idxnb[chan];
 282              		.loc 1 685 37
 283 00fc FB79     		ldrb	r3, [r7, #7]	@ zero_extendqisi2
 284 00fe 234A     		ldr	r2, .L19+20
 285 0100 D35C     		ldrb	r3, [r2, r3]	@ zero_extendqisi2
 286              		.loc 1 685 25
 287 0102 3B61     		str	r3, [r7, #16]
 686:Middlewares/Decawave/platform/deca_range_tables.c ****                 while (rangeint25cm > range25cm64PRFnb[chanIdx][i]) i++ ;       // find index in ta
 288              		.loc 1 686 23
 289 0104 02E0     		b	.L16
 290              	.L17:
 291              		.loc 1 686 70 discriminator 2
 292 0106 FB69     		ldr	r3, [r7, #28]
 293 0108 0133     		adds	r3, r3, #1
 294 010a FB61     		str	r3, [r7, #28]
 295              	.L16:
 296              		.loc 1 686 64 discriminator 1
 297 010c 224A     		ldr	r2, .L19+32
 298 010e 3B69     		ldr	r3, [r7, #16]
 299 0110 1A21     		movs	r1, #26
 300 0112 01FB03F3 		mul	r3, r1, r3
 301 0116 1A44     		add	r2, r2, r3
 302 0118 FB69     		ldr	r3, [r7, #28]
 303 011a 1344     		add	r3, r3, r2
 304 011c 1B78     		ldrb	r3, [r3]	@ zero_extendqisi2
 305 011e 1A46     		mov	r2, r3
 306              		.loc 1 686 23 discriminator 1
 307 0120 7B69     		ldr	r3, [r7, #20]
ARM GAS  /tmp/cc9Z1tj7.s 			page 20


 308 0122 9342     		cmp	r3, r2
 309 0124 EFDC     		bgt	.L17
 687:Middlewares/Decawave/platform/deca_range_tables.c ****                 cmoffseti = i + CM_OFFSET_64M_NB ;                              // nearest centimet
 310              		.loc 1 687 27
 311 0126 FB69     		ldr	r3, [r7, #28]
 312 0128 113B     		subs	r3, r3, #17
 313 012a BB61     		str	r3, [r7, #24]
 314              	.L11:
 688:Middlewares/Decawave/platform/deca_range_tables.c ****             }
 689:Middlewares/Decawave/platform/deca_range_tables.c ****         }//end of switch
 690:Middlewares/Decawave/platform/deca_range_tables.c ****     } // end else
 691:Middlewares/Decawave/platform/deca_range_tables.c **** 
 692:Middlewares/Decawave/platform/deca_range_tables.c **** 
 693:Middlewares/Decawave/platform/deca_range_tables.c ****     mOffset = (float) cmoffseti ;                                       // offset result in centimm
 315              		.loc 1 693 15
 316 012c BB69     		ldr	r3, [r7, #24]
 317 012e 07EE903A 		vmov	s15, r3	@ int
 318 0132 F8EEE77A 		vcvt.f32.s32	s15, s15
 319              		.loc 1 693 13
 320 0136 17EE900A 		vmov	r0, s15
 321 013a FFF7FEFF 		bl	__aeabi_f2d
 322              	.LVL3:
 323 013e 0246     		mov	r2, r0
 324 0140 0B46     		mov	r3, r1
 325 0142 C7E90223 		strd	r2, [r7, #8]
 694:Middlewares/Decawave/platform/deca_range_tables.c **** 
 695:Middlewares/Decawave/platform/deca_range_tables.c ****     mOffset *= 0.01 ;                                                   // convert to metres
 326              		.loc 1 695 13
 327 0146 0CA3     		adr	r3, .L19
 328 0148 D3E90023 		ldrd	r2, [r3]
 329 014c D7E90201 		ldrd	r0, [r7, #8]
 330 0150 FFF7FEFF 		bl	__aeabi_dmul
 331              	.LVL4:
 332 0154 0246     		mov	r2, r0
 333 0156 0B46     		mov	r3, r1
 334 0158 C7E90223 		strd	r2, [r7, #8]
 696:Middlewares/Decawave/platform/deca_range_tables.c **** 
 697:Middlewares/Decawave/platform/deca_range_tables.c ****     return (mOffset) ;
 335              		.loc 1 697 12
 336 015c D7E90223 		ldrd	r2, [r7, #8]
 337 0160 43EC172B 		vmov	d7, r2, r3
 698:Middlewares/Decawave/platform/deca_range_tables.c **** }
 338              		.loc 1 698 1
 339 0164 B0EE470A 		vmov.f32	s0, s14
 340 0168 F0EE670A 		vmov.f32	s1, s15
 341 016c 2037     		adds	r7, r7, #32
 342              	.LCFI3:
 343              		.cfi_def_cfa_offset 8
 344 016e BD46     		mov	sp, r7
 345              	.LCFI4:
 346              		.cfi_def_cfa_register 13
 347              		@ sp needed
 348 0170 80BD     		pop	{r7, pc}
 349              	.L20:
 350 0172 00BFAFF3 		.align	3
 350      0080
 351              	.L19:
ARM GAS  /tmp/cc9Z1tj7.s 			page 21


 352 0178 7B14AE47 		.word	1202590843
 353 017c E17A843F 		.word	1065646817
 354 0180 00001040 		.word	1074790400
 355 0184 00000000 		.word	chan_idxwb
 356 0188 00000000 		.word	range25cm16PRFwb
 357 018c 00000000 		.word	chan_idxnb
 358 0190 00000000 		.word	range25cm16PRFnb
 359 0194 00000000 		.word	range25cm64PRFwb
 360 0198 00000000 		.word	range25cm64PRFnb
 361              		.cfi_endproc
 362              	.LFE3:
 364              		.text
 365              	.Letext0:
 366              		.file 2 "/home/ilian/opt/gcc-arm-none-eabi-9-2020-q2-update/lib/gcc/arm-none-eabi/9.3.1/include/st
 367              		.file 3 "/home/ilian/opt/gcc-arm-none-eabi-9-2020-q2-update/arm-none-eabi/include/sys/_types.h"
 368              		.file 4 "/home/ilian/opt/gcc-arm-none-eabi-9-2020-q2-update/arm-none-eabi/include/sys/reent.h"
 369              		.file 5 "/home/ilian/opt/gcc-arm-none-eabi-9-2020-q2-update/arm-none-eabi/include/sys/lock.h"
 370              		.file 6 "/home/ilian/opt/gcc-arm-none-eabi-9-2020-q2-update/arm-none-eabi/include/stdlib.h"
 371              		.file 7 "Middlewares/Decawave/decadriver/deca_device_api.h"
 372              		.file 8 "Middlewares/Decawave/decadriver/deca_param_types.h"
ARM GAS  /tmp/cc9Z1tj7.s 			page 22

