ARM GAS  /tmp/cc0TY0Fa.s 			page 1


   1              		.cpu cortex-m4
   2              		.eabi_attribute 27, 1
   3              		.eabi_attribute 28, 1
   4              		.eabi_attribute 20, 1
   5              		.eabi_attribute 21, 1
   6              		.eabi_attribute 23, 3
   7              		.eabi_attribute 24, 1
   8              		.eabi_attribute 25, 1
   9              		.eabi_attribute 26, 1
  10              		.eabi_attribute 30, 6
  11              		.eabi_attribute 34, 1
  12              		.eabi_attribute 18, 4
  13              		.file	"deca_device.c"
  14              		.text
  15              	.Ltext0:
  16              		.cfi_sections	.debug_frame
  17              		.section	.bss.dw1000local,"aw",%nobits
  18              		.align	2
  21              	dw1000local:
  22 0000 00000000 		.space	56
  22      00000000 
  22      00000000 
  22      00000000 
  22      00000000 
  23              		.section	.data.pdw1000local,"aw"
  24              		.align	2
  27              	pdw1000local:
  28 0000 00000000 		.word	dw1000local
  29              		.section	.text.dwt_apiversion,"ax",%progbits
  30              		.align	1
  31              		.global	dwt_apiversion
  32              		.arch armv7e-m
  33              		.syntax unified
  34              		.thumb
  35              		.thumb_func
  36              		.fpu fpv4-sp-d16
  38              	dwt_apiversion:
  39              	.LFB0:
  40              		.file 1 "Middlewares/Decawave/decadriver/deca_device.c"
   1:Middlewares/Decawave/decadriver/deca_device.c **** /*! -----------------------------------------------------------------------------------------------
   2:Middlewares/Decawave/decadriver/deca_device.c ****  * @file    deca_device.c
   3:Middlewares/Decawave/decadriver/deca_device.c ****  * @brief   Decawave device configuration and control functions
   4:Middlewares/Decawave/decadriver/deca_device.c ****  *
   5:Middlewares/Decawave/decadriver/deca_device.c ****  * @attention
   6:Middlewares/Decawave/decadriver/deca_device.c ****  *
   7:Middlewares/Decawave/decadriver/deca_device.c ****  * Copyright 2013 (c) Decawave Ltd, Dublin, Ireland.
   8:Middlewares/Decawave/decadriver/deca_device.c ****  *
   9:Middlewares/Decawave/decadriver/deca_device.c ****  * All rights reserved.
  10:Middlewares/Decawave/decadriver/deca_device.c ****  *
  11:Middlewares/Decawave/decadriver/deca_device.c ****  */
  12:Middlewares/Decawave/decadriver/deca_device.c **** 
  13:Middlewares/Decawave/decadriver/deca_device.c **** #include <assert.h>
  14:Middlewares/Decawave/decadriver/deca_device.c **** #include <stdlib.h>
  15:Middlewares/Decawave/decadriver/deca_device.c **** 
  16:Middlewares/Decawave/decadriver/deca_device.c **** #include "deca_types.h"
  17:Middlewares/Decawave/decadriver/deca_device.c **** #include "deca_param_types.h"
  18:Middlewares/Decawave/decadriver/deca_device.c **** #include "deca_regs.h"
ARM GAS  /tmp/cc0TY0Fa.s 			page 2


  19:Middlewares/Decawave/decadriver/deca_device.c **** #include "deca_device_api.h"
  20:Middlewares/Decawave/decadriver/deca_device.c **** 
  21:Middlewares/Decawave/decadriver/deca_device.c **** // Defines for enable_clocks function
  22:Middlewares/Decawave/decadriver/deca_device.c **** #define FORCE_SYS_XTI  0
  23:Middlewares/Decawave/decadriver/deca_device.c **** #define ENABLE_ALL_SEQ 1
  24:Middlewares/Decawave/decadriver/deca_device.c **** #define FORCE_SYS_PLL  2
  25:Middlewares/Decawave/decadriver/deca_device.c **** #define READ_ACC_ON    7
  26:Middlewares/Decawave/decadriver/deca_device.c **** #define READ_ACC_OFF   8
  27:Middlewares/Decawave/decadriver/deca_device.c **** #define FORCE_OTP_ON   11
  28:Middlewares/Decawave/decadriver/deca_device.c **** #define FORCE_OTP_OFF  12
  29:Middlewares/Decawave/decadriver/deca_device.c **** #define FORCE_TX_PLL   13
  30:Middlewares/Decawave/decadriver/deca_device.c **** #define FORCE_LDE      14
  31:Middlewares/Decawave/decadriver/deca_device.c **** 
  32:Middlewares/Decawave/decadriver/deca_device.c **** // Defines for ACK request bitmask in DATA and MAC COMMAND frame control (first byte) - Used to det
  33:Middlewares/Decawave/decadriver/deca_device.c **** #define FCTRL_ACK_REQ_MASK 0x20
  34:Middlewares/Decawave/decadriver/deca_device.c **** // Frame control maximum length in bytes.
  35:Middlewares/Decawave/decadriver/deca_device.c **** #define FCTRL_LEN_MAX 2
  36:Middlewares/Decawave/decadriver/deca_device.c **** 
  37:Middlewares/Decawave/decadriver/deca_device.c **** // #define DWT_API_ERROR_CHECK     // define so API checks config input parameters
  38:Middlewares/Decawave/decadriver/deca_device.c **** 
  39:Middlewares/Decawave/decadriver/deca_device.c **** // ------------------------------------------------------------------------------------------------
  40:Middlewares/Decawave/decadriver/deca_device.c **** //
  41:Middlewares/Decawave/decadriver/deca_device.c **** // Internal functions for controlling and configuring the device
  42:Middlewares/Decawave/decadriver/deca_device.c **** //
  43:Middlewares/Decawave/decadriver/deca_device.c **** // ------------------------------------------------------------------------------------------------
  44:Middlewares/Decawave/decadriver/deca_device.c **** 
  45:Middlewares/Decawave/decadriver/deca_device.c **** // Enable and Configure specified clocks
  46:Middlewares/Decawave/decadriver/deca_device.c **** void _dwt_enableclocks(int clocks) ;
  47:Middlewares/Decawave/decadriver/deca_device.c **** // Configure the ucode (FP algorithm) parameters
  48:Middlewares/Decawave/decadriver/deca_device.c **** void _dwt_configlde(int prf);
  49:Middlewares/Decawave/decadriver/deca_device.c **** // Load ucode from OTP/ROM
  50:Middlewares/Decawave/decadriver/deca_device.c **** void _dwt_loaducodefromrom(void);
  51:Middlewares/Decawave/decadriver/deca_device.c **** // Read non-volatile memory
  52:Middlewares/Decawave/decadriver/deca_device.c **** uint32 _dwt_otpread(uint16 address);
  53:Middlewares/Decawave/decadriver/deca_device.c **** // Program the non-volatile memory
  54:Middlewares/Decawave/decadriver/deca_device.c **** uint32 _dwt_otpprogword32(uint32 data, uint16 address);
  55:Middlewares/Decawave/decadriver/deca_device.c **** // Upload the device configuration into always on memory
  56:Middlewares/Decawave/decadriver/deca_device.c **** void _dwt_aonarrayupload(void);
  57:Middlewares/Decawave/decadriver/deca_device.c **** // ------------------------------------------------------------------------------------------------
  58:Middlewares/Decawave/decadriver/deca_device.c **** 
  59:Middlewares/Decawave/decadriver/deca_device.c **** /*!
  60:Middlewares/Decawave/decadriver/deca_device.c ****  * Static data for DW1000 DecaWave Transceiver control
  61:Middlewares/Decawave/decadriver/deca_device.c ****  */
  62:Middlewares/Decawave/decadriver/deca_device.c **** 
  63:Middlewares/Decawave/decadriver/deca_device.c **** // ------------------------------------------------------------------------------------------------
  64:Middlewares/Decawave/decadriver/deca_device.c **** // Structure to hold device data
  65:Middlewares/Decawave/decadriver/deca_device.c **** typedef struct
  66:Middlewares/Decawave/decadriver/deca_device.c **** {
  67:Middlewares/Decawave/decadriver/deca_device.c ****     uint32      partID ;            // IC Part ID - read during initialisation
  68:Middlewares/Decawave/decadriver/deca_device.c ****     uint32      lotID ;             // IC Lot ID - read during initialisation
  69:Middlewares/Decawave/decadriver/deca_device.c ****     uint8       vBatP ;             // IC V bat read during production and stored in OTP (Vmeas @ 3
  70:Middlewares/Decawave/decadriver/deca_device.c ****     uint8       tempP ;             // IC V temp read during production and stored in OTP (Tmeas @ 
  71:Middlewares/Decawave/decadriver/deca_device.c ****     uint8       longFrames ;        // Flag in non-standard long frame mode
  72:Middlewares/Decawave/decadriver/deca_device.c ****     uint8       otprev ;            // OTP revision number (read during initialisation)
  73:Middlewares/Decawave/decadriver/deca_device.c ****     uint32      txFCTRL ;           // Keep TX_FCTRL register config
  74:Middlewares/Decawave/decadriver/deca_device.c ****     uint32      sysCFGreg ;         // Local copy of system config register
  75:Middlewares/Decawave/decadriver/deca_device.c ****     uint8       dblbuffon;          // Double RX buffer mode flag
ARM GAS  /tmp/cc0TY0Fa.s 			page 3


  76:Middlewares/Decawave/decadriver/deca_device.c ****     uint8       wait4resp ;         // wait4response was set with last TX start command
  77:Middlewares/Decawave/decadriver/deca_device.c ****     uint16      sleep_mode;         // Used for automatic reloading of LDO tune and microcode at wa
  78:Middlewares/Decawave/decadriver/deca_device.c ****     uint16      otp_mask ;          // Local copy of the OTP mask used in dwt_initialise call
  79:Middlewares/Decawave/decadriver/deca_device.c ****     dwt_cb_data_t cbData;           // Callback data structure
  80:Middlewares/Decawave/decadriver/deca_device.c ****     dwt_cb_t    cbTxDone;           // Callback for TX confirmation event
  81:Middlewares/Decawave/decadriver/deca_device.c ****     dwt_cb_t    cbRxOk;             // Callback for RX good frame event
  82:Middlewares/Decawave/decadriver/deca_device.c ****     dwt_cb_t    cbRxTo;             // Callback for RX timeout events
  83:Middlewares/Decawave/decadriver/deca_device.c ****     dwt_cb_t    cbRxErr;            // Callback for RX error events
  84:Middlewares/Decawave/decadriver/deca_device.c **** } dwt_local_data_t ;
  85:Middlewares/Decawave/decadriver/deca_device.c **** 
  86:Middlewares/Decawave/decadriver/deca_device.c **** static dwt_local_data_t dw1000local[DWT_NUM_DW_DEV] ; // Static local device data, can be an array 
  87:Middlewares/Decawave/decadriver/deca_device.c **** static dwt_local_data_t *pdw1000local = dw1000local ; // Static local data structure pointer
  88:Middlewares/Decawave/decadriver/deca_device.c **** 
  89:Middlewares/Decawave/decadriver/deca_device.c **** 
  90:Middlewares/Decawave/decadriver/deca_device.c **** /*! -----------------------------------------------------------------------------------------------
  91:Middlewares/Decawave/decadriver/deca_device.c ****  * @fn dwt_apiversion()
  92:Middlewares/Decawave/decadriver/deca_device.c ****  *
  93:Middlewares/Decawave/decadriver/deca_device.c ****  * @brief This function returns the version of the API as defined by DW1000_DRIVER_VERSION
  94:Middlewares/Decawave/decadriver/deca_device.c ****  *
  95:Middlewares/Decawave/decadriver/deca_device.c ****  * input parameters
  96:Middlewares/Decawave/decadriver/deca_device.c ****  *
  97:Middlewares/Decawave/decadriver/deca_device.c ****  * output parameters
  98:Middlewares/Decawave/decadriver/deca_device.c ****  *
  99:Middlewares/Decawave/decadriver/deca_device.c ****  * returns version (DW1000_DRIVER_VERSION)
 100:Middlewares/Decawave/decadriver/deca_device.c ****  */
 101:Middlewares/Decawave/decadriver/deca_device.c **** int32 dwt_apiversion(void)
 102:Middlewares/Decawave/decadriver/deca_device.c **** {
  41              		.loc 1 102 1
  42              		.cfi_startproc
  43              		@ args = 0, pretend = 0, frame = 0
  44              		@ frame_needed = 1, uses_anonymous_args = 0
  45              		@ link register save eliminated.
  46 0000 80B4     		push	{r7}
  47              	.LCFI0:
  48              		.cfi_def_cfa_offset 4
  49              		.cfi_offset 7, -4
  50 0002 00AF     		add	r7, sp, #0
  51              	.LCFI1:
  52              		.cfi_def_cfa_register 7
 103:Middlewares/Decawave/decadriver/deca_device.c ****     return DW1000_DRIVER_VERSION ;
  53              		.loc 1 103 12
  54 0004 024B     		ldr	r3, .L3
 104:Middlewares/Decawave/decadriver/deca_device.c **** }
  55              		.loc 1 104 1
  56 0006 1846     		mov	r0, r3
  57 0008 BD46     		mov	sp, r7
  58              	.LCFI2:
  59              		.cfi_def_cfa_register 13
  60              		@ sp needed
  61 000a 5DF8047B 		ldr	r7, [sp], #4
  62              	.LCFI3:
  63              		.cfi_restore 7
  64              		.cfi_def_cfa_offset 0
  65 000e 7047     		bx	lr
  66              	.L4:
  67              		.align	2
  68              	.L3:
ARM GAS  /tmp/cc0TY0Fa.s 			page 4


  69 0010 00010500 		.word	327936
  70              		.cfi_endproc
  71              	.LFE0:
  73              		.section	.text.dwt_setlocaldataptr,"ax",%progbits
  74              		.align	1
  75              		.global	dwt_setlocaldataptr
  76              		.syntax unified
  77              		.thumb
  78              		.thumb_func
  79              		.fpu fpv4-sp-d16
  81              	dwt_setlocaldataptr:
  82              	.LFB1:
 105:Middlewares/Decawave/decadriver/deca_device.c **** 
 106:Middlewares/Decawave/decadriver/deca_device.c **** /*! -----------------------------------------------------------------------------------------------
 107:Middlewares/Decawave/decadriver/deca_device.c ****  * @fn dwt_setlocaldataptr()
 108:Middlewares/Decawave/decadriver/deca_device.c ****  *
 109:Middlewares/Decawave/decadriver/deca_device.c ****  * @brief This function sets the local data structure pointer to point to the element in the local 
 110:Middlewares/Decawave/decadriver/deca_device.c ****  *
 111:Middlewares/Decawave/decadriver/deca_device.c ****  * input parameters
 112:Middlewares/Decawave/decadriver/deca_device.c ****  * @param index    - selects the array element to point to. Must be within the array bounds, i.e. <
 113:Middlewares/Decawave/decadriver/deca_device.c ****  *
 114:Middlewares/Decawave/decadriver/deca_device.c ****  * output parameters
 115:Middlewares/Decawave/decadriver/deca_device.c ****  *
 116:Middlewares/Decawave/decadriver/deca_device.c ****  * returns DWT_SUCCESS for success, or DWT_ERROR for error
 117:Middlewares/Decawave/decadriver/deca_device.c ****  */
 118:Middlewares/Decawave/decadriver/deca_device.c **** int dwt_setlocaldataptr(unsigned int index)
 119:Middlewares/Decawave/decadriver/deca_device.c **** {
  83              		.loc 1 119 1
  84              		.cfi_startproc
  85              		@ args = 0, pretend = 0, frame = 8
  86              		@ frame_needed = 1, uses_anonymous_args = 0
  87              		@ link register save eliminated.
  88 0000 80B4     		push	{r7}
  89              	.LCFI4:
  90              		.cfi_def_cfa_offset 4
  91              		.cfi_offset 7, -4
  92 0002 83B0     		sub	sp, sp, #12
  93              	.LCFI5:
  94              		.cfi_def_cfa_offset 16
  95 0004 00AF     		add	r7, sp, #0
  96              	.LCFI6:
  97              		.cfi_def_cfa_register 7
  98 0006 7860     		str	r0, [r7, #4]
 120:Middlewares/Decawave/decadriver/deca_device.c ****     // Check the index is within the array bounds
 121:Middlewares/Decawave/decadriver/deca_device.c ****     if (DWT_NUM_DW_DEV <= index) // return error if index outside the array bounds
  99              		.loc 1 121 8
 100 0008 7B68     		ldr	r3, [r7, #4]
 101 000a 002B     		cmp	r3, #0
 102 000c 02D0     		beq	.L6
 122:Middlewares/Decawave/decadriver/deca_device.c ****     {
 123:Middlewares/Decawave/decadriver/deca_device.c ****         return DWT_ERROR ;
 103              		.loc 1 123 16
 104 000e 4FF0FF33 		mov	r3, #-1
 105 0012 09E0     		b	.L7
 106              	.L6:
 124:Middlewares/Decawave/decadriver/deca_device.c ****     }
 125:Middlewares/Decawave/decadriver/deca_device.c **** 
ARM GAS  /tmp/cc0TY0Fa.s 			page 5


 126:Middlewares/Decawave/decadriver/deca_device.c ****     pdw1000local = &dw1000local[index];
 107              		.loc 1 126 20
 108 0014 7A68     		ldr	r2, [r7, #4]
 109 0016 1346     		mov	r3, r2
 110 0018 DB00     		lsls	r3, r3, #3
 111 001a 9B1A     		subs	r3, r3, r2
 112 001c DB00     		lsls	r3, r3, #3
 113 001e 054A     		ldr	r2, .L8
 114 0020 1344     		add	r3, r3, r2
 115              		.loc 1 126 18
 116 0022 054A     		ldr	r2, .L8+4
 117 0024 1360     		str	r3, [r2]
 127:Middlewares/Decawave/decadriver/deca_device.c **** 
 128:Middlewares/Decawave/decadriver/deca_device.c ****     return DWT_SUCCESS ;
 118              		.loc 1 128 12
 119 0026 0023     		movs	r3, #0
 120              	.L7:
 129:Middlewares/Decawave/decadriver/deca_device.c **** }
 121              		.loc 1 129 1
 122 0028 1846     		mov	r0, r3
 123 002a 0C37     		adds	r7, r7, #12
 124              	.LCFI7:
 125              		.cfi_def_cfa_offset 4
 126 002c BD46     		mov	sp, r7
 127              	.LCFI8:
 128              		.cfi_def_cfa_register 13
 129              		@ sp needed
 130 002e 5DF8047B 		ldr	r7, [sp], #4
 131              	.LCFI9:
 132              		.cfi_restore 7
 133              		.cfi_def_cfa_offset 0
 134 0032 7047     		bx	lr
 135              	.L9:
 136              		.align	2
 137              	.L8:
 138 0034 00000000 		.word	dw1000local
 139 0038 00000000 		.word	pdw1000local
 140              		.cfi_endproc
 141              	.LFE1:
 143              		.section	.text.dwt_initialise,"ax",%progbits
 144              		.align	1
 145              		.global	dwt_initialise
 146              		.syntax unified
 147              		.thumb
 148              		.thumb_func
 149              		.fpu fpv4-sp-d16
 151              	dwt_initialise:
 152              	.LFB2:
 130:Middlewares/Decawave/decadriver/deca_device.c **** 
 131:Middlewares/Decawave/decadriver/deca_device.c **** /*! -----------------------------------------------------------------------------------------------
 132:Middlewares/Decawave/decadriver/deca_device.c ****  * @fn dwt_initialise()
 133:Middlewares/Decawave/decadriver/deca_device.c ****  *
 134:Middlewares/Decawave/decadriver/deca_device.c ****  * @brief This function initiates communications with the DW1000 transceiver
 135:Middlewares/Decawave/decadriver/deca_device.c ****  * and reads its DEV_ID register (address 0x00) to verify the IC is one supported
 136:Middlewares/Decawave/decadriver/deca_device.c ****  * by this software (e.g. DW1000 32-bit device ID value is 0xDECA0130).  Then it
 137:Middlewares/Decawave/decadriver/deca_device.c ****  * does any initial once only device configurations needed for its use and initialises
 138:Middlewares/Decawave/decadriver/deca_device.c ****  * as necessary any static data items belonging to this low-level driver.
ARM GAS  /tmp/cc0TY0Fa.s 			page 6


 139:Middlewares/Decawave/decadriver/deca_device.c ****  *
 140:Middlewares/Decawave/decadriver/deca_device.c ****  * This function does not need to be called after DW1000 device is woken up from DEEPSLEEP,
 141:Middlewares/Decawave/decadriver/deca_device.c ****  * the device will preserve register values e.g. LDO, UCODE, XTAL. However if needed this
 142:Middlewares/Decawave/decadriver/deca_device.c ****  * function can be called to initialise internal structure  dw1000local[] if it has not been preser
 143:Middlewares/Decawave/decadriver/deca_device.c ****  * (e.g. if micro was in sleep and its RAM data (containing dw1000local structure was not preserved
 144:Middlewares/Decawave/decadriver/deca_device.c ****  *
 145:Middlewares/Decawave/decadriver/deca_device.c ****  * NOTES:
 146:Middlewares/Decawave/decadriver/deca_device.c ****  * 1. When DW1000 is powered on this function needs to be run before dwt_configuresleep,
 147:Middlewares/Decawave/decadriver/deca_device.c ****  *    also the SPI frequency has to be < 3MHz
 148:Middlewares/Decawave/decadriver/deca_device.c ****  * 2. It reads and applies LDO tune and crystal trim values from OTP memory
 149:Middlewares/Decawave/decadriver/deca_device.c ****  * 3. If accurate RX timestamping is needed microcode/LDE must be loaded
 150:Middlewares/Decawave/decadriver/deca_device.c ****  *
 151:Middlewares/Decawave/decadriver/deca_device.c ****  * input parameters
 152:Middlewares/Decawave/decadriver/deca_device.c ****  * @param config    -   specifies what configuration to load
 153:Middlewares/Decawave/decadriver/deca_device.c ****  *                  DWT_LOADNONE         0x00 - do not load any values from OTP memory
 154:Middlewares/Decawave/decadriver/deca_device.c ****  *                  DWT_LOADUCODE        0x01 - load the LDE microcode from ROM - enable accurate R
 155:Middlewares/Decawave/decadriver/deca_device.c ****  *                  DWT_DW_WAKE_UP       0x02 - just initialise dw1000local[] values (e.g. DW1000 h
 156:Middlewares/Decawave/decadriver/deca_device.c ****  *                  DWT_DW_WUP_NO_UCODE  0x04 - if microcode/LDE algorithm has not already been loa
 157:Middlewares/Decawave/decadriver/deca_device.c ****  *                  DWT_READ_OTP_PID     0x10 - read part ID from OTP
 158:Middlewares/Decawave/decadriver/deca_device.c ****  *                  DWT_READ_OTP_LID     0x20 - read lot ID from OTP
 159:Middlewares/Decawave/decadriver/deca_device.c ****  *                  DWT_READ_OTP_BAT     0x40 - read ref voltage from OTP
 160:Middlewares/Decawave/decadriver/deca_device.c ****  *                  DWT_READ_OTP_TMP     0x80 - read ref temperature from OTP
 161:Middlewares/Decawave/decadriver/deca_device.c ****  * output parameters
 162:Middlewares/Decawave/decadriver/deca_device.c ****  *
 163:Middlewares/Decawave/decadriver/deca_device.c ****  * returns DWT_SUCCESS for success, or DWT_ERROR for error
 164:Middlewares/Decawave/decadriver/deca_device.c ****  */
 165:Middlewares/Decawave/decadriver/deca_device.c **** // OTP addresses definitions
 166:Middlewares/Decawave/decadriver/deca_device.c **** #define LDOTUNE_ADDRESS (0x04)
 167:Middlewares/Decawave/decadriver/deca_device.c **** #define PARTID_ADDRESS (0x06)
 168:Middlewares/Decawave/decadriver/deca_device.c **** #define LOTID_ADDRESS  (0x07)
 169:Middlewares/Decawave/decadriver/deca_device.c **** #define VBAT_ADDRESS   (0x08)
 170:Middlewares/Decawave/decadriver/deca_device.c **** #define VTEMP_ADDRESS  (0x09)
 171:Middlewares/Decawave/decadriver/deca_device.c **** #define XTRIM_ADDRESS  (0x1E)
 172:Middlewares/Decawave/decadriver/deca_device.c **** 
 173:Middlewares/Decawave/decadriver/deca_device.c **** int dwt_initialise(int config)
 174:Middlewares/Decawave/decadriver/deca_device.c **** {
 153              		.loc 1 174 1
 154              		.cfi_startproc
 155              		@ args = 0, pretend = 0, frame = 24
 156              		@ frame_needed = 1, uses_anonymous_args = 0
 157 0000 90B5     		push	{r4, r7, lr}
 158              	.LCFI10:
 159              		.cfi_def_cfa_offset 12
 160              		.cfi_offset 4, -12
 161              		.cfi_offset 7, -8
 162              		.cfi_offset 14, -4
 163 0002 87B0     		sub	sp, sp, #28
 164              	.LCFI11:
 165              		.cfi_def_cfa_offset 40
 166 0004 00AF     		add	r7, sp, #0
 167              	.LCFI12:
 168              		.cfi_def_cfa_register 7
 169 0006 7860     		str	r0, [r7, #4]
 175:Middlewares/Decawave/decadriver/deca_device.c ****     uint16 otp_xtaltrim_and_rev = 0;
 170              		.loc 1 175 12
 171 0008 0023     		movs	r3, #0
 172 000a FB82     		strh	r3, [r7, #22]	@ movhi
ARM GAS  /tmp/cc0TY0Fa.s 			page 7


 176:Middlewares/Decawave/decadriver/deca_device.c ****     uint32 ldo_tune = 0;
 173              		.loc 1 176 12
 174 000c 0023     		movs	r3, #0
 175 000e 3B61     		str	r3, [r7, #16]
 177:Middlewares/Decawave/decadriver/deca_device.c **** 
 178:Middlewares/Decawave/decadriver/deca_device.c ****     pdw1000local->dblbuffon = 0; // - set to 0 - meaning double buffer mode is off by default
 176              		.loc 1 178 17
 177 0010 9F4B     		ldr	r3, .L34
 178 0012 1B68     		ldr	r3, [r3]
 179              		.loc 1 178 29
 180 0014 0022     		movs	r2, #0
 181 0016 1A75     		strb	r2, [r3, #20]
 179:Middlewares/Decawave/decadriver/deca_device.c ****     pdw1000local->wait4resp = 0; // - set to 0 - meaning wait for response not active
 182              		.loc 1 179 17
 183 0018 9D4B     		ldr	r3, .L34
 184 001a 1B68     		ldr	r3, [r3]
 185              		.loc 1 179 29
 186 001c 0022     		movs	r2, #0
 187 001e 5A75     		strb	r2, [r3, #21]
 180:Middlewares/Decawave/decadriver/deca_device.c ****     pdw1000local->sleep_mode = 0; // - set to 0 - meaning sleep mode has not been configured
 188              		.loc 1 180 17
 189 0020 9B4B     		ldr	r3, .L34
 190 0022 1B68     		ldr	r3, [r3]
 191              		.loc 1 180 30
 192 0024 0022     		movs	r2, #0
 193 0026 DA82     		strh	r2, [r3, #22]	@ movhi
 181:Middlewares/Decawave/decadriver/deca_device.c **** 
 182:Middlewares/Decawave/decadriver/deca_device.c ****     pdw1000local->cbTxDone = NULL;
 194              		.loc 1 182 17
 195 0028 994B     		ldr	r3, .L34
 196 002a 1B68     		ldr	r3, [r3]
 197              		.loc 1 182 28
 198 002c 0022     		movs	r2, #0
 199 002e 9A62     		str	r2, [r3, #40]
 183:Middlewares/Decawave/decadriver/deca_device.c ****     pdw1000local->cbRxOk = NULL;
 200              		.loc 1 183 17
 201 0030 974B     		ldr	r3, .L34
 202 0032 1B68     		ldr	r3, [r3]
 203              		.loc 1 183 26
 204 0034 0022     		movs	r2, #0
 205 0036 DA62     		str	r2, [r3, #44]
 184:Middlewares/Decawave/decadriver/deca_device.c ****     pdw1000local->cbRxTo = NULL;
 206              		.loc 1 184 17
 207 0038 954B     		ldr	r3, .L34
 208 003a 1B68     		ldr	r3, [r3]
 209              		.loc 1 184 26
 210 003c 0022     		movs	r2, #0
 211 003e 1A63     		str	r2, [r3, #48]
 185:Middlewares/Decawave/decadriver/deca_device.c ****     pdw1000local->cbRxErr = NULL;
 212              		.loc 1 185 17
 213 0040 934B     		ldr	r3, .L34
 214 0042 1B68     		ldr	r3, [r3]
 215              		.loc 1 185 27
 216 0044 0022     		movs	r2, #0
 217 0046 5A63     		str	r2, [r3, #52]
 186:Middlewares/Decawave/decadriver/deca_device.c **** 
 187:Middlewares/Decawave/decadriver/deca_device.c **** #if DWT_API_ERROR_CHECK
ARM GAS  /tmp/cc0TY0Fa.s 			page 8


 188:Middlewares/Decawave/decadriver/deca_device.c ****     pdw1000local->otp_mask = config ; // Save the READ_OTP config mask
 189:Middlewares/Decawave/decadriver/deca_device.c **** #endif
 190:Middlewares/Decawave/decadriver/deca_device.c **** 
 191:Middlewares/Decawave/decadriver/deca_device.c ****     // Read and validate device ID, return -1 if not recognised
 192:Middlewares/Decawave/decadriver/deca_device.c ****     if (DWT_DEVICE_ID != dwt_readdevid()) // MP IC ONLY (i.e. DW1000) FOR THIS CODE
 218              		.loc 1 192 26
 219 0048 FFF7FEFF 		bl	dwt_readdevid
 220 004c 0346     		mov	r3, r0
 221              		.loc 1 192 8
 222 004e 914A     		ldr	r2, .L34+4
 223 0050 9342     		cmp	r3, r2
 224 0052 02D0     		beq	.L11
 193:Middlewares/Decawave/decadriver/deca_device.c ****     {
 194:Middlewares/Decawave/decadriver/deca_device.c ****         return DWT_ERROR ;
 225              		.loc 1 194 16
 226 0054 4FF0FF33 		mov	r3, #-1
 227 0058 15E1     		b	.L12
 228              	.L11:
 195:Middlewares/Decawave/decadriver/deca_device.c ****     }
 196:Middlewares/Decawave/decadriver/deca_device.c **** 
 197:Middlewares/Decawave/decadriver/deca_device.c ****     if(!(DWT_DW_WAKE_UP & config)) // Don't reset the device if DWT_DW_WAKE_UP bit is set, e.g. whe
 229              		.loc 1 197 25
 230 005a 7B68     		ldr	r3, [r7, #4]
 231 005c 03F00203 		and	r3, r3, #2
 232              		.loc 1 197 7
 233 0060 002B     		cmp	r3, #0
 234 0062 01D1     		bne	.L13
 198:Middlewares/Decawave/decadriver/deca_device.c ****     {
 199:Middlewares/Decawave/decadriver/deca_device.c ****         dwt_softreset(); // Make sure the device is completely reset before starting initialisation
 235              		.loc 1 199 9
 236 0064 FFF7FEFF 		bl	dwt_softreset
 237              	.L13:
 200:Middlewares/Decawave/decadriver/deca_device.c ****     }
 201:Middlewares/Decawave/decadriver/deca_device.c **** 
 202:Middlewares/Decawave/decadriver/deca_device.c ****     if(!((DWT_DW_WAKE_UP & config) && ((DWT_READ_OTP_TMP | DWT_READ_OTP_BAT | DWT_READ_OTP_LID | DW
 238              		.loc 1 202 26
 239 0068 7B68     		ldr	r3, [r7, #4]
 240 006a 03F00203 		and	r3, r3, #2
 241              		.loc 1 202 7
 242 006e 002B     		cmp	r3, #0
 243 0070 04D0     		beq	.L14
 244              		.loc 1 202 138 discriminator 1
 245 0072 7B68     		ldr	r3, [r7, #4]
 246 0074 03F0F803 		and	r3, r3, #248
 247              		.loc 1 202 8 discriminator 1
 248 0078 002B     		cmp	r3, #0
 249 007a 02D1     		bne	.L15
 250              	.L14:
 203:Middlewares/Decawave/decadriver/deca_device.c ****     {
 204:Middlewares/Decawave/decadriver/deca_device.c ****         _dwt_enableclocks(FORCE_SYS_XTI); // NOTE: set system clock to XTI - this is necessary to m
 251              		.loc 1 204 9
 252 007c 0020     		movs	r0, #0
 253 007e FFF7FEFF 		bl	_dwt_enableclocks
 254              	.L15:
 205:Middlewares/Decawave/decadriver/deca_device.c ****     }                                  // when not reading from OTP, clocks don't need to change.
 206:Middlewares/Decawave/decadriver/deca_device.c **** 
 207:Middlewares/Decawave/decadriver/deca_device.c ****     // Configure the CPLL lock detect
ARM GAS  /tmp/cc0TY0Fa.s 			page 9


 208:Middlewares/Decawave/decadriver/deca_device.c ****     dwt_write8bitoffsetreg(EXT_SYNC_ID, EC_CTRL_OFFSET, EC_CTRL_PLLLCK);
 255              		.loc 1 208 5
 256 0082 0422     		movs	r2, #4
 257 0084 0021     		movs	r1, #0
 258 0086 2420     		movs	r0, #36
 259 0088 FFF7FEFF 		bl	dwt_write8bitoffsetreg
 209:Middlewares/Decawave/decadriver/deca_device.c **** 
 210:Middlewares/Decawave/decadriver/deca_device.c ****     // When DW1000 IC is initialised from power up, then the LDO value should be kicked from OTP, o
 211:Middlewares/Decawave/decadriver/deca_device.c ****     // DW1000 IC has been woken up (DWT_DW_WAKE_UP bit is set) this can be skipped as LDO would hav
 212:Middlewares/Decawave/decadriver/deca_device.c ****     // kicked/loaded on wake up
 213:Middlewares/Decawave/decadriver/deca_device.c ****     if(!(DWT_DW_WAKE_UP & config))
 260              		.loc 1 213 25
 261 008c 7B68     		ldr	r3, [r7, #4]
 262 008e 03F00203 		and	r3, r3, #2
 263              		.loc 1 213 7
 264 0092 002B     		cmp	r3, #0
 265 0094 16D1     		bne	.L16
 214:Middlewares/Decawave/decadriver/deca_device.c ****     {
 215:Middlewares/Decawave/decadriver/deca_device.c ****         // Load LDO tune from OTP and kick it if there is a value actually programmed.
 216:Middlewares/Decawave/decadriver/deca_device.c ****         ldo_tune = _dwt_otpread(LDOTUNE_ADDRESS);
 266              		.loc 1 216 20
 267 0096 0420     		movs	r0, #4
 268 0098 FFF7FEFF 		bl	_dwt_otpread
 269 009c 3861     		str	r0, [r7, #16]
 217:Middlewares/Decawave/decadriver/deca_device.c ****         if((ldo_tune & 0xFF) != 0)
 270              		.loc 1 217 22
 271 009e 3B69     		ldr	r3, [r7, #16]
 272 00a0 DBB2     		uxtb	r3, r3
 273              		.loc 1 217 11
 274 00a2 002B     		cmp	r3, #0
 275 00a4 1FD0     		beq	.L17
 218:Middlewares/Decawave/decadriver/deca_device.c ****         {
 219:Middlewares/Decawave/decadriver/deca_device.c ****             // Kick LDO tune
 220:Middlewares/Decawave/decadriver/deca_device.c ****             dwt_write8bitoffsetreg(OTP_IF_ID, OTP_SF, OTP_SF_LDO_KICK); // Set load LDO kick bit
 276              		.loc 1 220 13
 277 00a6 0222     		movs	r2, #2
 278 00a8 1221     		movs	r1, #18
 279 00aa 2D20     		movs	r0, #45
 280 00ac FFF7FEFF 		bl	dwt_write8bitoffsetreg
 221:Middlewares/Decawave/decadriver/deca_device.c ****             pdw1000local->sleep_mode |= AON_WCFG_ONW_LLDO; // LDO tune must be kicked at wake-up
 281              		.loc 1 221 38
 282 00b0 774B     		ldr	r3, .L34
 283 00b2 1B68     		ldr	r3, [r3]
 284 00b4 DA8A     		ldrh	r2, [r3, #22]
 285 00b6 764B     		ldr	r3, .L34
 286 00b8 1B68     		ldr	r3, [r3]
 287 00ba 42F48052 		orr	r2, r2, #4096
 288 00be 92B2     		uxth	r2, r2
 289 00c0 DA82     		strh	r2, [r3, #22]	@ movhi
 290 00c2 10E0     		b	.L17
 291              	.L16:
 222:Middlewares/Decawave/decadriver/deca_device.c ****         }
 223:Middlewares/Decawave/decadriver/deca_device.c ****     }
 224:Middlewares/Decawave/decadriver/deca_device.c ****     else
 225:Middlewares/Decawave/decadriver/deca_device.c ****     {   //if LDOTUNE reg contains value different from default it means it was kicked from OTP and 
 226:Middlewares/Decawave/decadriver/deca_device.c ****         if(dwt_read32bitoffsetreg(RF_CONF_ID, LDOTUNE) != LDOTUNE_DEFAULT)
 292              		.loc 1 226 12
ARM GAS  /tmp/cc0TY0Fa.s 			page 10


 293 00c4 3021     		movs	r1, #48
 294 00c6 2820     		movs	r0, #40
 295 00c8 FFF7FEFF 		bl	dwt_read32bitoffsetreg
 296 00cc 0346     		mov	r3, r0
 297              		.loc 1 226 11
 298 00ce B3F1883F 		cmp	r3, #-2004318072
 299 00d2 08D0     		beq	.L17
 227:Middlewares/Decawave/decadriver/deca_device.c ****             pdw1000local->sleep_mode |= AON_WCFG_ONW_LLDO;
 300              		.loc 1 227 38
 301 00d4 6E4B     		ldr	r3, .L34
 302 00d6 1B68     		ldr	r3, [r3]
 303 00d8 DA8A     		ldrh	r2, [r3, #22]
 304 00da 6D4B     		ldr	r3, .L34
 305 00dc 1B68     		ldr	r3, [r3]
 306 00de 42F48052 		orr	r2, r2, #4096
 307 00e2 92B2     		uxth	r2, r2
 308 00e4 DA82     		strh	r2, [r3, #22]	@ movhi
 309              	.L17:
 228:Middlewares/Decawave/decadriver/deca_device.c ****     }
 229:Middlewares/Decawave/decadriver/deca_device.c **** 
 230:Middlewares/Decawave/decadriver/deca_device.c ****     if((!(DWT_DW_WAKE_UP & config)) || ((DWT_DW_WAKE_UP & config) && (DWT_DW_WUP_RD_OTPREV & config
 310              		.loc 1 230 26
 311 00e6 7B68     		ldr	r3, [r7, #4]
 312 00e8 03F00203 		and	r3, r3, #2
 313              		.loc 1 230 7
 314 00ec 002B     		cmp	r3, #0
 315 00ee 09D0     		beq	.L18
 316              		.loc 1 230 57 discriminator 1
 317 00f0 7B68     		ldr	r3, [r7, #4]
 318 00f2 03F00203 		and	r3, r3, #2
 319              		.loc 1 230 37 discriminator 1
 320 00f6 002B     		cmp	r3, #0
 321 00f8 11D0     		beq	.L19
 322              		.loc 1 230 92 discriminator 2
 323 00fa 7B68     		ldr	r3, [r7, #4]
 324 00fc 03F00803 		and	r3, r3, #8
 325              		.loc 1 230 67 discriminator 2
 326 0100 002B     		cmp	r3, #0
 327 0102 0CD0     		beq	.L19
 328              	.L18:
 231:Middlewares/Decawave/decadriver/deca_device.c ****     {
 232:Middlewares/Decawave/decadriver/deca_device.c ****         // Read OTP revision number
 233:Middlewares/Decawave/decadriver/deca_device.c ****         otp_xtaltrim_and_rev = _dwt_otpread(XTRIM_ADDRESS) & 0xffff;        // Read 32 bit value, X
 329              		.loc 1 233 32
 330 0104 1E20     		movs	r0, #30
 331 0106 FFF7FEFF 		bl	_dwt_otpread
 332 010a 0346     		mov	r3, r0
 333              		.loc 1 233 30
 334 010c FB82     		strh	r3, [r7, #22]	@ movhi
 234:Middlewares/Decawave/decadriver/deca_device.c ****         pdw1000local->otprev = (otp_xtaltrim_and_rev >> 8) & 0xff;          // OTP revision is the 
 335              		.loc 1 234 30
 336 010e FB8A     		ldrh	r3, [r7, #22]
 337 0110 1B0A     		lsrs	r3, r3, #8
 338 0112 9AB2     		uxth	r2, r3
 339              		.loc 1 234 21
 340 0114 5E4B     		ldr	r3, .L34
 341 0116 1B68     		ldr	r3, [r3]
ARM GAS  /tmp/cc0TY0Fa.s 			page 11


 342              		.loc 1 234 30
 343 0118 D2B2     		uxtb	r2, r2
 344 011a DA72     		strb	r2, [r3, #11]
 345 011c 03E0     		b	.L20
 346              	.L19:
 235:Middlewares/Decawave/decadriver/deca_device.c ****     }
 236:Middlewares/Decawave/decadriver/deca_device.c ****     else
 237:Middlewares/Decawave/decadriver/deca_device.c ****         pdw1000local->otprev = 0; // If OTP valuse are not used, if this API is called after DW1000
 347              		.loc 1 237 21
 348 011e 5C4B     		ldr	r3, .L34
 349 0120 1B68     		ldr	r3, [r3]
 350              		.loc 1 237 30
 351 0122 0022     		movs	r2, #0
 352 0124 DA72     		strb	r2, [r3, #11]
 353              	.L20:
 238:Middlewares/Decawave/decadriver/deca_device.c ****                                   // (DWT_DW_WAKE_UP bit is set), set otprev to 0
 239:Middlewares/Decawave/decadriver/deca_device.c **** 
 240:Middlewares/Decawave/decadriver/deca_device.c ****     if(!(DWT_DW_WAKE_UP & config))
 354              		.loc 1 240 25
 355 0126 7B68     		ldr	r3, [r7, #4]
 356 0128 03F00203 		and	r3, r3, #2
 357              		.loc 1 240 7
 358 012c 002B     		cmp	r3, #0
 359 012e 0BD1     		bne	.L21
 241:Middlewares/Decawave/decadriver/deca_device.c ****     {
 242:Middlewares/Decawave/decadriver/deca_device.c ****         // XTAL trim value is set in OTP for DW1000 module and EVK/TREK boards but that might not b
 243:Middlewares/Decawave/decadriver/deca_device.c ****         if ((otp_xtaltrim_and_rev & 0x1F) == 0) // A value of 0 means that the crystal has not been
 360              		.loc 1 243 35
 361 0130 FB8A     		ldrh	r3, [r7, #22]
 362 0132 03F01F03 		and	r3, r3, #31
 363              		.loc 1 243 12
 364 0136 002B     		cmp	r3, #0
 365 0138 01D1     		bne	.L22
 244:Middlewares/Decawave/decadriver/deca_device.c ****         {
 245:Middlewares/Decawave/decadriver/deca_device.c ****             otp_xtaltrim_and_rev = FS_XTALT_MIDRANGE ; // Set to mid-range if no calibration value 
 366              		.loc 1 245 34
 367 013a 1023     		movs	r3, #16
 368 013c FB82     		strh	r3, [r7, #22]	@ movhi
 369              	.L22:
 246:Middlewares/Decawave/decadriver/deca_device.c ****         }
 247:Middlewares/Decawave/decadriver/deca_device.c ****         // Configure XTAL trim
 248:Middlewares/Decawave/decadriver/deca_device.c ****         dwt_setxtaltrim((uint8)otp_xtaltrim_and_rev);
 370              		.loc 1 248 9
 371 013e FB8A     		ldrh	r3, [r7, #22]	@ movhi
 372 0140 DBB2     		uxtb	r3, r3
 373 0142 1846     		mov	r0, r3
 374 0144 FFF7FEFF 		bl	dwt_setxtaltrim
 375              	.L21:
 249:Middlewares/Decawave/decadriver/deca_device.c ****     }
 250:Middlewares/Decawave/decadriver/deca_device.c **** 
 251:Middlewares/Decawave/decadriver/deca_device.c ****     if(DWT_READ_OTP_PID & config)
 376              		.loc 1 251 25
 377 0148 7B68     		ldr	r3, [r7, #4]
 378 014a 03F01003 		and	r3, r3, #16
 379              		.loc 1 251 7
 380 014e 002B     		cmp	r3, #0
 381 0150 07D0     		beq	.L23
ARM GAS  /tmp/cc0TY0Fa.s 			page 12


 252:Middlewares/Decawave/decadriver/deca_device.c ****     {
 253:Middlewares/Decawave/decadriver/deca_device.c ****         // Load Part from OTP
 254:Middlewares/Decawave/decadriver/deca_device.c ****         pdw1000local->partID = _dwt_otpread(PARTID_ADDRESS);
 382              		.loc 1 254 21
 383 0152 4F4B     		ldr	r3, .L34
 384 0154 1C68     		ldr	r4, [r3]
 385              		.loc 1 254 32
 386 0156 0620     		movs	r0, #6
 387 0158 FFF7FEFF 		bl	_dwt_otpread
 388 015c 0346     		mov	r3, r0
 389              		.loc 1 254 30
 390 015e 2360     		str	r3, [r4]
 391 0160 03E0     		b	.L24
 392              	.L23:
 255:Middlewares/Decawave/decadriver/deca_device.c ****     }
 256:Middlewares/Decawave/decadriver/deca_device.c ****     else
 257:Middlewares/Decawave/decadriver/deca_device.c ****     {
 258:Middlewares/Decawave/decadriver/deca_device.c ****         pdw1000local->partID = 0;
 393              		.loc 1 258 21
 394 0162 4B4B     		ldr	r3, .L34
 395 0164 1B68     		ldr	r3, [r3]
 396              		.loc 1 258 30
 397 0166 0022     		movs	r2, #0
 398 0168 1A60     		str	r2, [r3]
 399              	.L24:
 259:Middlewares/Decawave/decadriver/deca_device.c ****     }
 260:Middlewares/Decawave/decadriver/deca_device.c **** 
 261:Middlewares/Decawave/decadriver/deca_device.c ****     if(DWT_READ_OTP_LID & config)
 400              		.loc 1 261 25
 401 016a 7B68     		ldr	r3, [r7, #4]
 402 016c 03F02003 		and	r3, r3, #32
 403              		.loc 1 261 7
 404 0170 002B     		cmp	r3, #0
 405 0172 07D0     		beq	.L25
 262:Middlewares/Decawave/decadriver/deca_device.c ****     {
 263:Middlewares/Decawave/decadriver/deca_device.c ****         // Load Lot ID from OTP
 264:Middlewares/Decawave/decadriver/deca_device.c ****         pdw1000local->lotID = _dwt_otpread(LOTID_ADDRESS);
 406              		.loc 1 264 21
 407 0174 464B     		ldr	r3, .L34
 408 0176 1C68     		ldr	r4, [r3]
 409              		.loc 1 264 31
 410 0178 0720     		movs	r0, #7
 411 017a FFF7FEFF 		bl	_dwt_otpread
 412 017e 0346     		mov	r3, r0
 413              		.loc 1 264 29
 414 0180 6360     		str	r3, [r4, #4]
 415 0182 03E0     		b	.L26
 416              	.L25:
 265:Middlewares/Decawave/decadriver/deca_device.c ****     }
 266:Middlewares/Decawave/decadriver/deca_device.c ****     else
 267:Middlewares/Decawave/decadriver/deca_device.c ****     {
 268:Middlewares/Decawave/decadriver/deca_device.c ****         pdw1000local->lotID = 0;
 417              		.loc 1 268 21
 418 0184 424B     		ldr	r3, .L34
 419 0186 1B68     		ldr	r3, [r3]
 420              		.loc 1 268 29
 421 0188 0022     		movs	r2, #0
ARM GAS  /tmp/cc0TY0Fa.s 			page 13


 422 018a 5A60     		str	r2, [r3, #4]
 423              	.L26:
 269:Middlewares/Decawave/decadriver/deca_device.c ****     }
 270:Middlewares/Decawave/decadriver/deca_device.c **** 
 271:Middlewares/Decawave/decadriver/deca_device.c ****     if(DWT_READ_OTP_BAT & config)
 424              		.loc 1 271 25
 425 018c 7B68     		ldr	r3, [r7, #4]
 426 018e 03F04003 		and	r3, r3, #64
 427              		.loc 1 271 7
 428 0192 002B     		cmp	r3, #0
 429 0194 08D0     		beq	.L27
 272:Middlewares/Decawave/decadriver/deca_device.c ****     {
 273:Middlewares/Decawave/decadriver/deca_device.c ****         // Load VBAT from OTP
 274:Middlewares/Decawave/decadriver/deca_device.c ****         pdw1000local->vBatP = _dwt_otpread(VBAT_ADDRESS) & 0xff;
 430              		.loc 1 274 31
 431 0196 0820     		movs	r0, #8
 432 0198 FFF7FEFF 		bl	_dwt_otpread
 433 019c 0246     		mov	r2, r0
 434              		.loc 1 274 21
 435 019e 3C4B     		ldr	r3, .L34
 436 01a0 1B68     		ldr	r3, [r3]
 437              		.loc 1 274 29
 438 01a2 D2B2     		uxtb	r2, r2
 439 01a4 1A72     		strb	r2, [r3, #8]
 440 01a6 03E0     		b	.L28
 441              	.L27:
 275:Middlewares/Decawave/decadriver/deca_device.c ****     }
 276:Middlewares/Decawave/decadriver/deca_device.c ****     else
 277:Middlewares/Decawave/decadriver/deca_device.c ****     {
 278:Middlewares/Decawave/decadriver/deca_device.c ****         pdw1000local->vBatP = 0;
 442              		.loc 1 278 21
 443 01a8 394B     		ldr	r3, .L34
 444 01aa 1B68     		ldr	r3, [r3]
 445              		.loc 1 278 29
 446 01ac 0022     		movs	r2, #0
 447 01ae 1A72     		strb	r2, [r3, #8]
 448              	.L28:
 279:Middlewares/Decawave/decadriver/deca_device.c ****     }
 280:Middlewares/Decawave/decadriver/deca_device.c **** 
 281:Middlewares/Decawave/decadriver/deca_device.c ****     if(DWT_READ_OTP_TMP & config)
 449              		.loc 1 281 25
 450 01b0 7B68     		ldr	r3, [r7, #4]
 451 01b2 03F08003 		and	r3, r3, #128
 452              		.loc 1 281 7
 453 01b6 002B     		cmp	r3, #0
 454 01b8 08D0     		beq	.L29
 282:Middlewares/Decawave/decadriver/deca_device.c ****     {
 283:Middlewares/Decawave/decadriver/deca_device.c ****         // Load TEMP from OTP
 284:Middlewares/Decawave/decadriver/deca_device.c ****         pdw1000local->tempP = _dwt_otpread(VTEMP_ADDRESS) & 0xff;
 455              		.loc 1 284 31
 456 01ba 0920     		movs	r0, #9
 457 01bc FFF7FEFF 		bl	_dwt_otpread
 458 01c0 0246     		mov	r2, r0
 459              		.loc 1 284 21
 460 01c2 334B     		ldr	r3, .L34
 461 01c4 1B68     		ldr	r3, [r3]
 462              		.loc 1 284 29
ARM GAS  /tmp/cc0TY0Fa.s 			page 14


 463 01c6 D2B2     		uxtb	r2, r2
 464 01c8 5A72     		strb	r2, [r3, #9]
 465 01ca 03E0     		b	.L30
 466              	.L29:
 285:Middlewares/Decawave/decadriver/deca_device.c ****     }
 286:Middlewares/Decawave/decadriver/deca_device.c ****     else
 287:Middlewares/Decawave/decadriver/deca_device.c ****     {
 288:Middlewares/Decawave/decadriver/deca_device.c ****         pdw1000local->tempP = 0;
 467              		.loc 1 288 21
 468 01cc 304B     		ldr	r3, .L34
 469 01ce 1B68     		ldr	r3, [r3]
 470              		.loc 1 288 29
 471 01d0 0022     		movs	r2, #0
 472 01d2 5A72     		strb	r2, [r3, #9]
 473              	.L30:
 289:Middlewares/Decawave/decadriver/deca_device.c ****     }
 290:Middlewares/Decawave/decadriver/deca_device.c **** 
 291:Middlewares/Decawave/decadriver/deca_device.c ****     // Load leading edge detect code (LDE/microcode)
 292:Middlewares/Decawave/decadriver/deca_device.c ****     if(!(DWT_DW_WAKE_UP & config))
 474              		.loc 1 292 25
 475 01d4 7B68     		ldr	r3, [r7, #4]
 476 01d6 03F00203 		and	r3, r3, #2
 477              		.loc 1 292 7
 478 01da 002B     		cmp	r3, #0
 479 01dc 21D1     		bne	.L31
 293:Middlewares/Decawave/decadriver/deca_device.c ****     {
 294:Middlewares/Decawave/decadriver/deca_device.c ****         if(DWT_LOADUCODE & config)
 480              		.loc 1 294 26
 481 01de 7B68     		ldr	r3, [r7, #4]
 482 01e0 03F00103 		and	r3, r3, #1
 483              		.loc 1 294 11
 484 01e4 002B     		cmp	r3, #0
 485 01e6 0BD0     		beq	.L32
 295:Middlewares/Decawave/decadriver/deca_device.c ****         {
 296:Middlewares/Decawave/decadriver/deca_device.c ****             _dwt_loaducodefromrom();
 486              		.loc 1 296 13
 487 01e8 FFF7FEFF 		bl	_dwt_loaducodefromrom
 297:Middlewares/Decawave/decadriver/deca_device.c ****             pdw1000local->sleep_mode |= AON_WCFG_ONW_LLDE; // microcode must be loaded at wake-up i
 488              		.loc 1 297 38
 489 01ec 284B     		ldr	r3, .L34
 490 01ee 1B68     		ldr	r3, [r3]
 491 01f0 DA8A     		ldrh	r2, [r3, #22]
 492 01f2 274B     		ldr	r3, .L34
 493 01f4 1B68     		ldr	r3, [r3]
 494 01f6 42F40062 		orr	r2, r2, #2048
 495 01fa 92B2     		uxth	r2, r2
 496 01fc DA82     		strh	r2, [r3, #22]	@ movhi
 497 01fe 1EE0     		b	.L33
 498              	.L32:
 499              	.LBB2:
 298:Middlewares/Decawave/decadriver/deca_device.c ****         }
 299:Middlewares/Decawave/decadriver/deca_device.c ****         else // Should disable the LDERUN bit enable if LDE has not been loaded
 300:Middlewares/Decawave/decadriver/deca_device.c ****         {
 301:Middlewares/Decawave/decadriver/deca_device.c ****             uint16 rega = dwt_read16bitoffsetreg(PMSC_ID, PMSC_CTRL1_OFFSET+1) ;
 500              		.loc 1 301 27
 501 0200 0521     		movs	r1, #5
 502 0202 3620     		movs	r0, #54
ARM GAS  /tmp/cc0TY0Fa.s 			page 15


 503 0204 FFF7FEFF 		bl	dwt_read16bitoffsetreg
 504 0208 0346     		mov	r3, r0
 505 020a FB81     		strh	r3, [r7, #14]	@ movhi
 302:Middlewares/Decawave/decadriver/deca_device.c ****             rega &= 0xFDFF ; // Clear LDERUN bit
 506              		.loc 1 302 18
 507 020c FB89     		ldrh	r3, [r7, #14]	@ movhi
 508 020e 23F40073 		bic	r3, r3, #512
 509 0212 FB81     		strh	r3, [r7, #14]	@ movhi
 303:Middlewares/Decawave/decadriver/deca_device.c ****             dwt_write16bitoffsetreg(PMSC_ID, PMSC_CTRL1_OFFSET+1, rega) ;
 510              		.loc 1 303 13
 511 0214 FB89     		ldrh	r3, [r7, #14]
 512 0216 1A46     		mov	r2, r3
 513 0218 0521     		movs	r1, #5
 514 021a 3620     		movs	r0, #54
 515 021c FFF7FEFF 		bl	dwt_write16bitoffsetreg
 516 0220 0DE0     		b	.L33
 517              	.L31:
 518              	.LBE2:
 304:Middlewares/Decawave/decadriver/deca_device.c ****         }
 305:Middlewares/Decawave/decadriver/deca_device.c ****     }
 306:Middlewares/Decawave/decadriver/deca_device.c ****     else //if DWT_DW_WUP_NO_UCODE is set then assume that the UCODE was loaded from ROM (i.e. DWT_L
 307:Middlewares/Decawave/decadriver/deca_device.c ****     {     //thus set AON_WCFG_ONW_LLDE, otherwise don't set the AON_WCFG_ONW_LLDE bit in the sleep_
 308:Middlewares/Decawave/decadriver/deca_device.c ****         if((DWT_DW_WUP_NO_UCODE & config) == 0)
 519              		.loc 1 308 33
 520 0222 7B68     		ldr	r3, [r7, #4]
 521 0224 03F00403 		and	r3, r3, #4
 522              		.loc 1 308 11
 523 0228 002B     		cmp	r3, #0
 524 022a 08D1     		bne	.L33
 309:Middlewares/Decawave/decadriver/deca_device.c ****         {
 310:Middlewares/Decawave/decadriver/deca_device.c ****             pdw1000local->sleep_mode |= AON_WCFG_ONW_LLDE;
 525              		.loc 1 310 38
 526 022c 184B     		ldr	r3, .L34
 527 022e 1B68     		ldr	r3, [r3]
 528 0230 DA8A     		ldrh	r2, [r3, #22]
 529 0232 174B     		ldr	r3, .L34
 530 0234 1B68     		ldr	r3, [r3]
 531 0236 42F40062 		orr	r2, r2, #2048
 532 023a 92B2     		uxth	r2, r2
 533 023c DA82     		strh	r2, [r3, #22]	@ movhi
 534              	.L33:
 311:Middlewares/Decawave/decadriver/deca_device.c ****         }
 312:Middlewares/Decawave/decadriver/deca_device.c ****     }
 313:Middlewares/Decawave/decadriver/deca_device.c **** 
 314:Middlewares/Decawave/decadriver/deca_device.c ****     _dwt_enableclocks(ENABLE_ALL_SEQ); // Enable clocks for sequencing
 535              		.loc 1 314 5
 536 023e 0120     		movs	r0, #1
 537 0240 FFF7FEFF 		bl	_dwt_enableclocks
 315:Middlewares/Decawave/decadriver/deca_device.c **** 
 316:Middlewares/Decawave/decadriver/deca_device.c ****     // The 3 bits in AON CFG1 register must be cleared to ensure proper operation of the DW1000 in 
 317:Middlewares/Decawave/decadriver/deca_device.c ****     dwt_write8bitoffsetreg(AON_ID, AON_CFG1_OFFSET, 0x00);
 538              		.loc 1 317 5
 539 0244 0022     		movs	r2, #0
 540 0246 0A21     		movs	r1, #10
 541 0248 2C20     		movs	r0, #44
 542 024a FFF7FEFF 		bl	dwt_write8bitoffsetreg
 318:Middlewares/Decawave/decadriver/deca_device.c **** 
ARM GAS  /tmp/cc0TY0Fa.s 			page 16


 319:Middlewares/Decawave/decadriver/deca_device.c ****     // Read system register / store local copy
 320:Middlewares/Decawave/decadriver/deca_device.c ****     pdw1000local->sysCFGreg = dwt_read32bitreg(SYS_CFG_ID) ; // Read sysconfig register
 543              		.loc 1 320 17
 544 024e 104B     		ldr	r3, .L34
 545 0250 1C68     		ldr	r4, [r3]
 546              		.loc 1 320 31
 547 0252 0021     		movs	r1, #0
 548 0254 0420     		movs	r0, #4
 549 0256 FFF7FEFF 		bl	dwt_read32bitoffsetreg
 550 025a 0346     		mov	r3, r0
 551              		.loc 1 320 29
 552 025c 2361     		str	r3, [r4, #16]
 321:Middlewares/Decawave/decadriver/deca_device.c ****     pdw1000local->longFrames = (pdw1000local->sysCFGreg & SYS_CFG_PHR_MODE_11) >> SYS_CFG_PHR_MODE_
 553              		.loc 1 321 45
 554 025e 0C4B     		ldr	r3, .L34
 555 0260 1B68     		ldr	r3, [r3]
 556 0262 1B69     		ldr	r3, [r3, #16]
 557              		.loc 1 321 80
 558 0264 1B0C     		lsrs	r3, r3, #16
 559 0266 DAB2     		uxtb	r2, r3
 560              		.loc 1 321 17
 561 0268 094B     		ldr	r3, .L34
 562 026a 1B68     		ldr	r3, [r3]
 563              		.loc 1 321 80
 564 026c 02F00302 		and	r2, r2, #3
 565 0270 D2B2     		uxtb	r2, r2
 566              		.loc 1 321 30
 567 0272 9A72     		strb	r2, [r3, #10]
 322:Middlewares/Decawave/decadriver/deca_device.c **** 
 323:Middlewares/Decawave/decadriver/deca_device.c ****     pdw1000local->txFCTRL = dwt_read32bitreg(TX_FCTRL_ID) ;
 568              		.loc 1 323 17
 569 0274 064B     		ldr	r3, .L34
 570 0276 1C68     		ldr	r4, [r3]
 571              		.loc 1 323 29
 572 0278 0021     		movs	r1, #0
 573 027a 0820     		movs	r0, #8
 574 027c FFF7FEFF 		bl	dwt_read32bitoffsetreg
 575 0280 0346     		mov	r3, r0
 576              		.loc 1 323 27
 577 0282 E360     		str	r3, [r4, #12]
 324:Middlewares/Decawave/decadriver/deca_device.c **** 
 325:Middlewares/Decawave/decadriver/deca_device.c ****     return DWT_SUCCESS ;
 578              		.loc 1 325 12
 579 0284 0023     		movs	r3, #0
 580              	.L12:
 326:Middlewares/Decawave/decadriver/deca_device.c **** 
 327:Middlewares/Decawave/decadriver/deca_device.c **** } // end dwt_initialise()
 581              		.loc 1 327 1
 582 0286 1846     		mov	r0, r3
 583 0288 1C37     		adds	r7, r7, #28
 584              	.LCFI13:
 585              		.cfi_def_cfa_offset 12
 586 028a BD46     		mov	sp, r7
 587              	.LCFI14:
 588              		.cfi_def_cfa_register 13
 589              		@ sp needed
 590 028c 90BD     		pop	{r4, r7, pc}
ARM GAS  /tmp/cc0TY0Fa.s 			page 17


 591              	.L35:
 592 028e 00BF     		.align	2
 593              	.L34:
 594 0290 00000000 		.word	pdw1000local
 595 0294 3001CADE 		.word	-557186768
 596              		.cfi_endproc
 597              	.LFE2:
 599              		.section	.text.dwt_otprevision,"ax",%progbits
 600              		.align	1
 601              		.global	dwt_otprevision
 602              		.syntax unified
 603              		.thumb
 604              		.thumb_func
 605              		.fpu fpv4-sp-d16
 607              	dwt_otprevision:
 608              	.LFB3:
 328:Middlewares/Decawave/decadriver/deca_device.c **** 
 329:Middlewares/Decawave/decadriver/deca_device.c **** /*! -----------------------------------------------------------------------------------------------
 330:Middlewares/Decawave/decadriver/deca_device.c ****  * @fn dwt_otprevision()
 331:Middlewares/Decawave/decadriver/deca_device.c ****  *
 332:Middlewares/Decawave/decadriver/deca_device.c ****  * @brief This is used to return the read OTP revision
 333:Middlewares/Decawave/decadriver/deca_device.c ****  *
 334:Middlewares/Decawave/decadriver/deca_device.c ****  * NOTE: dwt_initialise() must be called prior to this function so that it can return a relevant va
 335:Middlewares/Decawave/decadriver/deca_device.c ****  *
 336:Middlewares/Decawave/decadriver/deca_device.c ****  * input parameters
 337:Middlewares/Decawave/decadriver/deca_device.c ****  *
 338:Middlewares/Decawave/decadriver/deca_device.c ****  * output parameters
 339:Middlewares/Decawave/decadriver/deca_device.c ****  *
 340:Middlewares/Decawave/decadriver/deca_device.c ****  * returns the read OTP revision value
 341:Middlewares/Decawave/decadriver/deca_device.c ****  */
 342:Middlewares/Decawave/decadriver/deca_device.c **** uint8 dwt_otprevision(void)
 343:Middlewares/Decawave/decadriver/deca_device.c **** {
 609              		.loc 1 343 1
 610              		.cfi_startproc
 611              		@ args = 0, pretend = 0, frame = 0
 612              		@ frame_needed = 1, uses_anonymous_args = 0
 613              		@ link register save eliminated.
 614 0000 80B4     		push	{r7}
 615              	.LCFI15:
 616              		.cfi_def_cfa_offset 4
 617              		.cfi_offset 7, -4
 618 0002 00AF     		add	r7, sp, #0
 619              	.LCFI16:
 620              		.cfi_def_cfa_register 7
 344:Middlewares/Decawave/decadriver/deca_device.c ****     return pdw1000local->otprev ;
 621              		.loc 1 344 24
 622 0004 034B     		ldr	r3, .L38
 623 0006 1B68     		ldr	r3, [r3]
 624 0008 DB7A     		ldrb	r3, [r3, #11]	@ zero_extendqisi2
 345:Middlewares/Decawave/decadriver/deca_device.c **** }
 625              		.loc 1 345 1
 626 000a 1846     		mov	r0, r3
 627 000c BD46     		mov	sp, r7
 628              	.LCFI17:
 629              		.cfi_def_cfa_register 13
 630              		@ sp needed
 631 000e 5DF8047B 		ldr	r7, [sp], #4
ARM GAS  /tmp/cc0TY0Fa.s 			page 18


 632              	.LCFI18:
 633              		.cfi_restore 7
 634              		.cfi_def_cfa_offset 0
 635 0012 7047     		bx	lr
 636              	.L39:
 637              		.align	2
 638              	.L38:
 639 0014 00000000 		.word	pdw1000local
 640              		.cfi_endproc
 641              	.LFE3:
 643              		.section	.text.dwt_setfinegraintxseq,"ax",%progbits
 644              		.align	1
 645              		.global	dwt_setfinegraintxseq
 646              		.syntax unified
 647              		.thumb
 648              		.thumb_func
 649              		.fpu fpv4-sp-d16
 651              	dwt_setfinegraintxseq:
 652              	.LFB4:
 346:Middlewares/Decawave/decadriver/deca_device.c **** 
 347:Middlewares/Decawave/decadriver/deca_device.c **** /*! -----------------------------------------------------------------------------------------------
 348:Middlewares/Decawave/decadriver/deca_device.c ****  * @fn dwt_setfinegraintxseq()
 349:Middlewares/Decawave/decadriver/deca_device.c ****  *
 350:Middlewares/Decawave/decadriver/deca_device.c ****  * @brief This function enables/disables the fine grain TX sequencing (enabled by default).
 351:Middlewares/Decawave/decadriver/deca_device.c ****  *
 352:Middlewares/Decawave/decadriver/deca_device.c ****  * input parameters
 353:Middlewares/Decawave/decadriver/deca_device.c ****  * @param enable - 1 to enable fine grain TX sequencing, 0 to disable it.
 354:Middlewares/Decawave/decadriver/deca_device.c ****  *
 355:Middlewares/Decawave/decadriver/deca_device.c ****  * output parameters none
 356:Middlewares/Decawave/decadriver/deca_device.c ****  *
 357:Middlewares/Decawave/decadriver/deca_device.c ****  * no return value
 358:Middlewares/Decawave/decadriver/deca_device.c ****  */
 359:Middlewares/Decawave/decadriver/deca_device.c **** void dwt_setfinegraintxseq(int enable)
 360:Middlewares/Decawave/decadriver/deca_device.c **** {
 653              		.loc 1 360 1
 654              		.cfi_startproc
 655              		@ args = 0, pretend = 0, frame = 8
 656              		@ frame_needed = 1, uses_anonymous_args = 0
 657 0000 80B5     		push	{r7, lr}
 658              	.LCFI19:
 659              		.cfi_def_cfa_offset 8
 660              		.cfi_offset 7, -8
 661              		.cfi_offset 14, -4
 662 0002 82B0     		sub	sp, sp, #8
 663              	.LCFI20:
 664              		.cfi_def_cfa_offset 16
 665 0004 00AF     		add	r7, sp, #0
 666              	.LCFI21:
 667              		.cfi_def_cfa_register 7
 668 0006 7860     		str	r0, [r7, #4]
 361:Middlewares/Decawave/decadriver/deca_device.c ****     if (enable)
 669              		.loc 1 361 8
 670 0008 7B68     		ldr	r3, [r7, #4]
 671 000a 002B     		cmp	r3, #0
 672 000c 06D0     		beq	.L41
 362:Middlewares/Decawave/decadriver/deca_device.c ****     {
 363:Middlewares/Decawave/decadriver/deca_device.c ****         dwt_write16bitoffsetreg(PMSC_ID, PMSC_TXFINESEQ_OFFSET, PMSC_TXFINESEQ_ENABLE);
ARM GAS  /tmp/cc0TY0Fa.s 			page 19


 673              		.loc 1 363 9
 674 000e 40F67432 		movw	r2, #2932
 675 0012 2621     		movs	r1, #38
 676 0014 3620     		movs	r0, #54
 677 0016 FFF7FEFF 		bl	dwt_write16bitoffsetreg
 364:Middlewares/Decawave/decadriver/deca_device.c ****     }
 365:Middlewares/Decawave/decadriver/deca_device.c ****     else
 366:Middlewares/Decawave/decadriver/deca_device.c ****     {
 367:Middlewares/Decawave/decadriver/deca_device.c ****         dwt_write16bitoffsetreg(PMSC_ID, PMSC_TXFINESEQ_OFFSET, PMSC_TXFINESEQ_DISABLE);
 368:Middlewares/Decawave/decadriver/deca_device.c ****     }
 369:Middlewares/Decawave/decadriver/deca_device.c **** }
 678              		.loc 1 369 1
 679 001a 04E0     		b	.L43
 680              	.L41:
 367:Middlewares/Decawave/decadriver/deca_device.c ****     }
 681              		.loc 1 367 9
 682 001c 0022     		movs	r2, #0
 683 001e 2621     		movs	r1, #38
 684 0020 3620     		movs	r0, #54
 685 0022 FFF7FEFF 		bl	dwt_write16bitoffsetreg
 686              	.L43:
 687              		.loc 1 369 1
 688 0026 00BF     		nop
 689 0028 0837     		adds	r7, r7, #8
 690              	.LCFI22:
 691              		.cfi_def_cfa_offset 8
 692 002a BD46     		mov	sp, r7
 693              	.LCFI23:
 694              		.cfi_def_cfa_register 13
 695              		@ sp needed
 696 002c 80BD     		pop	{r7, pc}
 697              		.cfi_endproc
 698              	.LFE4:
 700              		.section	.text.dwt_setlnapamode,"ax",%progbits
 701              		.align	1
 702              		.global	dwt_setlnapamode
 703              		.syntax unified
 704              		.thumb
 705              		.thumb_func
 706              		.fpu fpv4-sp-d16
 708              	dwt_setlnapamode:
 709              	.LFB5:
 370:Middlewares/Decawave/decadriver/deca_device.c **** 
 371:Middlewares/Decawave/decadriver/deca_device.c **** /*! -----------------------------------------------------------------------------------------------
 372:Middlewares/Decawave/decadriver/deca_device.c ****  * @fn dwt_setlnapamode()
 373:Middlewares/Decawave/decadriver/deca_device.c ****  *
 374:Middlewares/Decawave/decadriver/deca_device.c ****  * @brief This is used to enable GPIO for external LNA or PA functionality - HW dependent, consult 
 375:Middlewares/Decawave/decadriver/deca_device.c ****  *        This can also be used for debug as enabling TX and RX GPIOs is quite handy to monitor DW1
 376:Middlewares/Decawave/decadriver/deca_device.c ****  *
 377:Middlewares/Decawave/decadriver/deca_device.c ****  * NOTE: Enabling PA functionality requires that fine grain TX sequencing is deactivated. This can 
 378:Middlewares/Decawave/decadriver/deca_device.c ****  *       dwt_setfinegraintxseq().
 379:Middlewares/Decawave/decadriver/deca_device.c ****  *
 380:Middlewares/Decawave/decadriver/deca_device.c ****  * input parameters
 381:Middlewares/Decawave/decadriver/deca_device.c ****  * @param lna_pa - bit field: bit 0 if set will enable LNA functionality,
 382:Middlewares/Decawave/decadriver/deca_device.c ****  *                          : bit 1 if set will enable PA functionality,
 383:Middlewares/Decawave/decadriver/deca_device.c ****  *                          : to disable LNA/PA set the bits to 0
 384:Middlewares/Decawave/decadriver/deca_device.c ****  *
ARM GAS  /tmp/cc0TY0Fa.s 			page 20


 385:Middlewares/Decawave/decadriver/deca_device.c ****  * no return value
 386:Middlewares/Decawave/decadriver/deca_device.c ****  */
 387:Middlewares/Decawave/decadriver/deca_device.c **** void dwt_setlnapamode(int lna_pa)
 388:Middlewares/Decawave/decadriver/deca_device.c **** {
 710              		.loc 1 388 1
 711              		.cfi_startproc
 712              		@ args = 0, pretend = 0, frame = 16
 713              		@ frame_needed = 1, uses_anonymous_args = 0
 714 0000 80B5     		push	{r7, lr}
 715              	.LCFI24:
 716              		.cfi_def_cfa_offset 8
 717              		.cfi_offset 7, -8
 718              		.cfi_offset 14, -4
 719 0002 84B0     		sub	sp, sp, #16
 720              	.LCFI25:
 721              		.cfi_def_cfa_offset 24
 722 0004 00AF     		add	r7, sp, #0
 723              	.LCFI26:
 724              		.cfi_def_cfa_register 7
 725 0006 7860     		str	r0, [r7, #4]
 389:Middlewares/Decawave/decadriver/deca_device.c ****     uint32 gpio_mode = dwt_read32bitoffsetreg(GPIO_CTRL_ID, GPIO_MODE_OFFSET);
 726              		.loc 1 389 24
 727 0008 0021     		movs	r1, #0
 728 000a 2620     		movs	r0, #38
 729 000c FFF7FEFF 		bl	dwt_read32bitoffsetreg
 730 0010 F860     		str	r0, [r7, #12]
 390:Middlewares/Decawave/decadriver/deca_device.c ****     gpio_mode &= ~(GPIO_MSGP4_MASK | GPIO_MSGP5_MASK | GPIO_MSGP6_MASK);
 731              		.loc 1 390 15
 732 0012 FB68     		ldr	r3, [r7, #12]
 733 0014 23F47C23 		bic	r3, r3, #1032192
 734 0018 FB60     		str	r3, [r7, #12]
 391:Middlewares/Decawave/decadriver/deca_device.c ****     if (lna_pa & DWT_LNA_ENABLE)
 735              		.loc 1 391 16
 736 001a 7B68     		ldr	r3, [r7, #4]
 737 001c 03F00103 		and	r3, r3, #1
 738              		.loc 1 391 8
 739 0020 002B     		cmp	r3, #0
 740 0022 03D0     		beq	.L45
 392:Middlewares/Decawave/decadriver/deca_device.c ****     {
 393:Middlewares/Decawave/decadriver/deca_device.c ****         gpio_mode |= GPIO_PIN6_EXTRXE;
 741              		.loc 1 393 19
 742 0024 FB68     		ldr	r3, [r7, #12]
 743 0026 43F48023 		orr	r3, r3, #262144
 744 002a FB60     		str	r3, [r7, #12]
 745              	.L45:
 394:Middlewares/Decawave/decadriver/deca_device.c ****     }
 395:Middlewares/Decawave/decadriver/deca_device.c ****     if (lna_pa & DWT_PA_ENABLE)
 746              		.loc 1 395 16
 747 002c 7B68     		ldr	r3, [r7, #4]
 748 002e 03F00203 		and	r3, r3, #2
 749              		.loc 1 395 8
 750 0032 002B     		cmp	r3, #0
 751 0034 03D0     		beq	.L46
 396:Middlewares/Decawave/decadriver/deca_device.c ****     {
 397:Middlewares/Decawave/decadriver/deca_device.c ****         gpio_mode |= (GPIO_PIN5_EXTTXE | GPIO_PIN4_EXTPA);
 752              		.loc 1 397 19
 753 0036 FB68     		ldr	r3, [r7, #12]
ARM GAS  /tmp/cc0TY0Fa.s 			page 21


 754 0038 43F4A033 		orr	r3, r3, #81920
 755 003c FB60     		str	r3, [r7, #12]
 756              	.L46:
 398:Middlewares/Decawave/decadriver/deca_device.c ****     }
 399:Middlewares/Decawave/decadriver/deca_device.c ****     dwt_write32bitoffsetreg(GPIO_CTRL_ID, GPIO_MODE_OFFSET, gpio_mode);
 757              		.loc 1 399 5
 758 003e FA68     		ldr	r2, [r7, #12]
 759 0040 0021     		movs	r1, #0
 760 0042 2620     		movs	r0, #38
 761 0044 FFF7FEFF 		bl	dwt_write32bitoffsetreg
 400:Middlewares/Decawave/decadriver/deca_device.c **** }
 762              		.loc 1 400 1
 763 0048 00BF     		nop
 764 004a 1037     		adds	r7, r7, #16
 765              	.LCFI27:
 766              		.cfi_def_cfa_offset 8
 767 004c BD46     		mov	sp, r7
 768              	.LCFI28:
 769              		.cfi_def_cfa_register 13
 770              		@ sp needed
 771 004e 80BD     		pop	{r7, pc}
 772              		.cfi_endproc
 773              	.LFE5:
 775              		.section	.text.dwt_enablegpioclocks,"ax",%progbits
 776              		.align	1
 777              		.global	dwt_enablegpioclocks
 778              		.syntax unified
 779              		.thumb
 780              		.thumb_func
 781              		.fpu fpv4-sp-d16
 783              	dwt_enablegpioclocks:
 784              	.LFB6:
 401:Middlewares/Decawave/decadriver/deca_device.c **** 
 402:Middlewares/Decawave/decadriver/deca_device.c **** /*! -----------------------------------------------------------------------------------------------
 403:Middlewares/Decawave/decadriver/deca_device.c ****  * @fn dwt_enablegpioclocks()
 404:Middlewares/Decawave/decadriver/deca_device.c ****  *
 405:Middlewares/Decawave/decadriver/deca_device.c ****  * @brief This is used to enable GPIO clocks. The clocks are needed to ensure correct GPIO operatio
 406:Middlewares/Decawave/decadriver/deca_device.c ****  *
 407:Middlewares/Decawave/decadriver/deca_device.c ****  * input parameters
 408:Middlewares/Decawave/decadriver/deca_device.c ****  *
 409:Middlewares/Decawave/decadriver/deca_device.c ****  * output parameters
 410:Middlewares/Decawave/decadriver/deca_device.c ****  *
 411:Middlewares/Decawave/decadriver/deca_device.c ****  * no return value
 412:Middlewares/Decawave/decadriver/deca_device.c ****  */
 413:Middlewares/Decawave/decadriver/deca_device.c **** void dwt_enablegpioclocks(void)
 414:Middlewares/Decawave/decadriver/deca_device.c **** {
 785              		.loc 1 414 1
 786              		.cfi_startproc
 787              		@ args = 0, pretend = 0, frame = 8
 788              		@ frame_needed = 1, uses_anonymous_args = 0
 789 0000 80B5     		push	{r7, lr}
 790              	.LCFI29:
 791              		.cfi_def_cfa_offset 8
 792              		.cfi_offset 7, -8
 793              		.cfi_offset 14, -4
 794 0002 82B0     		sub	sp, sp, #8
 795              	.LCFI30:
ARM GAS  /tmp/cc0TY0Fa.s 			page 22


 796              		.cfi_def_cfa_offset 16
 797 0004 00AF     		add	r7, sp, #0
 798              	.LCFI31:
 799              		.cfi_def_cfa_register 7
 415:Middlewares/Decawave/decadriver/deca_device.c ****     uint32 pmsc_clock_ctrl = dwt_read32bitreg(PMSC_ID);
 800              		.loc 1 415 30
 801 0006 0021     		movs	r1, #0
 802 0008 3620     		movs	r0, #54
 803 000a FFF7FEFF 		bl	dwt_read32bitoffsetreg
 804 000e 7860     		str	r0, [r7, #4]
 416:Middlewares/Decawave/decadriver/deca_device.c ****     dwt_write32bitreg(PMSC_ID, pmsc_clock_ctrl | PMSC_CTRL0_GPCE | PMSC_CTRL0_GPRN) ;
 805              		.loc 1 416 5
 806 0010 7B68     		ldr	r3, [r7, #4]
 807 0012 43F44033 		orr	r3, r3, #196608
 808 0016 1A46     		mov	r2, r3
 809 0018 0021     		movs	r1, #0
 810 001a 3620     		movs	r0, #54
 811 001c FFF7FEFF 		bl	dwt_write32bitoffsetreg
 417:Middlewares/Decawave/decadriver/deca_device.c **** }
 812              		.loc 1 417 1
 813 0020 00BF     		nop
 814 0022 0837     		adds	r7, r7, #8
 815              	.LCFI32:
 816              		.cfi_def_cfa_offset 8
 817 0024 BD46     		mov	sp, r7
 818              	.LCFI33:
 819              		.cfi_def_cfa_register 13
 820              		@ sp needed
 821 0026 80BD     		pop	{r7, pc}
 822              		.cfi_endproc
 823              	.LFE6:
 825              		.section	.text.dwt_setgpiodirection,"ax",%progbits
 826              		.align	1
 827              		.global	dwt_setgpiodirection
 828              		.syntax unified
 829              		.thumb
 830              		.thumb_func
 831              		.fpu fpv4-sp-d16
 833              	dwt_setgpiodirection:
 834              	.LFB7:
 418:Middlewares/Decawave/decadriver/deca_device.c **** 
 419:Middlewares/Decawave/decadriver/deca_device.c **** /*! -----------------------------------------------------------------------------------------------
 420:Middlewares/Decawave/decadriver/deca_device.c ****  * @fn dwt_setgpiodirection()
 421:Middlewares/Decawave/decadriver/deca_device.c ****  *
 422:Middlewares/Decawave/decadriver/deca_device.c ****  * @brief This is used to set GPIO direction as an input (1) or output (0)
 423:Middlewares/Decawave/decadriver/deca_device.c ****  *
 424:Middlewares/Decawave/decadriver/deca_device.c ****  * input parameters
 425:Middlewares/Decawave/decadriver/deca_device.c ****  * @param gpioNum    -   this is the GPIO to configure - see GxM0... GxM8 in the deca_regs.h file
 426:Middlewares/Decawave/decadriver/deca_device.c ****  * @param direction  -   this sets the GPIO direction - see GxP0... GxP8 in the deca_regs.h file
 427:Middlewares/Decawave/decadriver/deca_device.c ****  *
 428:Middlewares/Decawave/decadriver/deca_device.c ****  * output parameters
 429:Middlewares/Decawave/decadriver/deca_device.c ****  *
 430:Middlewares/Decawave/decadriver/deca_device.c ****  * no return value
 431:Middlewares/Decawave/decadriver/deca_device.c ****  */
 432:Middlewares/Decawave/decadriver/deca_device.c **** void dwt_setgpiodirection(uint32 gpioNum, uint32 direction)
 433:Middlewares/Decawave/decadriver/deca_device.c **** {
 835              		.loc 1 433 1
ARM GAS  /tmp/cc0TY0Fa.s 			page 23


 836              		.cfi_startproc
 837              		@ args = 0, pretend = 0, frame = 16
 838              		@ frame_needed = 1, uses_anonymous_args = 0
 839 0000 80B5     		push	{r7, lr}
 840              	.LCFI34:
 841              		.cfi_def_cfa_offset 8
 842              		.cfi_offset 7, -8
 843              		.cfi_offset 14, -4
 844 0002 84B0     		sub	sp, sp, #16
 845              	.LCFI35:
 846              		.cfi_def_cfa_offset 24
 847 0004 00AF     		add	r7, sp, #0
 848              	.LCFI36:
 849              		.cfi_def_cfa_register 7
 850 0006 7860     		str	r0, [r7, #4]
 851 0008 3960     		str	r1, [r7]
 434:Middlewares/Decawave/decadriver/deca_device.c ****     uint8 buf[GPIO_DIR_LEN];
 435:Middlewares/Decawave/decadriver/deca_device.c ****     uint32 command = direction | gpioNum;
 852              		.loc 1 435 12
 853 000a 3A68     		ldr	r2, [r7]
 854 000c 7B68     		ldr	r3, [r7, #4]
 855 000e 1343     		orrs	r3, r3, r2
 856 0010 FB60     		str	r3, [r7, #12]
 436:Middlewares/Decawave/decadriver/deca_device.c **** 
 437:Middlewares/Decawave/decadriver/deca_device.c ****     buf[0] = command & 0xff;
 857              		.loc 1 437 12
 858 0012 FB68     		ldr	r3, [r7, #12]
 859 0014 DBB2     		uxtb	r3, r3
 860 0016 3B72     		strb	r3, [r7, #8]
 438:Middlewares/Decawave/decadriver/deca_device.c ****     buf[1] = (command >> 8) & 0xff;
 861              		.loc 1 438 23
 862 0018 FB68     		ldr	r3, [r7, #12]
 863 001a 1B0A     		lsrs	r3, r3, #8
 864              		.loc 1 438 12
 865 001c DBB2     		uxtb	r3, r3
 866 001e 7B72     		strb	r3, [r7, #9]
 439:Middlewares/Decawave/decadriver/deca_device.c ****     buf[2] = (command >> 16) & 0xff;
 867              		.loc 1 439 23
 868 0020 FB68     		ldr	r3, [r7, #12]
 869 0022 1B0C     		lsrs	r3, r3, #16
 870              		.loc 1 439 12
 871 0024 DBB2     		uxtb	r3, r3
 872 0026 BB72     		strb	r3, [r7, #10]
 440:Middlewares/Decawave/decadriver/deca_device.c **** 
 441:Middlewares/Decawave/decadriver/deca_device.c ****     dwt_writetodevice(GPIO_CTRL_ID, GPIO_DIR_OFFSET, GPIO_DIR_LEN, buf);
 873              		.loc 1 441 5
 874 0028 07F10803 		add	r3, r7, #8
 875 002c 0322     		movs	r2, #3
 876 002e 0821     		movs	r1, #8
 877 0030 2620     		movs	r0, #38
 878 0032 FFF7FEFF 		bl	dwt_writetodevice
 442:Middlewares/Decawave/decadriver/deca_device.c **** }
 879              		.loc 1 442 1
 880 0036 00BF     		nop
 881 0038 1037     		adds	r7, r7, #16
 882              	.LCFI37:
 883              		.cfi_def_cfa_offset 8
ARM GAS  /tmp/cc0TY0Fa.s 			page 24


 884 003a BD46     		mov	sp, r7
 885              	.LCFI38:
 886              		.cfi_def_cfa_register 13
 887              		@ sp needed
 888 003c 80BD     		pop	{r7, pc}
 889              		.cfi_endproc
 890              	.LFE7:
 892              		.section	.text.dwt_setgpiovalue,"ax",%progbits
 893              		.align	1
 894              		.global	dwt_setgpiovalue
 895              		.syntax unified
 896              		.thumb
 897              		.thumb_func
 898              		.fpu fpv4-sp-d16
 900              	dwt_setgpiovalue:
 901              	.LFB8:
 443:Middlewares/Decawave/decadriver/deca_device.c **** 
 444:Middlewares/Decawave/decadriver/deca_device.c **** /*! -----------------------------------------------------------------------------------------------
 445:Middlewares/Decawave/decadriver/deca_device.c ****  * @fn dwt_setgpiovalue()
 446:Middlewares/Decawave/decadriver/deca_device.c ****  *
 447:Middlewares/Decawave/decadriver/deca_device.c ****  * @brief This is used to set GPIO value as (1) or (0) only applies if the GPIO is configured as ou
 448:Middlewares/Decawave/decadriver/deca_device.c ****  *
 449:Middlewares/Decawave/decadriver/deca_device.c ****  * input parameters
 450:Middlewares/Decawave/decadriver/deca_device.c ****  * @param gpioNum    -   this is the GPIO to configure - see DWT_GxP0... DWT_GxP8
 451:Middlewares/Decawave/decadriver/deca_device.c ****  * @param value  -   this sets the GPIO value - see DWT_GxP0... DWT_GxP8
 452:Middlewares/Decawave/decadriver/deca_device.c ****  *
 453:Middlewares/Decawave/decadriver/deca_device.c ****  * output parameters
 454:Middlewares/Decawave/decadriver/deca_device.c ****  *
 455:Middlewares/Decawave/decadriver/deca_device.c ****  * no return value
 456:Middlewares/Decawave/decadriver/deca_device.c ****  */
 457:Middlewares/Decawave/decadriver/deca_device.c **** void dwt_setgpiovalue(uint32 gpioNum, uint32 value)
 458:Middlewares/Decawave/decadriver/deca_device.c **** {
 902              		.loc 1 458 1
 903              		.cfi_startproc
 904              		@ args = 0, pretend = 0, frame = 16
 905              		@ frame_needed = 1, uses_anonymous_args = 0
 906 0000 80B5     		push	{r7, lr}
 907              	.LCFI39:
 908              		.cfi_def_cfa_offset 8
 909              		.cfi_offset 7, -8
 910              		.cfi_offset 14, -4
 911 0002 84B0     		sub	sp, sp, #16
 912              	.LCFI40:
 913              		.cfi_def_cfa_offset 24
 914 0004 00AF     		add	r7, sp, #0
 915              	.LCFI41:
 916              		.cfi_def_cfa_register 7
 917 0006 7860     		str	r0, [r7, #4]
 918 0008 3960     		str	r1, [r7]
 459:Middlewares/Decawave/decadriver/deca_device.c ****     uint8 buf[GPIO_DOUT_LEN];
 460:Middlewares/Decawave/decadriver/deca_device.c ****     uint32 command = value | gpioNum;
 919              		.loc 1 460 12
 920 000a 3A68     		ldr	r2, [r7]
 921 000c 7B68     		ldr	r3, [r7, #4]
 922 000e 1343     		orrs	r3, r3, r2
 923 0010 FB60     		str	r3, [r7, #12]
 461:Middlewares/Decawave/decadriver/deca_device.c **** 
ARM GAS  /tmp/cc0TY0Fa.s 			page 25


 462:Middlewares/Decawave/decadriver/deca_device.c ****     buf[0] = command & 0xff;
 924              		.loc 1 462 12
 925 0012 FB68     		ldr	r3, [r7, #12]
 926 0014 DBB2     		uxtb	r3, r3
 927 0016 3B72     		strb	r3, [r7, #8]
 463:Middlewares/Decawave/decadriver/deca_device.c ****     buf[1] = (command >> 8) & 0xff;
 928              		.loc 1 463 23
 929 0018 FB68     		ldr	r3, [r7, #12]
 930 001a 1B0A     		lsrs	r3, r3, #8
 931              		.loc 1 463 12
 932 001c DBB2     		uxtb	r3, r3
 933 001e 7B72     		strb	r3, [r7, #9]
 464:Middlewares/Decawave/decadriver/deca_device.c ****     buf[2] = (command >> 16) & 0xff;
 934              		.loc 1 464 23
 935 0020 FB68     		ldr	r3, [r7, #12]
 936 0022 1B0C     		lsrs	r3, r3, #16
 937              		.loc 1 464 12
 938 0024 DBB2     		uxtb	r3, r3
 939 0026 BB72     		strb	r3, [r7, #10]
 465:Middlewares/Decawave/decadriver/deca_device.c **** 
 466:Middlewares/Decawave/decadriver/deca_device.c ****     dwt_writetodevice(GPIO_CTRL_ID, GPIO_DOUT_OFFSET, GPIO_DOUT_LEN, buf);
 940              		.loc 1 466 5
 941 0028 07F10803 		add	r3, r7, #8
 942 002c 0322     		movs	r2, #3
 943 002e 0C21     		movs	r1, #12
 944 0030 2620     		movs	r0, #38
 945 0032 FFF7FEFF 		bl	dwt_writetodevice
 467:Middlewares/Decawave/decadriver/deca_device.c **** }
 946              		.loc 1 467 1
 947 0036 00BF     		nop
 948 0038 1037     		adds	r7, r7, #16
 949              	.LCFI42:
 950              		.cfi_def_cfa_offset 8
 951 003a BD46     		mov	sp, r7
 952              	.LCFI43:
 953              		.cfi_def_cfa_register 13
 954              		@ sp needed
 955 003c 80BD     		pop	{r7, pc}
 956              		.cfi_endproc
 957              	.LFE8:
 959              		.section	.text.dwt_getgpiovalue,"ax",%progbits
 960              		.align	1
 961              		.global	dwt_getgpiovalue
 962              		.syntax unified
 963              		.thumb
 964              		.thumb_func
 965              		.fpu fpv4-sp-d16
 967              	dwt_getgpiovalue:
 968              	.LFB9:
 468:Middlewares/Decawave/decadriver/deca_device.c **** 
 469:Middlewares/Decawave/decadriver/deca_device.c **** /*! -----------------------------------------------------------------------------------------------
 470:Middlewares/Decawave/decadriver/deca_device.c ****  * @fn dwt_getgpiovalue()
 471:Middlewares/Decawave/decadriver/deca_device.c ****  *
 472:Middlewares/Decawave/decadriver/deca_device.c ****  * @brief This is used to return 1 or 0 depending if the depending if the GPIO is high or low, only
 473:Middlewares/Decawave/decadriver/deca_device.c ****  *        be tested at a time
 474:Middlewares/Decawave/decadriver/deca_device.c ****  *
 475:Middlewares/Decawave/decadriver/deca_device.c ****  * input parameters
ARM GAS  /tmp/cc0TY0Fa.s 			page 26


 476:Middlewares/Decawave/decadriver/deca_device.c ****  * @param gpioNum    -   this is the GPIO to configure - see DWT_GxP0... DWT_GxP8
 477:Middlewares/Decawave/decadriver/deca_device.c ****  *
 478:Middlewares/Decawave/decadriver/deca_device.c ****  * output parameters
 479:Middlewares/Decawave/decadriver/deca_device.c ****  *
 480:Middlewares/Decawave/decadriver/deca_device.c ****  * return int (1 or 0)
 481:Middlewares/Decawave/decadriver/deca_device.c ****  */
 482:Middlewares/Decawave/decadriver/deca_device.c **** int dwt_getgpiovalue(uint32 gpioNum)
 483:Middlewares/Decawave/decadriver/deca_device.c **** {
 969              		.loc 1 483 1
 970              		.cfi_startproc
 971              		@ args = 0, pretend = 0, frame = 8
 972              		@ frame_needed = 1, uses_anonymous_args = 0
 973 0000 80B5     		push	{r7, lr}
 974              	.LCFI44:
 975              		.cfi_def_cfa_offset 8
 976              		.cfi_offset 7, -8
 977              		.cfi_offset 14, -4
 978 0002 82B0     		sub	sp, sp, #8
 979              	.LCFI45:
 980              		.cfi_def_cfa_offset 16
 981 0004 00AF     		add	r7, sp, #0
 982              	.LCFI46:
 983              		.cfi_def_cfa_register 7
 984 0006 7860     		str	r0, [r7, #4]
 484:Middlewares/Decawave/decadriver/deca_device.c ****     return ((dwt_read32bitoffsetreg(GPIO_CTRL_ID, GPIO_RAW_OFFSET) & gpioNum)? 1 : 0);
 985              		.loc 1 484 14
 986 0008 2821     		movs	r1, #40
 987 000a 2620     		movs	r0, #38
 988 000c FFF7FEFF 		bl	dwt_read32bitoffsetreg
 989 0010 0246     		mov	r2, r0
 990              		.loc 1 484 68
 991 0012 7B68     		ldr	r3, [r7, #4]
 992 0014 1340     		ands	r3, r3, r2
 993              		.loc 1 484 82
 994 0016 002B     		cmp	r3, #0
 995 0018 14BF     		ite	ne
 996 001a 0123     		movne	r3, #1
 997 001c 0023     		moveq	r3, #0
 998 001e DBB2     		uxtb	r3, r3
 485:Middlewares/Decawave/decadriver/deca_device.c **** }
 999              		.loc 1 485 1
 1000 0020 1846     		mov	r0, r3
 1001 0022 0837     		adds	r7, r7, #8
 1002              	.LCFI47:
 1003              		.cfi_def_cfa_offset 8
 1004 0024 BD46     		mov	sp, r7
 1005              	.LCFI48:
 1006              		.cfi_def_cfa_register 13
 1007              		@ sp needed
 1008 0026 80BD     		pop	{r7, pc}
 1009              		.cfi_endproc
 1010              	.LFE9:
 1012              		.section	.text.dwt_geticrefvolt,"ax",%progbits
 1013              		.align	1
 1014              		.global	dwt_geticrefvolt
 1015              		.syntax unified
 1016              		.thumb
ARM GAS  /tmp/cc0TY0Fa.s 			page 27


 1017              		.thumb_func
 1018              		.fpu fpv4-sp-d16
 1020              	dwt_geticrefvolt:
 1021              	.LFB10:
 486:Middlewares/Decawave/decadriver/deca_device.c **** 
 487:Middlewares/Decawave/decadriver/deca_device.c **** 
 488:Middlewares/Decawave/decadriver/deca_device.c **** /*! -----------------------------------------------------------------------------------------------
 489:Middlewares/Decawave/decadriver/deca_device.c ****  * @fn dwt_geticrefvolt()
 490:Middlewares/Decawave/decadriver/deca_device.c ****  *
 491:Middlewares/Decawave/decadriver/deca_device.c ****  * @brief This is used to return the read V measured @ 3.3 V value recorded in OTP address 0x8 (VBA
 492:Middlewares/Decawave/decadriver/deca_device.c ****  *
 493:Middlewares/Decawave/decadriver/deca_device.c ****  * NOTE: dwt_initialise() must be called prior to this function so that it can return a relevant va
 494:Middlewares/Decawave/decadriver/deca_device.c ****  *
 495:Middlewares/Decawave/decadriver/deca_device.c ****  * input parameters
 496:Middlewares/Decawave/decadriver/deca_device.c ****  *
 497:Middlewares/Decawave/decadriver/deca_device.c ****  * output parameters
 498:Middlewares/Decawave/decadriver/deca_device.c ****  *
 499:Middlewares/Decawave/decadriver/deca_device.c ****  * returns the 8 bit V bat value as programmed in the factory
 500:Middlewares/Decawave/decadriver/deca_device.c ****  */
 501:Middlewares/Decawave/decadriver/deca_device.c **** uint8 dwt_geticrefvolt(void)
 502:Middlewares/Decawave/decadriver/deca_device.c **** {
 1022              		.loc 1 502 1
 1023              		.cfi_startproc
 1024              		@ args = 0, pretend = 0, frame = 0
 1025              		@ frame_needed = 1, uses_anonymous_args = 0
 1026              		@ link register save eliminated.
 1027 0000 80B4     		push	{r7}
 1028              	.LCFI49:
 1029              		.cfi_def_cfa_offset 4
 1030              		.cfi_offset 7, -4
 1031 0002 00AF     		add	r7, sp, #0
 1032              	.LCFI50:
 1033              		.cfi_def_cfa_register 7
 503:Middlewares/Decawave/decadriver/deca_device.c **** #ifdef DWT_API_ERROR_CHECK
 504:Middlewares/Decawave/decadriver/deca_device.c ****     assert(pdw1000local->otp_mask & DWT_READ_OTP_BAT);
 505:Middlewares/Decawave/decadriver/deca_device.c **** #endif
 506:Middlewares/Decawave/decadriver/deca_device.c ****     return pdw1000local->vBatP;
 1034              		.loc 1 506 24
 1035 0004 034B     		ldr	r3, .L54
 1036 0006 1B68     		ldr	r3, [r3]
 1037 0008 1B7A     		ldrb	r3, [r3, #8]	@ zero_extendqisi2
 507:Middlewares/Decawave/decadriver/deca_device.c **** }
 1038              		.loc 1 507 1
 1039 000a 1846     		mov	r0, r3
 1040 000c BD46     		mov	sp, r7
 1041              	.LCFI51:
 1042              		.cfi_def_cfa_register 13
 1043              		@ sp needed
 1044 000e 5DF8047B 		ldr	r7, [sp], #4
 1045              	.LCFI52:
 1046              		.cfi_restore 7
 1047              		.cfi_def_cfa_offset 0
 1048 0012 7047     		bx	lr
 1049              	.L55:
 1050              		.align	2
 1051              	.L54:
 1052 0014 00000000 		.word	pdw1000local
ARM GAS  /tmp/cc0TY0Fa.s 			page 28


 1053              		.cfi_endproc
 1054              	.LFE10:
 1056              		.section	.text.dwt_geticreftemp,"ax",%progbits
 1057              		.align	1
 1058              		.global	dwt_geticreftemp
 1059              		.syntax unified
 1060              		.thumb
 1061              		.thumb_func
 1062              		.fpu fpv4-sp-d16
 1064              	dwt_geticreftemp:
 1065              	.LFB11:
 508:Middlewares/Decawave/decadriver/deca_device.c **** 
 509:Middlewares/Decawave/decadriver/deca_device.c **** /*! -----------------------------------------------------------------------------------------------
 510:Middlewares/Decawave/decadriver/deca_device.c ****  * @fn dwt_geticreftemp()
 511:Middlewares/Decawave/decadriver/deca_device.c ****  *
 512:Middlewares/Decawave/decadriver/deca_device.c ****  * @brief This is used to return the read T measured @ 23 C value recorded in OTP address 0x9 (VTEM
 513:Middlewares/Decawave/decadriver/deca_device.c ****  *
 514:Middlewares/Decawave/decadriver/deca_device.c ****  * NOTE: dwt_initialise() must be called prior to this function so that it can return a relevant va
 515:Middlewares/Decawave/decadriver/deca_device.c ****  *
 516:Middlewares/Decawave/decadriver/deca_device.c ****  * input parameters
 517:Middlewares/Decawave/decadriver/deca_device.c ****  *
 518:Middlewares/Decawave/decadriver/deca_device.c ****  * output parameters
 519:Middlewares/Decawave/decadriver/deca_device.c ****  *
 520:Middlewares/Decawave/decadriver/deca_device.c ****  * returns the 8 bit V temp value as programmed in the factory
 521:Middlewares/Decawave/decadriver/deca_device.c ****  */
 522:Middlewares/Decawave/decadriver/deca_device.c **** uint8 dwt_geticreftemp(void)
 523:Middlewares/Decawave/decadriver/deca_device.c **** {
 1066              		.loc 1 523 1
 1067              		.cfi_startproc
 1068              		@ args = 0, pretend = 0, frame = 0
 1069              		@ frame_needed = 1, uses_anonymous_args = 0
 1070              		@ link register save eliminated.
 1071 0000 80B4     		push	{r7}
 1072              	.LCFI53:
 1073              		.cfi_def_cfa_offset 4
 1074              		.cfi_offset 7, -4
 1075 0002 00AF     		add	r7, sp, #0
 1076              	.LCFI54:
 1077              		.cfi_def_cfa_register 7
 524:Middlewares/Decawave/decadriver/deca_device.c **** #ifdef DWT_API_ERROR_CHECK
 525:Middlewares/Decawave/decadriver/deca_device.c ****     assert(pdw1000local->otp_mask & DWT_READ_OTP_TMP);
 526:Middlewares/Decawave/decadriver/deca_device.c **** #endif
 527:Middlewares/Decawave/decadriver/deca_device.c ****     return pdw1000local->tempP;
 1078              		.loc 1 527 24
 1079 0004 034B     		ldr	r3, .L58
 1080 0006 1B68     		ldr	r3, [r3]
 1081 0008 5B7A     		ldrb	r3, [r3, #9]	@ zero_extendqisi2
 528:Middlewares/Decawave/decadriver/deca_device.c **** }
 1082              		.loc 1 528 1
 1083 000a 1846     		mov	r0, r3
 1084 000c BD46     		mov	sp, r7
 1085              	.LCFI55:
 1086              		.cfi_def_cfa_register 13
 1087              		@ sp needed
 1088 000e 5DF8047B 		ldr	r7, [sp], #4
 1089              	.LCFI56:
 1090              		.cfi_restore 7
ARM GAS  /tmp/cc0TY0Fa.s 			page 29


 1091              		.cfi_def_cfa_offset 0
 1092 0012 7047     		bx	lr
 1093              	.L59:
 1094              		.align	2
 1095              	.L58:
 1096 0014 00000000 		.word	pdw1000local
 1097              		.cfi_endproc
 1098              	.LFE11:
 1100              		.section	.text.dwt_getpartid,"ax",%progbits
 1101              		.align	1
 1102              		.global	dwt_getpartid
 1103              		.syntax unified
 1104              		.thumb
 1105              		.thumb_func
 1106              		.fpu fpv4-sp-d16
 1108              	dwt_getpartid:
 1109              	.LFB12:
 529:Middlewares/Decawave/decadriver/deca_device.c **** 
 530:Middlewares/Decawave/decadriver/deca_device.c **** /*! -----------------------------------------------------------------------------------------------
 531:Middlewares/Decawave/decadriver/deca_device.c ****  * @fn dwt_getpartid()
 532:Middlewares/Decawave/decadriver/deca_device.c ****  *
 533:Middlewares/Decawave/decadriver/deca_device.c ****  * @brief This is used to return the read part ID (or chip ID) of the device
 534:Middlewares/Decawave/decadriver/deca_device.c ****  *
 535:Middlewares/Decawave/decadriver/deca_device.c ****  * NOTE: dwt_initialise() must be called prior to this function so that it can return a relevant va
 536:Middlewares/Decawave/decadriver/deca_device.c ****  *
 537:Middlewares/Decawave/decadriver/deca_device.c ****  * input parameters
 538:Middlewares/Decawave/decadriver/deca_device.c ****  *
 539:Middlewares/Decawave/decadriver/deca_device.c ****  * output parameters
 540:Middlewares/Decawave/decadriver/deca_device.c ****  *
 541:Middlewares/Decawave/decadriver/deca_device.c ****  * returns the 32 bit part ID (or chip ID) value as programmed in the factory
 542:Middlewares/Decawave/decadriver/deca_device.c ****  */
 543:Middlewares/Decawave/decadriver/deca_device.c **** uint32 dwt_getpartid(void)
 544:Middlewares/Decawave/decadriver/deca_device.c **** {
 1110              		.loc 1 544 1
 1111              		.cfi_startproc
 1112              		@ args = 0, pretend = 0, frame = 0
 1113              		@ frame_needed = 1, uses_anonymous_args = 0
 1114              		@ link register save eliminated.
 1115 0000 80B4     		push	{r7}
 1116              	.LCFI57:
 1117              		.cfi_def_cfa_offset 4
 1118              		.cfi_offset 7, -4
 1119 0002 00AF     		add	r7, sp, #0
 1120              	.LCFI58:
 1121              		.cfi_def_cfa_register 7
 545:Middlewares/Decawave/decadriver/deca_device.c **** #ifdef DWT_API_ERROR_CHECK
 546:Middlewares/Decawave/decadriver/deca_device.c ****     assert(pdw1000local->otp_mask & DWT_READ_OTP_PID);
 547:Middlewares/Decawave/decadriver/deca_device.c **** #endif
 548:Middlewares/Decawave/decadriver/deca_device.c **** 
 549:Middlewares/Decawave/decadriver/deca_device.c ****     return pdw1000local->partID;
 1122              		.loc 1 549 24
 1123 0004 034B     		ldr	r3, .L62
 1124 0006 1B68     		ldr	r3, [r3]
 1125 0008 1B68     		ldr	r3, [r3]
 550:Middlewares/Decawave/decadriver/deca_device.c **** }
 1126              		.loc 1 550 1
 1127 000a 1846     		mov	r0, r3
ARM GAS  /tmp/cc0TY0Fa.s 			page 30


 1128 000c BD46     		mov	sp, r7
 1129              	.LCFI59:
 1130              		.cfi_def_cfa_register 13
 1131              		@ sp needed
 1132 000e 5DF8047B 		ldr	r7, [sp], #4
 1133              	.LCFI60:
 1134              		.cfi_restore 7
 1135              		.cfi_def_cfa_offset 0
 1136 0012 7047     		bx	lr
 1137              	.L63:
 1138              		.align	2
 1139              	.L62:
 1140 0014 00000000 		.word	pdw1000local
 1141              		.cfi_endproc
 1142              	.LFE12:
 1144              		.section	.text.dwt_getlotid,"ax",%progbits
 1145              		.align	1
 1146              		.global	dwt_getlotid
 1147              		.syntax unified
 1148              		.thumb
 1149              		.thumb_func
 1150              		.fpu fpv4-sp-d16
 1152              	dwt_getlotid:
 1153              	.LFB13:
 551:Middlewares/Decawave/decadriver/deca_device.c **** 
 552:Middlewares/Decawave/decadriver/deca_device.c **** /*! -----------------------------------------------------------------------------------------------
 553:Middlewares/Decawave/decadriver/deca_device.c ****  * @fn dwt_getlotid()
 554:Middlewares/Decawave/decadriver/deca_device.c ****  *
 555:Middlewares/Decawave/decadriver/deca_device.c ****  * @brief This is used to return the read lot ID of the device
 556:Middlewares/Decawave/decadriver/deca_device.c ****  *
 557:Middlewares/Decawave/decadriver/deca_device.c ****  * NOTE: dwt_initialise() must be called prior to this function so that it can return a relevant va
 558:Middlewares/Decawave/decadriver/deca_device.c ****  *
 559:Middlewares/Decawave/decadriver/deca_device.c ****  * input parameters
 560:Middlewares/Decawave/decadriver/deca_device.c ****  *
 561:Middlewares/Decawave/decadriver/deca_device.c ****  * output parameters
 562:Middlewares/Decawave/decadriver/deca_device.c ****  *
 563:Middlewares/Decawave/decadriver/deca_device.c ****  * returns the 32 bit lot ID value as programmed in the factory
 564:Middlewares/Decawave/decadriver/deca_device.c ****  */
 565:Middlewares/Decawave/decadriver/deca_device.c **** uint32 dwt_getlotid(void)
 566:Middlewares/Decawave/decadriver/deca_device.c **** {
 1154              		.loc 1 566 1
 1155              		.cfi_startproc
 1156              		@ args = 0, pretend = 0, frame = 0
 1157              		@ frame_needed = 1, uses_anonymous_args = 0
 1158              		@ link register save eliminated.
 1159 0000 80B4     		push	{r7}
 1160              	.LCFI61:
 1161              		.cfi_def_cfa_offset 4
 1162              		.cfi_offset 7, -4
 1163 0002 00AF     		add	r7, sp, #0
 1164              	.LCFI62:
 1165              		.cfi_def_cfa_register 7
 567:Middlewares/Decawave/decadriver/deca_device.c **** #ifdef DWT_API_ERROR_CHECK
 568:Middlewares/Decawave/decadriver/deca_device.c ****     assert(pdw1000local->otp_mask & DWT_READ_OTP_LID);
 569:Middlewares/Decawave/decadriver/deca_device.c **** #endif
 570:Middlewares/Decawave/decadriver/deca_device.c **** 
 571:Middlewares/Decawave/decadriver/deca_device.c ****     return pdw1000local->lotID;
ARM GAS  /tmp/cc0TY0Fa.s 			page 31


 1166              		.loc 1 571 24
 1167 0004 034B     		ldr	r3, .L66
 1168 0006 1B68     		ldr	r3, [r3]
 1169 0008 5B68     		ldr	r3, [r3, #4]
 572:Middlewares/Decawave/decadriver/deca_device.c **** }
 1170              		.loc 1 572 1
 1171 000a 1846     		mov	r0, r3
 1172 000c BD46     		mov	sp, r7
 1173              	.LCFI63:
 1174              		.cfi_def_cfa_register 13
 1175              		@ sp needed
 1176 000e 5DF8047B 		ldr	r7, [sp], #4
 1177              	.LCFI64:
 1178              		.cfi_restore 7
 1179              		.cfi_def_cfa_offset 0
 1180 0012 7047     		bx	lr
 1181              	.L67:
 1182              		.align	2
 1183              	.L66:
 1184 0014 00000000 		.word	pdw1000local
 1185              		.cfi_endproc
 1186              	.LFE13:
 1188              		.section	.text.dwt_readdevid,"ax",%progbits
 1189              		.align	1
 1190              		.global	dwt_readdevid
 1191              		.syntax unified
 1192              		.thumb
 1193              		.thumb_func
 1194              		.fpu fpv4-sp-d16
 1196              	dwt_readdevid:
 1197              	.LFB14:
 573:Middlewares/Decawave/decadriver/deca_device.c **** 
 574:Middlewares/Decawave/decadriver/deca_device.c **** /*! -----------------------------------------------------------------------------------------------
 575:Middlewares/Decawave/decadriver/deca_device.c ****  * @fn dwt_readdevid()
 576:Middlewares/Decawave/decadriver/deca_device.c ****  *
 577:Middlewares/Decawave/decadriver/deca_device.c ****  * @brief This is used to return the read device type and revision information of the DW1000 device
 578:Middlewares/Decawave/decadriver/deca_device.c ****  *
 579:Middlewares/Decawave/decadriver/deca_device.c ****  * input parameters
 580:Middlewares/Decawave/decadriver/deca_device.c ****  *
 581:Middlewares/Decawave/decadriver/deca_device.c ****  * output parameters
 582:Middlewares/Decawave/decadriver/deca_device.c ****  *
 583:Middlewares/Decawave/decadriver/deca_device.c ****  * returns the read value which for DW1000 is 0xDECA0130
 584:Middlewares/Decawave/decadriver/deca_device.c ****  */
 585:Middlewares/Decawave/decadriver/deca_device.c **** uint32 dwt_readdevid(void)
 586:Middlewares/Decawave/decadriver/deca_device.c **** {
 1198              		.loc 1 586 1
 1199              		.cfi_startproc
 1200              		@ args = 0, pretend = 0, frame = 0
 1201              		@ frame_needed = 1, uses_anonymous_args = 0
 1202 0000 80B5     		push	{r7, lr}
 1203              	.LCFI65:
 1204              		.cfi_def_cfa_offset 8
 1205              		.cfi_offset 7, -8
 1206              		.cfi_offset 14, -4
 1207 0002 00AF     		add	r7, sp, #0
 1208              	.LCFI66:
 1209              		.cfi_def_cfa_register 7
ARM GAS  /tmp/cc0TY0Fa.s 			page 32


 587:Middlewares/Decawave/decadriver/deca_device.c ****     return dwt_read32bitoffsetreg(DEV_ID_ID,0);
 1210              		.loc 1 587 12
 1211 0004 0021     		movs	r1, #0
 1212 0006 0020     		movs	r0, #0
 1213 0008 FFF7FEFF 		bl	dwt_read32bitoffsetreg
 1214 000c 0346     		mov	r3, r0
 588:Middlewares/Decawave/decadriver/deca_device.c **** }
 1215              		.loc 1 588 1
 1216 000e 1846     		mov	r0, r3
 1217 0010 80BD     		pop	{r7, pc}
 1218              		.cfi_endproc
 1219              	.LFE14:
 1221              		.section	.text.dwt_configuretxrf,"ax",%progbits
 1222              		.align	1
 1223              		.global	dwt_configuretxrf
 1224              		.syntax unified
 1225              		.thumb
 1226              		.thumb_func
 1227              		.fpu fpv4-sp-d16
 1229              	dwt_configuretxrf:
 1230              	.LFB15:
 589:Middlewares/Decawave/decadriver/deca_device.c **** 
 590:Middlewares/Decawave/decadriver/deca_device.c **** /*! -----------------------------------------------------------------------------------------------
 591:Middlewares/Decawave/decadriver/deca_device.c ****  * @fn dwt_configuretxrf()
 592:Middlewares/Decawave/decadriver/deca_device.c ****  *
 593:Middlewares/Decawave/decadriver/deca_device.c ****  * @brief This function provides the API for the configuration of the TX spectrum
 594:Middlewares/Decawave/decadriver/deca_device.c ****  * including the power and pulse generator delay. The input is a pointer to the data structure
 595:Middlewares/Decawave/decadriver/deca_device.c ****  * of type dwt_txconfig_t that holds all the configurable items.
 596:Middlewares/Decawave/decadriver/deca_device.c ****  *
 597:Middlewares/Decawave/decadriver/deca_device.c ****  * input parameters
 598:Middlewares/Decawave/decadriver/deca_device.c ****  * @param config    -   pointer to the txrf configuration structure, which contains the tx rf confi
 599:Middlewares/Decawave/decadriver/deca_device.c ****  *
 600:Middlewares/Decawave/decadriver/deca_device.c ****  * output parameters
 601:Middlewares/Decawave/decadriver/deca_device.c ****  *
 602:Middlewares/Decawave/decadriver/deca_device.c ****  * no return value
 603:Middlewares/Decawave/decadriver/deca_device.c ****  */
 604:Middlewares/Decawave/decadriver/deca_device.c **** void dwt_configuretxrf(dwt_txconfig_t *config)
 605:Middlewares/Decawave/decadriver/deca_device.c **** {
 1231              		.loc 1 605 1
 1232              		.cfi_startproc
 1233              		@ args = 0, pretend = 0, frame = 8
 1234              		@ frame_needed = 1, uses_anonymous_args = 0
 1235 0000 80B5     		push	{r7, lr}
 1236              	.LCFI67:
 1237              		.cfi_def_cfa_offset 8
 1238              		.cfi_offset 7, -8
 1239              		.cfi_offset 14, -4
 1240 0002 82B0     		sub	sp, sp, #8
 1241              	.LCFI68:
 1242              		.cfi_def_cfa_offset 16
 1243 0004 00AF     		add	r7, sp, #0
 1244              	.LCFI69:
 1245              		.cfi_def_cfa_register 7
 1246 0006 7860     		str	r0, [r7, #4]
 606:Middlewares/Decawave/decadriver/deca_device.c **** 
 607:Middlewares/Decawave/decadriver/deca_device.c ****     // Configure RF TX PG_DELAY
 608:Middlewares/Decawave/decadriver/deca_device.c ****     dwt_write8bitoffsetreg(TX_CAL_ID, TC_PGDELAY_OFFSET, config->PGdly);
ARM GAS  /tmp/cc0TY0Fa.s 			page 33


 1247              		.loc 1 608 5
 1248 0008 7B68     		ldr	r3, [r7, #4]
 1249 000a 1B78     		ldrb	r3, [r3]	@ zero_extendqisi2
 1250 000c 1A46     		mov	r2, r3
 1251 000e 0B21     		movs	r1, #11
 1252 0010 2A20     		movs	r0, #42
 1253 0012 FFF7FEFF 		bl	dwt_write8bitoffsetreg
 609:Middlewares/Decawave/decadriver/deca_device.c **** 
 610:Middlewares/Decawave/decadriver/deca_device.c ****     // Configure TX power
 611:Middlewares/Decawave/decadriver/deca_device.c ****     dwt_write32bitreg(TX_POWER_ID, config->power);
 1254              		.loc 1 611 5
 1255 0016 7B68     		ldr	r3, [r7, #4]
 1256 0018 5B68     		ldr	r3, [r3, #4]
 1257 001a 1A46     		mov	r2, r3
 1258 001c 0021     		movs	r1, #0
 1259 001e 1E20     		movs	r0, #30
 1260 0020 FFF7FEFF 		bl	dwt_write32bitoffsetreg
 612:Middlewares/Decawave/decadriver/deca_device.c **** 
 613:Middlewares/Decawave/decadriver/deca_device.c **** }
 1261              		.loc 1 613 1
 1262 0024 00BF     		nop
 1263 0026 0837     		adds	r7, r7, #8
 1264              	.LCFI70:
 1265              		.cfi_def_cfa_offset 8
 1266 0028 BD46     		mov	sp, r7
 1267              	.LCFI71:
 1268              		.cfi_def_cfa_register 13
 1269              		@ sp needed
 1270 002a 80BD     		pop	{r7, pc}
 1271              		.cfi_endproc
 1272              	.LFE15:
 1274              		.section	.text.dwt_configurefor64plen,"ax",%progbits
 1275              		.align	1
 1276              		.global	dwt_configurefor64plen
 1277              		.syntax unified
 1278              		.thumb
 1279              		.thumb_func
 1280              		.fpu fpv4-sp-d16
 1282              	dwt_configurefor64plen:
 1283              	.LFB16:
 614:Middlewares/Decawave/decadriver/deca_device.c **** 
 615:Middlewares/Decawave/decadriver/deca_device.c **** 
 616:Middlewares/Decawave/decadriver/deca_device.c **** /*! -----------------------------------------------------------------------------------------------
 617:Middlewares/Decawave/decadriver/deca_device.c ****  * @fn dwt_configurefor64plen()
 618:Middlewares/Decawave/decadriver/deca_device.c ****  *  - Use default OPS table should be used with following register modifications:
 619:Middlewares/Decawave/decadriver/deca_device.c ****  *    These modifications optimise the default OPS configuration further for 64 length preamble use
 620:Middlewares/Decawave/decadriver/deca_device.c ****  *
 621:Middlewares/Decawave/decadriver/deca_device.c ****  * NOTE: These register settings are not preserved during SLEEP/DEEPSLEEP, thus they should be prog
 622:Middlewares/Decawave/decadriver/deca_device.c ****  *
 623:Middlewares/Decawave/decadriver/deca_device.c ****  * input parameters
 624:Middlewares/Decawave/decadriver/deca_device.c ****  * @param prf
 625:Middlewares/Decawave/decadriver/deca_device.c ****  *
 626:Middlewares/Decawave/decadriver/deca_device.c ****  * output parameters
 627:Middlewares/Decawave/decadriver/deca_device.c ****  *
 628:Middlewares/Decawave/decadriver/deca_device.c ****  * no return value
 629:Middlewares/Decawave/decadriver/deca_device.c ****  */
 630:Middlewares/Decawave/decadriver/deca_device.c **** void dwt_configurefor64plen(int prf)
ARM GAS  /tmp/cc0TY0Fa.s 			page 34


 631:Middlewares/Decawave/decadriver/deca_device.c **** {
 1284              		.loc 1 631 1
 1285              		.cfi_startproc
 1286              		@ args = 0, pretend = 0, frame = 8
 1287              		@ frame_needed = 1, uses_anonymous_args = 0
 1288 0000 80B5     		push	{r7, lr}
 1289              	.LCFI72:
 1290              		.cfi_def_cfa_offset 8
 1291              		.cfi_offset 7, -8
 1292              		.cfi_offset 14, -4
 1293 0002 82B0     		sub	sp, sp, #8
 1294              	.LCFI73:
 1295              		.cfi_def_cfa_offset 16
 1296 0004 00AF     		add	r7, sp, #0
 1297              	.LCFI74:
 1298              		.cfi_def_cfa_register 7
 1299 0006 7860     		str	r0, [r7, #4]
 632:Middlewares/Decawave/decadriver/deca_device.c ****     dwt_write8bitoffsetreg(CRTR_ID, CRTR_GEAR_OFFSET, DEMOD_GEAR_64L);
 1300              		.loc 1 632 5
 1301 0008 4722     		movs	r2, #71
 1302 000a 2821     		movs	r1, #40
 1303 000c 3120     		movs	r0, #49
 1304 000e FFF7FEFF 		bl	dwt_write8bitoffsetreg
 633:Middlewares/Decawave/decadriver/deca_device.c **** 
 634:Middlewares/Decawave/decadriver/deca_device.c ****     if(prf == DWT_PRF_16M)
 1305              		.loc 1 634 7
 1306 0012 7B68     		ldr	r3, [r7, #4]
 1307 0014 012B     		cmp	r3, #1
 1308 0016 05D1     		bne	.L72
 635:Middlewares/Decawave/decadriver/deca_device.c ****     {
 636:Middlewares/Decawave/decadriver/deca_device.c ****         dwt_write8bitoffsetreg(DRX_CONF_ID, DRX_TUNE2_OFFSET+2, DRX_TUNE2_UNCONF_SFD_TH_PRF16);
 1309              		.loc 1 636 9
 1310 0018 0E22     		movs	r2, #14
 1311 001a 0A21     		movs	r1, #10
 1312 001c 2720     		movs	r0, #39
 1313 001e FFF7FEFF 		bl	dwt_write8bitoffsetreg
 637:Middlewares/Decawave/decadriver/deca_device.c ****     }
 638:Middlewares/Decawave/decadriver/deca_device.c ****     else
 639:Middlewares/Decawave/decadriver/deca_device.c ****     {
 640:Middlewares/Decawave/decadriver/deca_device.c ****         dwt_write8bitoffsetreg(DRX_CONF_ID, DRX_TUNE2_OFFSET+2, DRX_TUNE2_UNCONF_SFD_TH_PRF64);
 641:Middlewares/Decawave/decadriver/deca_device.c ****     }
 642:Middlewares/Decawave/decadriver/deca_device.c **** }
 1314              		.loc 1 642 1
 1315 0022 04E0     		b	.L74
 1316              	.L72:
 640:Middlewares/Decawave/decadriver/deca_device.c ****     }
 1317              		.loc 1 640 9
 1318 0024 2022     		movs	r2, #32
 1319 0026 0A21     		movs	r1, #10
 1320 0028 2720     		movs	r0, #39
 1321 002a FFF7FEFF 		bl	dwt_write8bitoffsetreg
 1322              	.L74:
 1323              		.loc 1 642 1
 1324 002e 00BF     		nop
 1325 0030 0837     		adds	r7, r7, #8
 1326              	.LCFI75:
 1327              		.cfi_def_cfa_offset 8
ARM GAS  /tmp/cc0TY0Fa.s 			page 35


 1328 0032 BD46     		mov	sp, r7
 1329              	.LCFI76:
 1330              		.cfi_def_cfa_register 13
 1331              		@ sp needed
 1332 0034 80BD     		pop	{r7, pc}
 1333              		.cfi_endproc
 1334              	.LFE16:
 1336              		.section	.text.dwt_configure,"ax",%progbits
 1337              		.align	1
 1338              		.global	dwt_configure
 1339              		.syntax unified
 1340              		.thumb
 1341              		.thumb_func
 1342              		.fpu fpv4-sp-d16
 1344              	dwt_configure:
 1345              	.LFB17:
 643:Middlewares/Decawave/decadriver/deca_device.c **** 
 644:Middlewares/Decawave/decadriver/deca_device.c **** 
 645:Middlewares/Decawave/decadriver/deca_device.c **** /*! -----------------------------------------------------------------------------------------------
 646:Middlewares/Decawave/decadriver/deca_device.c ****  * @fn dwt_configure()
 647:Middlewares/Decawave/decadriver/deca_device.c ****  *
 648:Middlewares/Decawave/decadriver/deca_device.c ****  * @brief This function provides the main API for the configuration of the
 649:Middlewares/Decawave/decadriver/deca_device.c ****  * DW1000 and this low-level driver.  The input is a pointer to the data structure
 650:Middlewares/Decawave/decadriver/deca_device.c ****  * of type dwt_config_t that holds all the configurable items.
 651:Middlewares/Decawave/decadriver/deca_device.c ****  * The dwt_config_t structure shows which ones are supported
 652:Middlewares/Decawave/decadriver/deca_device.c ****  *
 653:Middlewares/Decawave/decadriver/deca_device.c ****  * input parameters
 654:Middlewares/Decawave/decadriver/deca_device.c ****  * @param config    -   pointer to the configuration structure, which contains the device configura
 655:Middlewares/Decawave/decadriver/deca_device.c ****  *
 656:Middlewares/Decawave/decadriver/deca_device.c ****  * output parameters
 657:Middlewares/Decawave/decadriver/deca_device.c ****  *
 658:Middlewares/Decawave/decadriver/deca_device.c ****  * no return value
 659:Middlewares/Decawave/decadriver/deca_device.c ****  */
 660:Middlewares/Decawave/decadriver/deca_device.c **** void dwt_configure(dwt_config_t *config)
 661:Middlewares/Decawave/decadriver/deca_device.c **** {
 1346              		.loc 1 661 1
 1347              		.cfi_startproc
 1348              		@ args = 0, pretend = 0, frame = 24
 1349              		@ frame_needed = 1, uses_anonymous_args = 0
 1350 0000 80B5     		push	{r7, lr}
 1351              	.LCFI77:
 1352              		.cfi_def_cfa_offset 8
 1353              		.cfi_offset 7, -8
 1354              		.cfi_offset 14, -4
 1355 0002 86B0     		sub	sp, sp, #24
 1356              	.LCFI78:
 1357              		.cfi_def_cfa_offset 32
 1358 0004 00AF     		add	r7, sp, #0
 1359              	.LCFI79:
 1360              		.cfi_def_cfa_register 7
 1361 0006 7860     		str	r0, [r7, #4]
 662:Middlewares/Decawave/decadriver/deca_device.c ****     uint8 nsSfd_result  = 0;
 1362              		.loc 1 662 11
 1363 0008 0023     		movs	r3, #0
 1364 000a FB75     		strb	r3, [r7, #23]
 663:Middlewares/Decawave/decadriver/deca_device.c ****     uint8 useDWnsSFD = 0;
 1365              		.loc 1 663 11
ARM GAS  /tmp/cc0TY0Fa.s 			page 36


 1366 000c 0023     		movs	r3, #0
 1367 000e BB75     		strb	r3, [r7, #22]
 664:Middlewares/Decawave/decadriver/deca_device.c ****     uint8 chan = config->chan ;
 1368              		.loc 1 664 11
 1369 0010 7B68     		ldr	r3, [r7, #4]
 1370 0012 1B78     		ldrb	r3, [r3]
 1371 0014 FB74     		strb	r3, [r7, #19]
 665:Middlewares/Decawave/decadriver/deca_device.c ****     uint32 regval ;
 666:Middlewares/Decawave/decadriver/deca_device.c ****     uint16 reg16 = lde_replicaCoeff[config->rxCode];
 1372              		.loc 1 666 43
 1373 0016 7B68     		ldr	r3, [r7, #4]
 1374 0018 5B79     		ldrb	r3, [r3, #5]	@ zero_extendqisi2
 1375 001a 1A46     		mov	r2, r3
 1376              		.loc 1 666 12
 1377 001c A14B     		ldr	r3, .L86
 1378 001e 33F81230 		ldrh	r3, [r3, r2, lsl #1]	@ movhi
 1379 0022 BB82     		strh	r3, [r7, #20]	@ movhi
 667:Middlewares/Decawave/decadriver/deca_device.c ****     uint8 prfIndex = config->prf - DWT_PRF_16M;
 1380              		.loc 1 667 28
 1381 0024 7B68     		ldr	r3, [r7, #4]
 1382 0026 5B78     		ldrb	r3, [r3, #1]	@ zero_extendqisi2
 1383              		.loc 1 667 11
 1384 0028 013B     		subs	r3, r3, #1
 1385 002a BB74     		strb	r3, [r7, #18]
 668:Middlewares/Decawave/decadriver/deca_device.c ****     uint8 bw = ((chan == 4) || (chan == 7)) ? 1 : 0 ; // Select wide or narrow band
 1386              		.loc 1 668 49
 1387 002c FB7C     		ldrb	r3, [r7, #19]	@ zero_extendqisi2
 1388 002e 042B     		cmp	r3, #4
 1389 0030 02D0     		beq	.L76
 1390              		.loc 1 668 49 is_stmt 0 discriminator 2
 1391 0032 FB7C     		ldrb	r3, [r7, #19]	@ zero_extendqisi2
 1392 0034 072B     		cmp	r3, #7
 1393 0036 01D1     		bne	.L77
 1394              	.L76:
 1395              		.loc 1 668 49 discriminator 3
 1396 0038 0123     		movs	r3, #1
 1397 003a 00E0     		b	.L78
 1398              	.L77:
 1399              		.loc 1 668 49 discriminator 4
 1400 003c 0023     		movs	r3, #0
 1401              	.L78:
 1402              		.loc 1 668 11 is_stmt 1 discriminator 6
 1403 003e 7B74     		strb	r3, [r7, #17]
 669:Middlewares/Decawave/decadriver/deca_device.c **** 
 670:Middlewares/Decawave/decadriver/deca_device.c **** #ifdef DWT_API_ERROR_CHECK
 671:Middlewares/Decawave/decadriver/deca_device.c ****     assert(config->dataRate <= DWT_BR_6M8);
 672:Middlewares/Decawave/decadriver/deca_device.c ****     assert(config->rxPAC <= DWT_PAC64);
 673:Middlewares/Decawave/decadriver/deca_device.c ****     assert((chan >= 1) && (chan <= 7) && (chan != 6));
 674:Middlewares/Decawave/decadriver/deca_device.c ****     assert(((config->prf == DWT_PRF_64M) && (config->txCode >= 9) && (config->txCode <= 24))
 675:Middlewares/Decawave/decadriver/deca_device.c ****            || ((config->prf == DWT_PRF_16M) && (config->txCode >= 1) && (config->txCode <= 8)));
 676:Middlewares/Decawave/decadriver/deca_device.c ****     assert(((config->prf == DWT_PRF_64M) && (config->rxCode >= 9) && (config->rxCode <= 24))
 677:Middlewares/Decawave/decadriver/deca_device.c ****            || ((config->prf == DWT_PRF_16M) && (config->rxCode >= 1) && (config->rxCode <= 8)));
 678:Middlewares/Decawave/decadriver/deca_device.c ****     assert((config->txPreambLength == DWT_PLEN_64) || (config->txPreambLength == DWT_PLEN_128) || (
 679:Middlewares/Decawave/decadriver/deca_device.c ****            || (config->txPreambLength == DWT_PLEN_512) || (config->txPreambLength == DWT_PLEN_1024)
 680:Middlewares/Decawave/decadriver/deca_device.c ****            || (config->txPreambLength == DWT_PLEN_2048) || (config->txPreambLength == DWT_PLEN_4096
 681:Middlewares/Decawave/decadriver/deca_device.c ****     assert((config->phrMode == DWT_PHRMODE_STD) || (config->phrMode == DWT_PHRMODE_EXT));
 682:Middlewares/Decawave/decadriver/deca_device.c **** #endif
ARM GAS  /tmp/cc0TY0Fa.s 			page 37


 683:Middlewares/Decawave/decadriver/deca_device.c **** 
 684:Middlewares/Decawave/decadriver/deca_device.c ****     // For 110 kbps we need a special setup
 685:Middlewares/Decawave/decadriver/deca_device.c ****     if(DWT_BR_110K == config->dataRate)
 1404              		.loc 1 685 29 discriminator 6
 1405 0040 7B68     		ldr	r3, [r7, #4]
 1406 0042 DB79     		ldrb	r3, [r3, #7]	@ zero_extendqisi2
 1407              		.loc 1 685 7 discriminator 6
 1408 0044 002B     		cmp	r3, #0
 1409 0046 0BD1     		bne	.L79
 686:Middlewares/Decawave/decadriver/deca_device.c ****     {
 687:Middlewares/Decawave/decadriver/deca_device.c ****         pdw1000local->sysCFGreg |= SYS_CFG_RXM110K ;
 1410              		.loc 1 687 33
 1411 0048 974B     		ldr	r3, .L86+4
 1412 004a 1B68     		ldr	r3, [r3]
 1413 004c 1A69     		ldr	r2, [r3, #16]
 1414 004e 964B     		ldr	r3, .L86+4
 1415 0050 1B68     		ldr	r3, [r3]
 1416 0052 42F48002 		orr	r2, r2, #4194304
 1417 0056 1A61     		str	r2, [r3, #16]
 688:Middlewares/Decawave/decadriver/deca_device.c ****         reg16 >>= 3; // lde_replicaCoeff must be divided by 8
 1418              		.loc 1 688 15
 1419 0058 BB8A     		ldrh	r3, [r7, #20]
 1420 005a DB08     		lsrs	r3, r3, #3
 1421 005c BB82     		strh	r3, [r7, #20]	@ movhi
 1422 005e 07E0     		b	.L80
 1423              	.L79:
 689:Middlewares/Decawave/decadriver/deca_device.c ****     }
 690:Middlewares/Decawave/decadriver/deca_device.c ****     else
 691:Middlewares/Decawave/decadriver/deca_device.c ****     {
 692:Middlewares/Decawave/decadriver/deca_device.c ****         pdw1000local->sysCFGreg &= (~SYS_CFG_RXM110K) ;
 1424              		.loc 1 692 33
 1425 0060 914B     		ldr	r3, .L86+4
 1426 0062 1B68     		ldr	r3, [r3]
 1427 0064 1A69     		ldr	r2, [r3, #16]
 1428 0066 904B     		ldr	r3, .L86+4
 1429 0068 1B68     		ldr	r3, [r3]
 1430 006a 22F48002 		bic	r2, r2, #4194304
 1431 006e 1A61     		str	r2, [r3, #16]
 1432              	.L80:
 693:Middlewares/Decawave/decadriver/deca_device.c ****     }
 694:Middlewares/Decawave/decadriver/deca_device.c **** 
 695:Middlewares/Decawave/decadriver/deca_device.c ****     pdw1000local->longFrames = config->phrMode ;
 1433              		.loc 1 695 17
 1434 0070 8D4B     		ldr	r3, .L86+4
 1435 0072 1B68     		ldr	r3, [r3]
 1436              		.loc 1 695 38
 1437 0074 7A68     		ldr	r2, [r7, #4]
 1438 0076 127A     		ldrb	r2, [r2, #8]	@ zero_extendqisi2
 1439              		.loc 1 695 30
 1440 0078 9A72     		strb	r2, [r3, #10]
 696:Middlewares/Decawave/decadriver/deca_device.c **** 
 697:Middlewares/Decawave/decadriver/deca_device.c ****     pdw1000local->sysCFGreg &= ~SYS_CFG_PHR_MODE_11;
 1441              		.loc 1 697 29
 1442 007a 8B4B     		ldr	r3, .L86+4
 1443 007c 1B68     		ldr	r3, [r3]
 1444 007e 1A69     		ldr	r2, [r3, #16]
 1445 0080 894B     		ldr	r3, .L86+4
ARM GAS  /tmp/cc0TY0Fa.s 			page 38


 1446 0082 1B68     		ldr	r3, [r3]
 1447 0084 22F44032 		bic	r2, r2, #196608
 1448 0088 1A61     		str	r2, [r3, #16]
 698:Middlewares/Decawave/decadriver/deca_device.c ****     pdw1000local->sysCFGreg |= (SYS_CFG_PHR_MODE_11 & ((uint32)config->phrMode << SYS_CFG_PHR_MODE_
 1449              		.loc 1 698 29
 1450 008a 874B     		ldr	r3, .L86+4
 1451 008c 1B68     		ldr	r3, [r3]
 1452 008e 1969     		ldr	r1, [r3, #16]
 1453              		.loc 1 698 70
 1454 0090 7B68     		ldr	r3, [r7, #4]
 1455 0092 1B7A     		ldrb	r3, [r3, #8]	@ zero_extendqisi2
 1456              		.loc 1 698 80
 1457 0094 1B04     		lsls	r3, r3, #16
 1458              		.loc 1 698 53
 1459 0096 03F44032 		and	r2, r3, #196608
 1460              		.loc 1 698 29
 1461 009a 834B     		ldr	r3, .L86+4
 1462 009c 1B68     		ldr	r3, [r3]
 1463 009e 0A43     		orrs	r2, r2, r1
 1464 00a0 1A61     		str	r2, [r3, #16]
 699:Middlewares/Decawave/decadriver/deca_device.c **** 
 700:Middlewares/Decawave/decadriver/deca_device.c ****     dwt_write32bitreg(SYS_CFG_ID,pdw1000local->sysCFGreg) ;
 1465              		.loc 1 700 5
 1466 00a2 814B     		ldr	r3, .L86+4
 1467 00a4 1B68     		ldr	r3, [r3]
 1468 00a6 1B69     		ldr	r3, [r3, #16]
 1469 00a8 1A46     		mov	r2, r3
 1470 00aa 0021     		movs	r1, #0
 1471 00ac 0420     		movs	r0, #4
 1472 00ae FFF7FEFF 		bl	dwt_write32bitoffsetreg
 701:Middlewares/Decawave/decadriver/deca_device.c ****     // Set the lde_replicaCoeff
 702:Middlewares/Decawave/decadriver/deca_device.c ****     dwt_write16bitoffsetreg(LDE_IF_ID, LDE_REPC_OFFSET, reg16) ;
 1473              		.loc 1 702 5
 1474 00b2 BB8A     		ldrh	r3, [r7, #20]
 1475 00b4 1A46     		mov	r2, r3
 1476 00b6 42F60401 		movw	r1, #10244
 1477 00ba 2E20     		movs	r0, #46
 1478 00bc FFF7FEFF 		bl	dwt_write16bitoffsetreg
 703:Middlewares/Decawave/decadriver/deca_device.c **** 
 704:Middlewares/Decawave/decadriver/deca_device.c ****     _dwt_configlde(prfIndex);
 1479              		.loc 1 704 5
 1480 00c0 BB7C     		ldrb	r3, [r7, #18]	@ zero_extendqisi2
 1481 00c2 1846     		mov	r0, r3
 1482 00c4 FFF7FEFF 		bl	_dwt_configlde
 705:Middlewares/Decawave/decadriver/deca_device.c **** 
 706:Middlewares/Decawave/decadriver/deca_device.c ****     // Configure PLL2/RF PLL block CFG/TUNE (for a given channel)
 707:Middlewares/Decawave/decadriver/deca_device.c ****     dwt_write32bitoffsetreg(FS_CTRL_ID, FS_PLLCFG_OFFSET, fs_pll_cfg[chan_idx[chan]]);
 1483              		.loc 1 707 78
 1484 00c8 FB7C     		ldrb	r3, [r7, #19]	@ zero_extendqisi2
 1485 00ca 784A     		ldr	r2, .L86+8
 1486 00cc D35C     		ldrb	r3, [r2, r3]	@ zero_extendqisi2
 1487 00ce 1A46     		mov	r2, r3
 1488              		.loc 1 707 5
 1489 00d0 774B     		ldr	r3, .L86+12
 1490 00d2 53F82230 		ldr	r3, [r3, r2, lsl #2]
 1491 00d6 1A46     		mov	r2, r3
 1492 00d8 0721     		movs	r1, #7
ARM GAS  /tmp/cc0TY0Fa.s 			page 39


 1493 00da 2B20     		movs	r0, #43
 1494 00dc FFF7FEFF 		bl	dwt_write32bitoffsetreg
 708:Middlewares/Decawave/decadriver/deca_device.c ****     dwt_write8bitoffsetreg(FS_CTRL_ID, FS_PLLTUNE_OFFSET, fs_pll_tune[chan_idx[chan]]);
 1495              		.loc 1 708 79
 1496 00e0 FB7C     		ldrb	r3, [r7, #19]	@ zero_extendqisi2
 1497 00e2 724A     		ldr	r2, .L86+8
 1498 00e4 D35C     		ldrb	r3, [r2, r3]	@ zero_extendqisi2
 1499 00e6 1A46     		mov	r2, r3
 1500              		.loc 1 708 5
 1501 00e8 724B     		ldr	r3, .L86+16
 1502 00ea 9B5C     		ldrb	r3, [r3, r2]	@ zero_extendqisi2
 1503 00ec 1A46     		mov	r2, r3
 1504 00ee 0B21     		movs	r1, #11
 1505 00f0 2B20     		movs	r0, #43
 1506 00f2 FFF7FEFF 		bl	dwt_write8bitoffsetreg
 709:Middlewares/Decawave/decadriver/deca_device.c **** 
 710:Middlewares/Decawave/decadriver/deca_device.c ****     // Configure RF RX blocks (for specified channel/bandwidth)
 711:Middlewares/Decawave/decadriver/deca_device.c ****     dwt_write8bitoffsetreg(RF_CONF_ID, RF_RXCTRLH_OFFSET, rx_config[bw]);
 1507              		.loc 1 711 5
 1508 00f6 7B7C     		ldrb	r3, [r7, #17]	@ zero_extendqisi2
 1509 00f8 6F4A     		ldr	r2, .L86+20
 1510 00fa D35C     		ldrb	r3, [r2, r3]	@ zero_extendqisi2
 1511 00fc 1A46     		mov	r2, r3
 1512 00fe 0B21     		movs	r1, #11
 1513 0100 2820     		movs	r0, #40
 1514 0102 FFF7FEFF 		bl	dwt_write8bitoffsetreg
 712:Middlewares/Decawave/decadriver/deca_device.c **** 
 713:Middlewares/Decawave/decadriver/deca_device.c ****     // Configure RF TX blocks (for specified channel and PRF)
 714:Middlewares/Decawave/decadriver/deca_device.c ****     // Configure RF TX control
 715:Middlewares/Decawave/decadriver/deca_device.c ****     dwt_write32bitoffsetreg(RF_CONF_ID, RF_TXCTRL_OFFSET, tx_config[chan_idx[chan]]);
 1515              		.loc 1 715 77
 1516 0106 FB7C     		ldrb	r3, [r7, #19]	@ zero_extendqisi2
 1517 0108 684A     		ldr	r2, .L86+8
 1518 010a D35C     		ldrb	r3, [r2, r3]	@ zero_extendqisi2
 1519 010c 1A46     		mov	r2, r3
 1520              		.loc 1 715 5
 1521 010e 6B4B     		ldr	r3, .L86+24
 1522 0110 53F82230 		ldr	r3, [r3, r2, lsl #2]
 1523 0114 1A46     		mov	r2, r3
 1524 0116 0C21     		movs	r1, #12
 1525 0118 2820     		movs	r0, #40
 1526 011a FFF7FEFF 		bl	dwt_write32bitoffsetreg
 716:Middlewares/Decawave/decadriver/deca_device.c **** 
 717:Middlewares/Decawave/decadriver/deca_device.c ****     // Configure the baseband parameters (for specified PRF, bit rate, PAC, and SFD settings)
 718:Middlewares/Decawave/decadriver/deca_device.c ****     // DTUNE0
 719:Middlewares/Decawave/decadriver/deca_device.c ****     dwt_write16bitoffsetreg(DRX_CONF_ID, DRX_TUNE0b_OFFSET, sftsh[config->dataRate][config->nsSFD])
 1527              		.loc 1 719 73
 1528 011e 7B68     		ldr	r3, [r7, #4]
 1529 0120 DB79     		ldrb	r3, [r3, #7]	@ zero_extendqisi2
 1530 0122 1846     		mov	r0, r3
 1531              		.loc 1 719 91
 1532 0124 7B68     		ldr	r3, [r7, #4]
 1533 0126 9B79     		ldrb	r3, [r3, #6]	@ zero_extendqisi2
 1534 0128 1946     		mov	r1, r3
 1535              		.loc 1 719 5
 1536 012a 654A     		ldr	r2, .L86+28
 1537 012c 4300     		lsls	r3, r0, #1
ARM GAS  /tmp/cc0TY0Fa.s 			page 40


 1538 012e 0B44     		add	r3, r3, r1
 1539 0130 32F81330 		ldrh	r3, [r2, r3, lsl #1]
 1540 0134 1A46     		mov	r2, r3
 1541 0136 0221     		movs	r1, #2
 1542 0138 2720     		movs	r0, #39
 1543 013a FFF7FEFF 		bl	dwt_write16bitoffsetreg
 720:Middlewares/Decawave/decadriver/deca_device.c **** 
 721:Middlewares/Decawave/decadriver/deca_device.c ****     // DTUNE1
 722:Middlewares/Decawave/decadriver/deca_device.c ****     dwt_write16bitoffsetreg(DRX_CONF_ID, DRX_TUNE1a_OFFSET, dtune1[prfIndex]);
 1544              		.loc 1 722 5
 1545 013e BB7C     		ldrb	r3, [r7, #18]	@ zero_extendqisi2
 1546 0140 604A     		ldr	r2, .L86+32
 1547 0142 32F81330 		ldrh	r3, [r2, r3, lsl #1]
 1548 0146 1A46     		mov	r2, r3
 1549 0148 0421     		movs	r1, #4
 1550 014a 2720     		movs	r0, #39
 1551 014c FFF7FEFF 		bl	dwt_write16bitoffsetreg
 723:Middlewares/Decawave/decadriver/deca_device.c **** 
 724:Middlewares/Decawave/decadriver/deca_device.c ****     if(config->dataRate == DWT_BR_110K)
 1552              		.loc 1 724 14
 1553 0150 7B68     		ldr	r3, [r7, #4]
 1554 0152 DB79     		ldrb	r3, [r3, #7]	@ zero_extendqisi2
 1555              		.loc 1 724 7
 1556 0154 002B     		cmp	r3, #0
 1557 0156 05D1     		bne	.L81
 725:Middlewares/Decawave/decadriver/deca_device.c ****     {
 726:Middlewares/Decawave/decadriver/deca_device.c ****         dwt_write16bitoffsetreg(DRX_CONF_ID, DRX_TUNE1b_OFFSET, DRX_TUNE1b_110K);
 1558              		.loc 1 726 9
 1559 0158 6422     		movs	r2, #100
 1560 015a 0621     		movs	r1, #6
 1561 015c 2720     		movs	r0, #39
 1562 015e FFF7FEFF 		bl	dwt_write16bitoffsetreg
 1563 0162 18E0     		b	.L82
 1564              	.L81:
 727:Middlewares/Decawave/decadriver/deca_device.c ****     }
 728:Middlewares/Decawave/decadriver/deca_device.c ****     else
 729:Middlewares/Decawave/decadriver/deca_device.c ****     {
 730:Middlewares/Decawave/decadriver/deca_device.c ****         if(config->txPreambLength == DWT_PLEN_64)
 1565              		.loc 1 730 18
 1566 0164 7B68     		ldr	r3, [r7, #4]
 1567 0166 9B78     		ldrb	r3, [r3, #2]	@ zero_extendqisi2
 1568              		.loc 1 730 11
 1569 0168 042B     		cmp	r3, #4
 1570 016a 0AD1     		bne	.L83
 731:Middlewares/Decawave/decadriver/deca_device.c ****         {
 732:Middlewares/Decawave/decadriver/deca_device.c ****             dwt_write16bitoffsetreg(DRX_CONF_ID, DRX_TUNE1b_OFFSET, DRX_TUNE1b_6M8_PRE64);
 1571              		.loc 1 732 13
 1572 016c 1022     		movs	r2, #16
 1573 016e 0621     		movs	r1, #6
 1574 0170 2720     		movs	r0, #39
 1575 0172 FFF7FEFF 		bl	dwt_write16bitoffsetreg
 733:Middlewares/Decawave/decadriver/deca_device.c ****             dwt_write8bitoffsetreg(DRX_CONF_ID, DRX_TUNE4H_OFFSET, DRX_TUNE4H_PRE64);
 1576              		.loc 1 733 13
 1577 0176 1022     		movs	r2, #16
 1578 0178 2621     		movs	r1, #38
 1579 017a 2720     		movs	r0, #39
 1580 017c FFF7FEFF 		bl	dwt_write8bitoffsetreg
ARM GAS  /tmp/cc0TY0Fa.s 			page 41


 1581 0180 09E0     		b	.L82
 1582              	.L83:
 734:Middlewares/Decawave/decadriver/deca_device.c ****         }
 735:Middlewares/Decawave/decadriver/deca_device.c ****         else
 736:Middlewares/Decawave/decadriver/deca_device.c ****         {
 737:Middlewares/Decawave/decadriver/deca_device.c ****             dwt_write16bitoffsetreg(DRX_CONF_ID, DRX_TUNE1b_OFFSET, DRX_TUNE1b_850K_6M8);
 1583              		.loc 1 737 13
 1584 0182 2022     		movs	r2, #32
 1585 0184 0621     		movs	r1, #6
 1586 0186 2720     		movs	r0, #39
 1587 0188 FFF7FEFF 		bl	dwt_write16bitoffsetreg
 738:Middlewares/Decawave/decadriver/deca_device.c ****             dwt_write8bitoffsetreg(DRX_CONF_ID, DRX_TUNE4H_OFFSET, DRX_TUNE4H_PRE128PLUS);
 1588              		.loc 1 738 13
 1589 018c 2822     		movs	r2, #40
 1590 018e 2621     		movs	r1, #38
 1591 0190 2720     		movs	r0, #39
 1592 0192 FFF7FEFF 		bl	dwt_write8bitoffsetreg
 1593              	.L82:
 739:Middlewares/Decawave/decadriver/deca_device.c ****         }
 740:Middlewares/Decawave/decadriver/deca_device.c ****     }
 741:Middlewares/Decawave/decadriver/deca_device.c **** 
 742:Middlewares/Decawave/decadriver/deca_device.c ****     // DTUNE2
 743:Middlewares/Decawave/decadriver/deca_device.c ****     dwt_write32bitoffsetreg(DRX_CONF_ID, DRX_TUNE2_OFFSET, digital_bb_config[prfIndex][config->rxPA
 1594              		.loc 1 743 5
 1595 0196 BB7C     		ldrb	r3, [r7, #18]	@ zero_extendqisi2
 1596              		.loc 1 743 94
 1597 0198 7A68     		ldr	r2, [r7, #4]
 1598 019a D278     		ldrb	r2, [r2, #3]	@ zero_extendqisi2
 1599 019c 1146     		mov	r1, r2
 1600              		.loc 1 743 5
 1601 019e 4A4A     		ldr	r2, .L86+36
 1602 01a0 9B00     		lsls	r3, r3, #2
 1603 01a2 0B44     		add	r3, r3, r1
 1604 01a4 52F82330 		ldr	r3, [r2, r3, lsl #2]
 1605 01a8 1A46     		mov	r2, r3
 1606 01aa 0821     		movs	r1, #8
 1607 01ac 2720     		movs	r0, #39
 1608 01ae FFF7FEFF 		bl	dwt_write32bitoffsetreg
 744:Middlewares/Decawave/decadriver/deca_device.c **** 
 745:Middlewares/Decawave/decadriver/deca_device.c ****     // DTUNE3 (SFD timeout)
 746:Middlewares/Decawave/decadriver/deca_device.c ****     // Don't allow 0 - SFD timeout will always be enabled
 747:Middlewares/Decawave/decadriver/deca_device.c ****     if(config->sfdTO == 0)
 1609              		.loc 1 747 14
 1610 01b2 7B68     		ldr	r3, [r7, #4]
 1611 01b4 5B89     		ldrh	r3, [r3, #10]
 1612              		.loc 1 747 7
 1613 01b6 002B     		cmp	r3, #0
 1614 01b8 03D1     		bne	.L84
 748:Middlewares/Decawave/decadriver/deca_device.c ****     {
 749:Middlewares/Decawave/decadriver/deca_device.c ****         config->sfdTO = DWT_SFDTOC_DEF;
 1615              		.loc 1 749 23
 1616 01ba 7B68     		ldr	r3, [r7, #4]
 1617 01bc 41F24102 		movw	r2, #4161
 1618 01c0 5A81     		strh	r2, [r3, #10]	@ movhi
 1619              	.L84:
 750:Middlewares/Decawave/decadriver/deca_device.c ****     }
 751:Middlewares/Decawave/decadriver/deca_device.c ****     dwt_write16bitoffsetreg(DRX_CONF_ID, DRX_SFDTOC_OFFSET, config->sfdTO);
ARM GAS  /tmp/cc0TY0Fa.s 			page 42


 1620              		.loc 1 751 5
 1621 01c2 7B68     		ldr	r3, [r7, #4]
 1622 01c4 5B89     		ldrh	r3, [r3, #10]
 1623 01c6 1A46     		mov	r2, r3
 1624 01c8 2021     		movs	r1, #32
 1625 01ca 2720     		movs	r0, #39
 1626 01cc FFF7FEFF 		bl	dwt_write16bitoffsetreg
 752:Middlewares/Decawave/decadriver/deca_device.c **** 
 753:Middlewares/Decawave/decadriver/deca_device.c ****     // Configure AGC parameters
 754:Middlewares/Decawave/decadriver/deca_device.c ****     dwt_write32bitoffsetreg( AGC_CFG_STS_ID, 0xC, agc_config.lo32);
 1627              		.loc 1 754 5
 1628 01d0 3E4B     		ldr	r3, .L86+40
 1629 01d2 1B68     		ldr	r3, [r3]
 1630 01d4 1A46     		mov	r2, r3
 1631 01d6 0C21     		movs	r1, #12
 1632 01d8 2320     		movs	r0, #35
 1633 01da FFF7FEFF 		bl	dwt_write32bitoffsetreg
 755:Middlewares/Decawave/decadriver/deca_device.c ****     dwt_write16bitoffsetreg( AGC_CFG_STS_ID, 0x4, agc_config.target[prfIndex]);
 1634              		.loc 1 755 5
 1635 01de BB7C     		ldrb	r3, [r7, #18]	@ zero_extendqisi2
 1636 01e0 3A4A     		ldr	r2, .L86+40
 1637 01e2 5B00     		lsls	r3, r3, #1
 1638 01e4 1344     		add	r3, r3, r2
 1639 01e6 9B88     		ldrh	r3, [r3, #4]
 1640 01e8 1A46     		mov	r2, r3
 1641 01ea 0421     		movs	r1, #4
 1642 01ec 2320     		movs	r0, #35
 1643 01ee FFF7FEFF 		bl	dwt_write16bitoffsetreg
 756:Middlewares/Decawave/decadriver/deca_device.c **** 
 757:Middlewares/Decawave/decadriver/deca_device.c ****     // Set (non-standard) user SFD for improved performance,
 758:Middlewares/Decawave/decadriver/deca_device.c ****     if(config->nsSFD)
 1644              		.loc 1 758 14
 1645 01f2 7B68     		ldr	r3, [r7, #4]
 1646 01f4 9B79     		ldrb	r3, [r3, #6]	@ zero_extendqisi2
 1647              		.loc 1 758 7
 1648 01f6 002B     		cmp	r3, #0
 1649 01f8 0DD0     		beq	.L85
 759:Middlewares/Decawave/decadriver/deca_device.c ****     {
 760:Middlewares/Decawave/decadriver/deca_device.c ****         // Write non standard (DW) SFD length
 761:Middlewares/Decawave/decadriver/deca_device.c ****         dwt_write8bitoffsetreg(USR_SFD_ID, 0x00, dwnsSFDlen[config->dataRate]);
 1650              		.loc 1 761 67
 1651 01fa 7B68     		ldr	r3, [r7, #4]
 1652 01fc DB79     		ldrb	r3, [r3, #7]	@ zero_extendqisi2
 1653 01fe 1A46     		mov	r2, r3
 1654              		.loc 1 761 9
 1655 0200 334B     		ldr	r3, .L86+44
 1656 0202 9B5C     		ldrb	r3, [r3, r2]	@ zero_extendqisi2
 1657 0204 1A46     		mov	r2, r3
 1658 0206 0021     		movs	r1, #0
 1659 0208 2120     		movs	r0, #33
 1660 020a FFF7FEFF 		bl	dwt_write8bitoffsetreg
 762:Middlewares/Decawave/decadriver/deca_device.c ****         nsSfd_result = 3 ;
 1661              		.loc 1 762 22
 1662 020e 0323     		movs	r3, #3
 1663 0210 FB75     		strb	r3, [r7, #23]
 763:Middlewares/Decawave/decadriver/deca_device.c ****         useDWnsSFD = 1 ;
 1664              		.loc 1 763 20
ARM GAS  /tmp/cc0TY0Fa.s 			page 43


 1665 0212 0123     		movs	r3, #1
 1666 0214 BB75     		strb	r3, [r7, #22]
 1667              	.L85:
 764:Middlewares/Decawave/decadriver/deca_device.c ****     }
 765:Middlewares/Decawave/decadriver/deca_device.c ****     regval =  (CHAN_CTRL_TX_CHAN_MASK & (chan << CHAN_CTRL_TX_CHAN_SHIFT)) | // Transmit Channel
 1668              		.loc 1 765 47
 1669 0216 FB7C     		ldrb	r3, [r7, #19]	@ zero_extendqisi2
 1670              		.loc 1 765 39
 1671 0218 03F00F02 		and	r2, r3, #15
 766:Middlewares/Decawave/decadriver/deca_device.c ****               (CHAN_CTRL_RX_CHAN_MASK & (chan << CHAN_CTRL_RX_CHAN_SHIFT)) | // Receive Channel
 1672              		.loc 1 766 47
 1673 021c FB7C     		ldrb	r3, [r7, #19]	@ zero_extendqisi2
 1674 021e 1B01     		lsls	r3, r3, #4
 1675              		.loc 1 766 39
 1676 0220 DBB2     		uxtb	r3, r3
 765:Middlewares/Decawave/decadriver/deca_device.c ****               (CHAN_CTRL_RX_CHAN_MASK & (chan << CHAN_CTRL_RX_CHAN_SHIFT)) | // Receive Channel
 1677              		.loc 1 765 76
 1678 0222 1A43     		orrs	r2, r2, r3
 767:Middlewares/Decawave/decadriver/deca_device.c ****               (CHAN_CTRL_RXFPRF_MASK & ((uint32)config->prf << CHAN_CTRL_RXFPRF_SHIFT)) | // RX PRF
 1679              		.loc 1 767 55
 1680 0224 7B68     		ldr	r3, [r7, #4]
 1681 0226 5B78     		ldrb	r3, [r3, #1]	@ zero_extendqisi2
 1682              		.loc 1 767 61
 1683 0228 9B04     		lsls	r3, r3, #18
 1684              		.loc 1 767 38
 1685 022a 03F44023 		and	r3, r3, #786432
 766:Middlewares/Decawave/decadriver/deca_device.c ****               (CHAN_CTRL_RX_CHAN_MASK & (chan << CHAN_CTRL_RX_CHAN_SHIFT)) | // Receive Channel
 1686              		.loc 1 766 76
 1687 022e 1A43     		orrs	r2, r2, r3
 768:Middlewares/Decawave/decadriver/deca_device.c ****               ((CHAN_CTRL_TNSSFD|CHAN_CTRL_RNSSFD) & ((uint32)nsSfd_result << CHAN_CTRL_TNSSFD_SHIF
 1688              		.loc 1 768 55
 1689 0230 FB7D     		ldrb	r3, [r7, #23]	@ zero_extendqisi2
 1690              		.loc 1 768 76
 1691 0232 1B05     		lsls	r3, r3, #20
 1692              		.loc 1 768 52
 1693 0234 03F44013 		and	r3, r3, #3145728
 767:Middlewares/Decawave/decadriver/deca_device.c ****               (CHAN_CTRL_RXFPRF_MASK & ((uint32)config->prf << CHAN_CTRL_RXFPRF_SHIFT)) | // RX PRF
 1694              		.loc 1 767 89
 1695 0238 1A43     		orrs	r2, r2, r3
 769:Middlewares/Decawave/decadriver/deca_device.c ****               (CHAN_CTRL_DWSFD & ((uint32)useDWnsSFD << CHAN_CTRL_DWSFD_SHIFT)) | // Use DW nsSFD
 1696              		.loc 1 769 35
 1697 023a BB7D     		ldrb	r3, [r7, #22]	@ zero_extendqisi2
 1698              		.loc 1 769 54
 1699 023c 5B04     		lsls	r3, r3, #17
 1700              		.loc 1 769 32
 1701 023e 03F40033 		and	r3, r3, #131072
 768:Middlewares/Decawave/decadriver/deca_device.c ****               ((CHAN_CTRL_TNSSFD|CHAN_CTRL_RNSSFD) & ((uint32)nsSfd_result << CHAN_CTRL_TNSSFD_SHIF
 1702              		.loc 1 768 104
 1703 0242 1A43     		orrs	r2, r2, r3
 770:Middlewares/Decawave/decadriver/deca_device.c ****               (CHAN_CTRL_TX_PCOD_MASK & ((uint32)config->txCode << CHAN_CTRL_TX_PCOD_SHIFT)) | // T
 1704              		.loc 1 770 56
 1705 0244 7B68     		ldr	r3, [r7, #4]
 1706 0246 1B79     		ldrb	r3, [r3, #4]	@ zero_extendqisi2
 1707              		.loc 1 770 65
 1708 0248 9B05     		lsls	r3, r3, #22
 1709              		.loc 1 770 39
 1710 024a 03F0F863 		and	r3, r3, #130023424
ARM GAS  /tmp/cc0TY0Fa.s 			page 44


 769:Middlewares/Decawave/decadriver/deca_device.c ****               (CHAN_CTRL_DWSFD & ((uint32)useDWnsSFD << CHAN_CTRL_DWSFD_SHIFT)) | // Use DW nsSFD
 1711              		.loc 1 769 81
 1712 024e 1A43     		orrs	r2, r2, r3
 771:Middlewares/Decawave/decadriver/deca_device.c ****               (CHAN_CTRL_RX_PCOD_MASK & ((uint32)config->rxCode << CHAN_CTRL_RX_PCOD_SHIFT)) ; // R
 1713              		.loc 1 771 56
 1714 0250 7B68     		ldr	r3, [r7, #4]
 1715 0252 5B79     		ldrb	r3, [r3, #5]	@ zero_extendqisi2
 1716              		.loc 1 771 39
 1717 0254 DB06     		lsls	r3, r3, #27
 765:Middlewares/Decawave/decadriver/deca_device.c ****               (CHAN_CTRL_RX_CHAN_MASK & (chan << CHAN_CTRL_RX_CHAN_SHIFT)) | // Receive Channel
 1718              		.loc 1 765 12
 1719 0256 1343     		orrs	r3, r3, r2
 1720 0258 FB60     		str	r3, [r7, #12]
 772:Middlewares/Decawave/decadriver/deca_device.c **** 
 773:Middlewares/Decawave/decadriver/deca_device.c ****     dwt_write32bitreg(CHAN_CTRL_ID,regval) ;
 1721              		.loc 1 773 5
 1722 025a FA68     		ldr	r2, [r7, #12]
 1723 025c 0021     		movs	r1, #0
 1724 025e 1F20     		movs	r0, #31
 1725 0260 FFF7FEFF 		bl	dwt_write32bitoffsetreg
 774:Middlewares/Decawave/decadriver/deca_device.c **** 
 775:Middlewares/Decawave/decadriver/deca_device.c ****     // Set up TX Preamble Size, PRF and Data Rate
 776:Middlewares/Decawave/decadriver/deca_device.c ****     pdw1000local->txFCTRL = ((uint32)(config->txPreambLength | config->prf) << TX_FCTRL_TXPRF_SHFT)
 1726              		.loc 1 776 45
 1727 0264 7B68     		ldr	r3, [r7, #4]
 1728 0266 9A78     		ldrb	r2, [r3, #2]	@ zero_extendqisi2
 1729              		.loc 1 776 70
 1730 0268 7B68     		ldr	r3, [r7, #4]
 1731 026a 5B78     		ldrb	r3, [r3, #1]	@ zero_extendqisi2
 1732              		.loc 1 776 30
 1733 026c 1343     		orrs	r3, r3, r2
 1734 026e DBB2     		uxtb	r3, r3
 1735              		.loc 1 776 77
 1736 0270 1904     		lsls	r1, r3, #16
 1737              		.loc 1 776 118
 1738 0272 7B68     		ldr	r3, [r7, #4]
 1739 0274 DB79     		ldrb	r3, [r3, #7]	@ zero_extendqisi2
 1740              		.loc 1 776 129
 1741 0276 5A03     		lsls	r2, r3, #13
 1742              		.loc 1 776 17
 1743 0278 0B4B     		ldr	r3, .L86+4
 1744 027a 1B68     		ldr	r3, [r3]
 1745              		.loc 1 776 101
 1746 027c 0A43     		orrs	r2, r2, r1
 1747              		.loc 1 776 27
 1748 027e DA60     		str	r2, [r3, #12]
 777:Middlewares/Decawave/decadriver/deca_device.c ****     dwt_write32bitreg(TX_FCTRL_ID, pdw1000local->txFCTRL);
 1749              		.loc 1 777 5
 1750 0280 094B     		ldr	r3, .L86+4
 1751 0282 1B68     		ldr	r3, [r3]
 1752 0284 DB68     		ldr	r3, [r3, #12]
 1753 0286 1A46     		mov	r2, r3
 1754 0288 0021     		movs	r1, #0
 1755 028a 0820     		movs	r0, #8
 1756 028c FFF7FEFF 		bl	dwt_write32bitoffsetreg
 778:Middlewares/Decawave/decadriver/deca_device.c **** 
 779:Middlewares/Decawave/decadriver/deca_device.c ****     // The SFD transmit pattern is initialised by the DW1000 upon a user TX request, but (due to an
ARM GAS  /tmp/cc0TY0Fa.s 			page 45


 780:Middlewares/Decawave/decadriver/deca_device.c ****     // SYS_CTRL write below works around this issue, by simultaneously initiating and aborting a tr
 781:Middlewares/Decawave/decadriver/deca_device.c ****     // after its configuration or reconfiguration.
 782:Middlewares/Decawave/decadriver/deca_device.c ****     // This issue is not documented at the time of writing this code. It should be in next release 
 783:Middlewares/Decawave/decadriver/deca_device.c ****     dwt_write8bitoffsetreg(SYS_CTRL_ID, SYS_CTRL_OFFSET, SYS_CTRL_TXSTRT | SYS_CTRL_TRXOFF); // Req
 1757              		.loc 1 783 5
 1758 0290 4222     		movs	r2, #66
 1759 0292 0021     		movs	r1, #0
 1760 0294 0D20     		movs	r0, #13
 1761 0296 FFF7FEFF 		bl	dwt_write8bitoffsetreg
 784:Middlewares/Decawave/decadriver/deca_device.c **** } // end dwt_configure()
 1762              		.loc 1 784 1
 1763 029a 00BF     		nop
 1764 029c 1837     		adds	r7, r7, #24
 1765              	.LCFI80:
 1766              		.cfi_def_cfa_offset 8
 1767 029e BD46     		mov	sp, r7
 1768              	.LCFI81:
 1769              		.cfi_def_cfa_register 13
 1770              		@ sp needed
 1771 02a0 80BD     		pop	{r7, pc}
 1772              	.L87:
 1773 02a2 00BF     		.align	2
 1774              	.L86:
 1775 02a4 00000000 		.word	lde_replicaCoeff
 1776 02a8 00000000 		.word	pdw1000local
 1777 02ac 00000000 		.word	chan_idx
 1778 02b0 00000000 		.word	fs_pll_cfg
 1779 02b4 00000000 		.word	fs_pll_tune
 1780 02b8 00000000 		.word	rx_config
 1781 02bc 00000000 		.word	tx_config
 1782 02c0 00000000 		.word	sftsh
 1783 02c4 00000000 		.word	dtune1
 1784 02c8 00000000 		.word	digital_bb_config
 1785 02cc 00000000 		.word	agc_config
 1786 02d0 00000000 		.word	dwnsSFDlen
 1787              		.cfi_endproc
 1788              	.LFE17:
 1790              		.section	.text.dwt_setrxantennadelay,"ax",%progbits
 1791              		.align	1
 1792              		.global	dwt_setrxantennadelay
 1793              		.syntax unified
 1794              		.thumb
 1795              		.thumb_func
 1796              		.fpu fpv4-sp-d16
 1798              	dwt_setrxantennadelay:
 1799              	.LFB18:
 785:Middlewares/Decawave/decadriver/deca_device.c **** 
 786:Middlewares/Decawave/decadriver/deca_device.c **** /*! -----------------------------------------------------------------------------------------------
 787:Middlewares/Decawave/decadriver/deca_device.c ****  * @fn dwt_setrxantennadelay()
 788:Middlewares/Decawave/decadriver/deca_device.c ****  *
 789:Middlewares/Decawave/decadriver/deca_device.c ****  * @brief This API function writes the antenna delay (in time units) to RX registers
 790:Middlewares/Decawave/decadriver/deca_device.c ****  *
 791:Middlewares/Decawave/decadriver/deca_device.c ****  * input parameters:
 792:Middlewares/Decawave/decadriver/deca_device.c ****  * @param rxDelay - this is the total (RX) antenna delay value, which
 793:Middlewares/Decawave/decadriver/deca_device.c ****  *                          will be programmed into the RX register
 794:Middlewares/Decawave/decadriver/deca_device.c ****  *
 795:Middlewares/Decawave/decadriver/deca_device.c ****  * output parameters
ARM GAS  /tmp/cc0TY0Fa.s 			page 46


 796:Middlewares/Decawave/decadriver/deca_device.c ****  *
 797:Middlewares/Decawave/decadriver/deca_device.c ****  * no return value
 798:Middlewares/Decawave/decadriver/deca_device.c ****  */
 799:Middlewares/Decawave/decadriver/deca_device.c **** void dwt_setrxantennadelay(uint16 rxDelay)
 800:Middlewares/Decawave/decadriver/deca_device.c **** {
 1800              		.loc 1 800 1
 1801              		.cfi_startproc
 1802              		@ args = 0, pretend = 0, frame = 8
 1803              		@ frame_needed = 1, uses_anonymous_args = 0
 1804 0000 80B5     		push	{r7, lr}
 1805              	.LCFI82:
 1806              		.cfi_def_cfa_offset 8
 1807              		.cfi_offset 7, -8
 1808              		.cfi_offset 14, -4
 1809 0002 82B0     		sub	sp, sp, #8
 1810              	.LCFI83:
 1811              		.cfi_def_cfa_offset 16
 1812 0004 00AF     		add	r7, sp, #0
 1813              	.LCFI84:
 1814              		.cfi_def_cfa_register 7
 1815 0006 0346     		mov	r3, r0
 1816 0008 FB80     		strh	r3, [r7, #6]	@ movhi
 801:Middlewares/Decawave/decadriver/deca_device.c ****     // Set the RX antenna delay for auto TX timestamp adjustment
 802:Middlewares/Decawave/decadriver/deca_device.c ****     dwt_write16bitoffsetreg(LDE_IF_ID, LDE_RXANTD_OFFSET, rxDelay);
 1817              		.loc 1 802 5
 1818 000a FB88     		ldrh	r3, [r7, #6]
 1819 000c 1A46     		mov	r2, r3
 1820 000e 41F60401 		movw	r1, #6148
 1821 0012 2E20     		movs	r0, #46
 1822 0014 FFF7FEFF 		bl	dwt_write16bitoffsetreg
 803:Middlewares/Decawave/decadriver/deca_device.c **** }
 1823              		.loc 1 803 1
 1824 0018 00BF     		nop
 1825 001a 0837     		adds	r7, r7, #8
 1826              	.LCFI85:
 1827              		.cfi_def_cfa_offset 8
 1828 001c BD46     		mov	sp, r7
 1829              	.LCFI86:
 1830              		.cfi_def_cfa_register 13
 1831              		@ sp needed
 1832 001e 80BD     		pop	{r7, pc}
 1833              		.cfi_endproc
 1834              	.LFE18:
 1836              		.section	.text.dwt_settxantennadelay,"ax",%progbits
 1837              		.align	1
 1838              		.global	dwt_settxantennadelay
 1839              		.syntax unified
 1840              		.thumb
 1841              		.thumb_func
 1842              		.fpu fpv4-sp-d16
 1844              	dwt_settxantennadelay:
 1845              	.LFB19:
 804:Middlewares/Decawave/decadriver/deca_device.c **** 
 805:Middlewares/Decawave/decadriver/deca_device.c **** /*! -----------------------------------------------------------------------------------------------
 806:Middlewares/Decawave/decadriver/deca_device.c ****  * @fn dwt_settxantennadelay()
 807:Middlewares/Decawave/decadriver/deca_device.c ****  *
 808:Middlewares/Decawave/decadriver/deca_device.c ****  * @brief This API function writes the antenna delay (in time units) to TX registers
ARM GAS  /tmp/cc0TY0Fa.s 			page 47


 809:Middlewares/Decawave/decadriver/deca_device.c ****  *
 810:Middlewares/Decawave/decadriver/deca_device.c ****  * input parameters:
 811:Middlewares/Decawave/decadriver/deca_device.c ****  * @param txDelay - this is the total (TX) antenna delay value, which
 812:Middlewares/Decawave/decadriver/deca_device.c ****  *                          will be programmed into the TX delay register
 813:Middlewares/Decawave/decadriver/deca_device.c ****  *
 814:Middlewares/Decawave/decadriver/deca_device.c ****  * output parameters
 815:Middlewares/Decawave/decadriver/deca_device.c ****  *
 816:Middlewares/Decawave/decadriver/deca_device.c ****  * no return value
 817:Middlewares/Decawave/decadriver/deca_device.c ****  */
 818:Middlewares/Decawave/decadriver/deca_device.c **** void dwt_settxantennadelay(uint16 txDelay)
 819:Middlewares/Decawave/decadriver/deca_device.c **** {
 1846              		.loc 1 819 1
 1847              		.cfi_startproc
 1848              		@ args = 0, pretend = 0, frame = 8
 1849              		@ frame_needed = 1, uses_anonymous_args = 0
 1850 0000 80B5     		push	{r7, lr}
 1851              	.LCFI87:
 1852              		.cfi_def_cfa_offset 8
 1853              		.cfi_offset 7, -8
 1854              		.cfi_offset 14, -4
 1855 0002 82B0     		sub	sp, sp, #8
 1856              	.LCFI88:
 1857              		.cfi_def_cfa_offset 16
 1858 0004 00AF     		add	r7, sp, #0
 1859              	.LCFI89:
 1860              		.cfi_def_cfa_register 7
 1861 0006 0346     		mov	r3, r0
 1862 0008 FB80     		strh	r3, [r7, #6]	@ movhi
 820:Middlewares/Decawave/decadriver/deca_device.c ****     // Set the TX antenna delay for auto TX timestamp adjustment
 821:Middlewares/Decawave/decadriver/deca_device.c ****     dwt_write16bitoffsetreg(TX_ANTD_ID, TX_ANTD_OFFSET, txDelay);
 1863              		.loc 1 821 5
 1864 000a FB88     		ldrh	r3, [r7, #6]
 1865 000c 1A46     		mov	r2, r3
 1866 000e 0021     		movs	r1, #0
 1867 0010 1820     		movs	r0, #24
 1868 0012 FFF7FEFF 		bl	dwt_write16bitoffsetreg
 822:Middlewares/Decawave/decadriver/deca_device.c **** }
 1869              		.loc 1 822 1
 1870 0016 00BF     		nop
 1871 0018 0837     		adds	r7, r7, #8
 1872              	.LCFI90:
 1873              		.cfi_def_cfa_offset 8
 1874 001a BD46     		mov	sp, r7
 1875              	.LCFI91:
 1876              		.cfi_def_cfa_register 13
 1877              		@ sp needed
 1878 001c 80BD     		pop	{r7, pc}
 1879              		.cfi_endproc
 1880              	.LFE19:
 1882              		.section	.text.dwt_writetxdata,"ax",%progbits
 1883              		.align	1
 1884              		.global	dwt_writetxdata
 1885              		.syntax unified
 1886              		.thumb
 1887              		.thumb_func
 1888              		.fpu fpv4-sp-d16
 1890              	dwt_writetxdata:
ARM GAS  /tmp/cc0TY0Fa.s 			page 48


 1891              	.LFB20:
 823:Middlewares/Decawave/decadriver/deca_device.c **** 
 824:Middlewares/Decawave/decadriver/deca_device.c **** /*! -----------------------------------------------------------------------------------------------
 825:Middlewares/Decawave/decadriver/deca_device.c ****  * @fn dwt_writetxdata()
 826:Middlewares/Decawave/decadriver/deca_device.c ****  *
 827:Middlewares/Decawave/decadriver/deca_device.c ****  * @brief This API function writes the supplied TX data into the DW1000's
 828:Middlewares/Decawave/decadriver/deca_device.c ****  * TX buffer.  The input parameters are the data length in bytes and a pointer
 829:Middlewares/Decawave/decadriver/deca_device.c ****  * to those data bytes.
 830:Middlewares/Decawave/decadriver/deca_device.c ****  *
 831:Middlewares/Decawave/decadriver/deca_device.c ****  * input parameters
 832:Middlewares/Decawave/decadriver/deca_device.c ****  * @param txFrameLength  - This is the total frame length, including the two byte CRC.
 833:Middlewares/Decawave/decadriver/deca_device.c ****  *                         Note: this is the length of TX message (including the 2 byte CRC) - max 
 834:Middlewares/Decawave/decadriver/deca_device.c ****  *                         standard PHR mode allows up to 127 bytes
 835:Middlewares/Decawave/decadriver/deca_device.c ****  *                         if > 127 is programmed, DWT_PHRMODE_EXT needs to be set in the phrMode c
 836:Middlewares/Decawave/decadriver/deca_device.c ****  *                         see dwt_configure function
 837:Middlewares/Decawave/decadriver/deca_device.c ****  * @param txFrameBytes   - Pointer to the users buffer containing the data to send.
 838:Middlewares/Decawave/decadriver/deca_device.c ****  * @param txBufferOffset - This specifies an offset in the DW1000s TX Buffer at which to start w
 839:Middlewares/Decawave/decadriver/deca_device.c ****  *
 840:Middlewares/Decawave/decadriver/deca_device.c ****  * output parameters
 841:Middlewares/Decawave/decadriver/deca_device.c ****  *
 842:Middlewares/Decawave/decadriver/deca_device.c ****  * returns DWT_SUCCESS for success, or DWT_ERROR for error
 843:Middlewares/Decawave/decadriver/deca_device.c ****  */
 844:Middlewares/Decawave/decadriver/deca_device.c **** int dwt_writetxdata(uint16 txFrameLength, uint8 *txFrameBytes, uint16 txBufferOffset)
 845:Middlewares/Decawave/decadriver/deca_device.c **** {
 1892              		.loc 1 845 1
 1893              		.cfi_startproc
 1894              		@ args = 0, pretend = 0, frame = 8
 1895              		@ frame_needed = 1, uses_anonymous_args = 0
 1896 0000 80B5     		push	{r7, lr}
 1897              	.LCFI92:
 1898              		.cfi_def_cfa_offset 8
 1899              		.cfi_offset 7, -8
 1900              		.cfi_offset 14, -4
 1901 0002 82B0     		sub	sp, sp, #8
 1902              	.LCFI93:
 1903              		.cfi_def_cfa_offset 16
 1904 0004 00AF     		add	r7, sp, #0
 1905              	.LCFI94:
 1906              		.cfi_def_cfa_register 7
 1907 0006 0346     		mov	r3, r0
 1908 0008 3960     		str	r1, [r7]
 1909 000a FB80     		strh	r3, [r7, #6]	@ movhi
 1910 000c 1346     		mov	r3, r2	@ movhi
 1911 000e BB80     		strh	r3, [r7, #4]	@ movhi
 846:Middlewares/Decawave/decadriver/deca_device.c **** #ifdef DWT_API_ERROR_CHECK
 847:Middlewares/Decawave/decadriver/deca_device.c ****     assert(txFrameLength >= 2);
 848:Middlewares/Decawave/decadriver/deca_device.c ****     assert((pdw1000local->longFrames && (txFrameLength <= 1023)) || (txFrameLength <= 127));
 849:Middlewares/Decawave/decadriver/deca_device.c ****     assert((txBufferOffset + txFrameLength) <= 1024);
 850:Middlewares/Decawave/decadriver/deca_device.c **** #endif
 851:Middlewares/Decawave/decadriver/deca_device.c **** 
 852:Middlewares/Decawave/decadriver/deca_device.c ****     if ((txBufferOffset + txFrameLength) <= 1024)
 1912              		.loc 1 852 25
 1913 0010 BA88     		ldrh	r2, [r7, #4]
 1914 0012 FB88     		ldrh	r3, [r7, #6]
 1915 0014 1344     		add	r3, r3, r2
 1916              		.loc 1 852 8
 1917 0016 B3F5806F 		cmp	r3, #1024
ARM GAS  /tmp/cc0TY0Fa.s 			page 49


 1918 001a 09DC     		bgt	.L91
 853:Middlewares/Decawave/decadriver/deca_device.c ****     {
 854:Middlewares/Decawave/decadriver/deca_device.c ****         // Write the data to the IC TX buffer, (-2 bytes for auto generated CRC)
 855:Middlewares/Decawave/decadriver/deca_device.c ****         dwt_writetodevice( TX_BUFFER_ID, txBufferOffset, txFrameLength-2, txFrameBytes);
 1919              		.loc 1 855 71
 1920 001c FB88     		ldrh	r3, [r7, #6]
 1921 001e 023B     		subs	r3, r3, #2
 1922              		.loc 1 855 9
 1923 0020 1A46     		mov	r2, r3
 1924 0022 B988     		ldrh	r1, [r7, #4]
 1925 0024 3B68     		ldr	r3, [r7]
 1926 0026 0920     		movs	r0, #9
 1927 0028 FFF7FEFF 		bl	dwt_writetodevice
 856:Middlewares/Decawave/decadriver/deca_device.c ****         return DWT_SUCCESS;
 1928              		.loc 1 856 16
 1929 002c 0023     		movs	r3, #0
 1930 002e 01E0     		b	.L92
 1931              	.L91:
 857:Middlewares/Decawave/decadriver/deca_device.c ****     }
 858:Middlewares/Decawave/decadriver/deca_device.c ****     else
 859:Middlewares/Decawave/decadriver/deca_device.c ****     {
 860:Middlewares/Decawave/decadriver/deca_device.c ****         return DWT_ERROR;
 1932              		.loc 1 860 16
 1933 0030 4FF0FF33 		mov	r3, #-1
 1934              	.L92:
 861:Middlewares/Decawave/decadriver/deca_device.c ****     }
 862:Middlewares/Decawave/decadriver/deca_device.c **** } // end dwt_writetxdata()
 1935              		.loc 1 862 1
 1936 0034 1846     		mov	r0, r3
 1937 0036 0837     		adds	r7, r7, #8
 1938              	.LCFI95:
 1939              		.cfi_def_cfa_offset 8
 1940 0038 BD46     		mov	sp, r7
 1941              	.LCFI96:
 1942              		.cfi_def_cfa_register 13
 1943              		@ sp needed
 1944 003a 80BD     		pop	{r7, pc}
 1945              		.cfi_endproc
 1946              	.LFE20:
 1948              		.section	.text.dwt_writetxfctrl,"ax",%progbits
 1949              		.align	1
 1950              		.global	dwt_writetxfctrl
 1951              		.syntax unified
 1952              		.thumb
 1953              		.thumb_func
 1954              		.fpu fpv4-sp-d16
 1956              	dwt_writetxfctrl:
 1957              	.LFB21:
 863:Middlewares/Decawave/decadriver/deca_device.c **** 
 864:Middlewares/Decawave/decadriver/deca_device.c **** /*! -----------------------------------------------------------------------------------------------
 865:Middlewares/Decawave/decadriver/deca_device.c ****  * @fn dwt_writetxfctrl()
 866:Middlewares/Decawave/decadriver/deca_device.c ****  *
 867:Middlewares/Decawave/decadriver/deca_device.c ****  * @brief This API function configures the TX frame control register before the transmission of a f
 868:Middlewares/Decawave/decadriver/deca_device.c ****  *
 869:Middlewares/Decawave/decadriver/deca_device.c ****  * input parameters:
 870:Middlewares/Decawave/decadriver/deca_device.c ****  * @param txFrameLength - this is the length of TX message (including the 2 byte CRC) - max is 1023
 871:Middlewares/Decawave/decadriver/deca_device.c ****  *                              NOTE: standard PHR mode allows up to 127 bytes
ARM GAS  /tmp/cc0TY0Fa.s 			page 50


 872:Middlewares/Decawave/decadriver/deca_device.c ****  *                              if > 127 is programmed, DWT_PHRMODE_EXT needs to be set in the phrM
 873:Middlewares/Decawave/decadriver/deca_device.c ****  *                              see dwt_configure function
 874:Middlewares/Decawave/decadriver/deca_device.c ****  * @param txBufferOffset - the offset in the tx buffer to start writing the data
 875:Middlewares/Decawave/decadriver/deca_device.c ****  * @param ranging - 1 if this is a ranging frame, else 0
 876:Middlewares/Decawave/decadriver/deca_device.c ****  *
 877:Middlewares/Decawave/decadriver/deca_device.c ****  * output parameters
 878:Middlewares/Decawave/decadriver/deca_device.c ****  *
 879:Middlewares/Decawave/decadriver/deca_device.c ****  * no return value
 880:Middlewares/Decawave/decadriver/deca_device.c ****  */
 881:Middlewares/Decawave/decadriver/deca_device.c **** void dwt_writetxfctrl(uint16 txFrameLength, uint16 txBufferOffset, int ranging)
 882:Middlewares/Decawave/decadriver/deca_device.c **** {
 1958              		.loc 1 882 1
 1959              		.cfi_startproc
 1960              		@ args = 0, pretend = 0, frame = 16
 1961              		@ frame_needed = 1, uses_anonymous_args = 0
 1962 0000 80B5     		push	{r7, lr}
 1963              	.LCFI97:
 1964              		.cfi_def_cfa_offset 8
 1965              		.cfi_offset 7, -8
 1966              		.cfi_offset 14, -4
 1967 0002 84B0     		sub	sp, sp, #16
 1968              	.LCFI98:
 1969              		.cfi_def_cfa_offset 24
 1970 0004 00AF     		add	r7, sp, #0
 1971              	.LCFI99:
 1972              		.cfi_def_cfa_register 7
 1973 0006 0346     		mov	r3, r0
 1974 0008 3A60     		str	r2, [r7]
 1975 000a FB80     		strh	r3, [r7, #6]	@ movhi
 1976 000c 0B46     		mov	r3, r1	@ movhi
 1977 000e BB80     		strh	r3, [r7, #4]	@ movhi
 883:Middlewares/Decawave/decadriver/deca_device.c **** 
 884:Middlewares/Decawave/decadriver/deca_device.c **** #ifdef DWT_API_ERROR_CHECK
 885:Middlewares/Decawave/decadriver/deca_device.c ****     assert((pdw1000local->longFrames && (txFrameLength <= 1023)) || (txFrameLength <= 127));
 886:Middlewares/Decawave/decadriver/deca_device.c ****     assert((txBufferOffset + txFrameLength) <= 1024);
 887:Middlewares/Decawave/decadriver/deca_device.c ****     assert((ranging == 0) || (ranging == 1))
 888:Middlewares/Decawave/decadriver/deca_device.c **** #endif
 889:Middlewares/Decawave/decadriver/deca_device.c **** 
 890:Middlewares/Decawave/decadriver/deca_device.c ****     // Write the frame length to the TX frame control register
 891:Middlewares/Decawave/decadriver/deca_device.c ****     // pdw1000local->txFCTRL has kept configured bit rate information
 892:Middlewares/Decawave/decadriver/deca_device.c ****     uint32 reg32 = pdw1000local->txFCTRL | txFrameLength | ((uint32)txBufferOffset << TX_FCTRL_TXBO
 1978              		.loc 1 892 32
 1979 0010 0A4B     		ldr	r3, .L94
 1980 0012 1B68     		ldr	r3, [r3]
 1981 0014 DA68     		ldr	r2, [r3, #12]
 1982              		.loc 1 892 42
 1983 0016 FB88     		ldrh	r3, [r7, #6]
 1984 0018 1A43     		orrs	r2, r2, r3
 1985              		.loc 1 892 61
 1986 001a BB88     		ldrh	r3, [r7, #4]
 1987              		.loc 1 892 84
 1988 001c 9B05     		lsls	r3, r3, #22
 1989              		.loc 1 892 58
 1990 001e 1A43     		orrs	r2, r2, r3
 1991              		.loc 1 892 113
 1992 0020 3B68     		ldr	r3, [r7]
 1993              		.loc 1 892 129
ARM GAS  /tmp/cc0TY0Fa.s 			page 51


 1994 0022 DB03     		lsls	r3, r3, #15
 1995              		.loc 1 892 12
 1996 0024 1343     		orrs	r3, r3, r2
 1997 0026 FB60     		str	r3, [r7, #12]
 893:Middlewares/Decawave/decadriver/deca_device.c ****     dwt_write32bitreg(TX_FCTRL_ID, reg32);
 1998              		.loc 1 893 5
 1999 0028 FA68     		ldr	r2, [r7, #12]
 2000 002a 0021     		movs	r1, #0
 2001 002c 0820     		movs	r0, #8
 2002 002e FFF7FEFF 		bl	dwt_write32bitoffsetreg
 894:Middlewares/Decawave/decadriver/deca_device.c **** } // end dwt_writetxfctrl()
 2003              		.loc 1 894 1
 2004 0032 00BF     		nop
 2005 0034 1037     		adds	r7, r7, #16
 2006              	.LCFI100:
 2007              		.cfi_def_cfa_offset 8
 2008 0036 BD46     		mov	sp, r7
 2009              	.LCFI101:
 2010              		.cfi_def_cfa_register 13
 2011              		@ sp needed
 2012 0038 80BD     		pop	{r7, pc}
 2013              	.L95:
 2014 003a 00BF     		.align	2
 2015              	.L94:
 2016 003c 00000000 		.word	pdw1000local
 2017              		.cfi_endproc
 2018              	.LFE21:
 2020              		.section	.text.dwt_readrxdata,"ax",%progbits
 2021              		.align	1
 2022              		.global	dwt_readrxdata
 2023              		.syntax unified
 2024              		.thumb
 2025              		.thumb_func
 2026              		.fpu fpv4-sp-d16
 2028              	dwt_readrxdata:
 2029              	.LFB22:
 895:Middlewares/Decawave/decadriver/deca_device.c **** 
 896:Middlewares/Decawave/decadriver/deca_device.c **** 
 897:Middlewares/Decawave/decadriver/deca_device.c **** /*! -----------------------------------------------------------------------------------------------
 898:Middlewares/Decawave/decadriver/deca_device.c ****  * @fn dwt_readrxdata()
 899:Middlewares/Decawave/decadriver/deca_device.c ****  *
 900:Middlewares/Decawave/decadriver/deca_device.c ****  * @brief This is used to read the data from the RX buffer, from an offset location give by offset 
 901:Middlewares/Decawave/decadriver/deca_device.c ****  *
 902:Middlewares/Decawave/decadriver/deca_device.c ****  * input parameters
 903:Middlewares/Decawave/decadriver/deca_device.c ****  * @param buffer - the buffer into which the data will be read
 904:Middlewares/Decawave/decadriver/deca_device.c ****  * @param length - the length of data to read (in bytes)
 905:Middlewares/Decawave/decadriver/deca_device.c ****  * @param rxBufferOffset - the offset in the rx buffer from which to read the data
 906:Middlewares/Decawave/decadriver/deca_device.c ****  *
 907:Middlewares/Decawave/decadriver/deca_device.c ****  * output parameters
 908:Middlewares/Decawave/decadriver/deca_device.c ****  *
 909:Middlewares/Decawave/decadriver/deca_device.c ****  * no return value
 910:Middlewares/Decawave/decadriver/deca_device.c ****  */
 911:Middlewares/Decawave/decadriver/deca_device.c **** void dwt_readrxdata(uint8 *buffer, uint16 length, uint16 rxBufferOffset)
 912:Middlewares/Decawave/decadriver/deca_device.c **** {
 2030              		.loc 1 912 1
 2031              		.cfi_startproc
 2032              		@ args = 0, pretend = 0, frame = 8
ARM GAS  /tmp/cc0TY0Fa.s 			page 52


 2033              		@ frame_needed = 1, uses_anonymous_args = 0
 2034 0000 80B5     		push	{r7, lr}
 2035              	.LCFI102:
 2036              		.cfi_def_cfa_offset 8
 2037              		.cfi_offset 7, -8
 2038              		.cfi_offset 14, -4
 2039 0002 82B0     		sub	sp, sp, #8
 2040              	.LCFI103:
 2041              		.cfi_def_cfa_offset 16
 2042 0004 00AF     		add	r7, sp, #0
 2043              	.LCFI104:
 2044              		.cfi_def_cfa_register 7
 2045 0006 7860     		str	r0, [r7, #4]
 2046 0008 0B46     		mov	r3, r1
 2047 000a 7B80     		strh	r3, [r7, #2]	@ movhi
 2048 000c 1346     		mov	r3, r2	@ movhi
 2049 000e 3B80     		strh	r3, [r7]	@ movhi
 913:Middlewares/Decawave/decadriver/deca_device.c ****     dwt_readfromdevice(RX_BUFFER_ID,rxBufferOffset,length,buffer) ;
 2050              		.loc 1 913 5
 2051 0010 7A88     		ldrh	r2, [r7, #2]
 2052 0012 3988     		ldrh	r1, [r7]
 2053 0014 7B68     		ldr	r3, [r7, #4]
 2054 0016 1120     		movs	r0, #17
 2055 0018 FFF7FEFF 		bl	dwt_readfromdevice
 914:Middlewares/Decawave/decadriver/deca_device.c **** }
 2056              		.loc 1 914 1
 2057 001c 00BF     		nop
 2058 001e 0837     		adds	r7, r7, #8
 2059              	.LCFI105:
 2060              		.cfi_def_cfa_offset 8
 2061 0020 BD46     		mov	sp, r7
 2062              	.LCFI106:
 2063              		.cfi_def_cfa_register 13
 2064              		@ sp needed
 2065 0022 80BD     		pop	{r7, pc}
 2066              		.cfi_endproc
 2067              	.LFE22:
 2069              		.section	.text.dwt_readaccdata,"ax",%progbits
 2070              		.align	1
 2071              		.global	dwt_readaccdata
 2072              		.syntax unified
 2073              		.thumb
 2074              		.thumb_func
 2075              		.fpu fpv4-sp-d16
 2077              	dwt_readaccdata:
 2078              	.LFB23:
 915:Middlewares/Decawave/decadriver/deca_device.c **** 
 916:Middlewares/Decawave/decadriver/deca_device.c **** /*! -----------------------------------------------------------------------------------------------
 917:Middlewares/Decawave/decadriver/deca_device.c ****  * @fn dwt_readaccdata()
 918:Middlewares/Decawave/decadriver/deca_device.c ****  *
 919:Middlewares/Decawave/decadriver/deca_device.c ****  * @brief This is used to read the data from the Accumulator buffer, from an offset location give b
 920:Middlewares/Decawave/decadriver/deca_device.c ****  *
 921:Middlewares/Decawave/decadriver/deca_device.c ****  * NOTE: Because of an internal memory access delay when reading the accumulator the first octet ou
 922:Middlewares/Decawave/decadriver/deca_device.c ****  *       that should be discarded. This is true no matter what sub-index the read begins at.
 923:Middlewares/Decawave/decadriver/deca_device.c ****  *
 924:Middlewares/Decawave/decadriver/deca_device.c ****  * input parameters
 925:Middlewares/Decawave/decadriver/deca_device.c ****  * @param buffer - the buffer into which the data will be read
ARM GAS  /tmp/cc0TY0Fa.s 			page 53


 926:Middlewares/Decawave/decadriver/deca_device.c ****  * @param length - the length of data to read (in bytes)
 927:Middlewares/Decawave/decadriver/deca_device.c ****  * @param accOffset - the offset in the acc buffer from which to read the data
 928:Middlewares/Decawave/decadriver/deca_device.c ****  *
 929:Middlewares/Decawave/decadriver/deca_device.c ****  * output parameters
 930:Middlewares/Decawave/decadriver/deca_device.c ****  *
 931:Middlewares/Decawave/decadriver/deca_device.c ****  * no return value
 932:Middlewares/Decawave/decadriver/deca_device.c ****  */
 933:Middlewares/Decawave/decadriver/deca_device.c **** void dwt_readaccdata(uint8 *buffer, uint16 len, uint16 accOffset)
 934:Middlewares/Decawave/decadriver/deca_device.c **** {
 2079              		.loc 1 934 1
 2080              		.cfi_startproc
 2081              		@ args = 0, pretend = 0, frame = 8
 2082              		@ frame_needed = 1, uses_anonymous_args = 0
 2083 0000 80B5     		push	{r7, lr}
 2084              	.LCFI107:
 2085              		.cfi_def_cfa_offset 8
 2086              		.cfi_offset 7, -8
 2087              		.cfi_offset 14, -4
 2088 0002 82B0     		sub	sp, sp, #8
 2089              	.LCFI108:
 2090              		.cfi_def_cfa_offset 16
 2091 0004 00AF     		add	r7, sp, #0
 2092              	.LCFI109:
 2093              		.cfi_def_cfa_register 7
 2094 0006 7860     		str	r0, [r7, #4]
 2095 0008 0B46     		mov	r3, r1
 2096 000a 7B80     		strh	r3, [r7, #2]	@ movhi
 2097 000c 1346     		mov	r3, r2	@ movhi
 2098 000e 3B80     		strh	r3, [r7]	@ movhi
 935:Middlewares/Decawave/decadriver/deca_device.c ****     // Force on the ACC clocks if we are sequenced
 936:Middlewares/Decawave/decadriver/deca_device.c ****     _dwt_enableclocks(READ_ACC_ON);
 2099              		.loc 1 936 5
 2100 0010 0720     		movs	r0, #7
 2101 0012 FFF7FEFF 		bl	_dwt_enableclocks
 937:Middlewares/Decawave/decadriver/deca_device.c **** 
 938:Middlewares/Decawave/decadriver/deca_device.c ****     dwt_readfromdevice(ACC_MEM_ID,accOffset,len,buffer) ;
 2102              		.loc 1 938 5
 2103 0016 7A88     		ldrh	r2, [r7, #2]
 2104 0018 3988     		ldrh	r1, [r7]
 2105 001a 7B68     		ldr	r3, [r7, #4]
 2106 001c 2520     		movs	r0, #37
 2107 001e FFF7FEFF 		bl	dwt_readfromdevice
 939:Middlewares/Decawave/decadriver/deca_device.c **** 
 940:Middlewares/Decawave/decadriver/deca_device.c ****     _dwt_enableclocks(READ_ACC_OFF); // Revert clocks back
 2108              		.loc 1 940 5
 2109 0022 0820     		movs	r0, #8
 2110 0024 FFF7FEFF 		bl	_dwt_enableclocks
 941:Middlewares/Decawave/decadriver/deca_device.c **** }
 2111              		.loc 1 941 1
 2112 0028 00BF     		nop
 2113 002a 0837     		adds	r7, r7, #8
 2114              	.LCFI110:
 2115              		.cfi_def_cfa_offset 8
 2116 002c BD46     		mov	sp, r7
 2117              	.LCFI111:
 2118              		.cfi_def_cfa_register 13
 2119              		@ sp needed
ARM GAS  /tmp/cc0TY0Fa.s 			page 54


 2120 002e 80BD     		pop	{r7, pc}
 2121              		.cfi_endproc
 2122              	.LFE23:
 2124              		.section	.text.dwt_readcarrierintegrator,"ax",%progbits
 2125              		.align	1
 2126              		.global	dwt_readcarrierintegrator
 2127              		.syntax unified
 2128              		.thumb
 2129              		.thumb_func
 2130              		.fpu fpv4-sp-d16
 2132              	dwt_readcarrierintegrator:
 2133              	.LFB24:
 942:Middlewares/Decawave/decadriver/deca_device.c **** 
 943:Middlewares/Decawave/decadriver/deca_device.c **** /*! -----------------------------------------------------------------------------------------------
 944:Middlewares/Decawave/decadriver/deca_device.c ****  * @fn dwt_readcarrierintegrator()
 945:Middlewares/Decawave/decadriver/deca_device.c ****  *
 946:Middlewares/Decawave/decadriver/deca_device.c ****  * @brief This is used to read the RX carrier integrator value (relating to the frequency offset of
 947:Middlewares/Decawave/decadriver/deca_device.c ****  *
 948:Middlewares/Decawave/decadriver/deca_device.c ****  * NOTE: This is a 21-bit signed quantity, the function sign extends the most significant bit, whic
 949:Middlewares/Decawave/decadriver/deca_device.c ****  *       (numbering from bit zero) to return a 32-bit signed integer value.
 950:Middlewares/Decawave/decadriver/deca_device.c ****  *
 951:Middlewares/Decawave/decadriver/deca_device.c ****  * input parameters - NONE
 952:Middlewares/Decawave/decadriver/deca_device.c ****  *
 953:Middlewares/Decawave/decadriver/deca_device.c ****  * return value - the (int32) signed carrier integrator value.
 954:Middlewares/Decawave/decadriver/deca_device.c ****  *                A positive value means the local RX clock is running faster than the remote TX de
 955:Middlewares/Decawave/decadriver/deca_device.c ****  */
 956:Middlewares/Decawave/decadriver/deca_device.c **** 
 957:Middlewares/Decawave/decadriver/deca_device.c **** #define B20_SIGN_EXTEND_TEST (0x00100000UL)
 958:Middlewares/Decawave/decadriver/deca_device.c **** #define B20_SIGN_EXTEND_MASK (0xFFF00000UL)
 959:Middlewares/Decawave/decadriver/deca_device.c **** 
 960:Middlewares/Decawave/decadriver/deca_device.c **** int32 dwt_readcarrierintegrator(void)
 961:Middlewares/Decawave/decadriver/deca_device.c **** {
 2134              		.loc 1 961 1
 2135              		.cfi_startproc
 2136              		@ args = 0, pretend = 0, frame = 16
 2137              		@ frame_needed = 1, uses_anonymous_args = 0
 2138 0000 80B5     		push	{r7, lr}
 2139              	.LCFI112:
 2140              		.cfi_def_cfa_offset 8
 2141              		.cfi_offset 7, -8
 2142              		.cfi_offset 14, -4
 2143 0002 84B0     		sub	sp, sp, #16
 2144              	.LCFI113:
 2145              		.cfi_def_cfa_offset 24
 2146 0004 00AF     		add	r7, sp, #0
 2147              	.LCFI114:
 2148              		.cfi_def_cfa_register 7
 962:Middlewares/Decawave/decadriver/deca_device.c ****     uint32  regval = 0 ;
 2149              		.loc 1 962 13
 2150 0006 0023     		movs	r3, #0
 2151 0008 FB60     		str	r3, [r7, #12]
 963:Middlewares/Decawave/decadriver/deca_device.c ****     int     j ;
 964:Middlewares/Decawave/decadriver/deca_device.c ****     uint8   buffer[DRX_CARRIER_INT_LEN] ;
 965:Middlewares/Decawave/decadriver/deca_device.c **** 
 966:Middlewares/Decawave/decadriver/deca_device.c ****     /* Read 3 bytes into buffer (21-bit quantity) */
 967:Middlewares/Decawave/decadriver/deca_device.c **** 
 968:Middlewares/Decawave/decadriver/deca_device.c ****     dwt_readfromdevice(DRX_CONF_ID,DRX_CARRIER_INT_OFFSET,DRX_CARRIER_INT_LEN, buffer) ;
ARM GAS  /tmp/cc0TY0Fa.s 			page 55


 2152              		.loc 1 968 5
 2153 000a 3B1D     		adds	r3, r7, #4
 2154 000c 0322     		movs	r2, #3
 2155 000e 2821     		movs	r1, #40
 2156 0010 2720     		movs	r0, #39
 2157 0012 FFF7FEFF 		bl	dwt_readfromdevice
 969:Middlewares/Decawave/decadriver/deca_device.c **** 
 970:Middlewares/Decawave/decadriver/deca_device.c ****     for (j = 2 ; j >= 0 ; j --)  // arrange the three bytes into an unsigned integer value
 2158              		.loc 1 970 12
 2159 0016 0223     		movs	r3, #2
 2160 0018 BB60     		str	r3, [r7, #8]
 2161              		.loc 1 970 5
 2162 001a 0AE0     		b	.L99
 2163              	.L100:
 971:Middlewares/Decawave/decadriver/deca_device.c ****     {
 972:Middlewares/Decawave/decadriver/deca_device.c ****         regval = (regval << 8) + buffer[j] ;
 2164              		.loc 1 972 26 discriminator 3
 2165 001c FB68     		ldr	r3, [r7, #12]
 2166 001e 1B02     		lsls	r3, r3, #8
 2167              		.loc 1 972 40 discriminator 3
 2168 0020 391D     		adds	r1, r7, #4
 2169 0022 BA68     		ldr	r2, [r7, #8]
 2170 0024 0A44     		add	r2, r2, r1
 2171 0026 1278     		ldrb	r2, [r2]	@ zero_extendqisi2
 2172              		.loc 1 972 16 discriminator 3
 2173 0028 1344     		add	r3, r3, r2
 2174 002a FB60     		str	r3, [r7, #12]
 970:Middlewares/Decawave/decadriver/deca_device.c ****     {
 2175              		.loc 1 970 29 discriminator 3
 2176 002c BB68     		ldr	r3, [r7, #8]
 2177 002e 013B     		subs	r3, r3, #1
 2178 0030 BB60     		str	r3, [r7, #8]
 2179              	.L99:
 970:Middlewares/Decawave/decadriver/deca_device.c ****     {
 2180              		.loc 1 970 5 discriminator 1
 2181 0032 BB68     		ldr	r3, [r7, #8]
 2182 0034 002B     		cmp	r3, #0
 2183 0036 F1DA     		bge	.L100
 973:Middlewares/Decawave/decadriver/deca_device.c ****     }
 974:Middlewares/Decawave/decadriver/deca_device.c **** 
 975:Middlewares/Decawave/decadriver/deca_device.c ****     if (regval & B20_SIGN_EXTEND_TEST) regval |= B20_SIGN_EXTEND_MASK ; // sign extend bit #20 to w
 2184              		.loc 1 975 16
 2185 0038 FB68     		ldr	r3, [r7, #12]
 2186 003a 03F48013 		and	r3, r3, #1048576
 2187              		.loc 1 975 8
 2188 003e 002B     		cmp	r3, #0
 2189 0040 06D0     		beq	.L101
 2190              		.loc 1 975 47 discriminator 1
 2191 0042 FB68     		ldr	r3, [r7, #12]
 2192 0044 6FEA0333 		mvn	r3, r3, lsl #12
 2193 0048 6FEA1333 		mvn	r3, r3, lsr #12
 2194 004c FB60     		str	r3, [r7, #12]
 2195 004e 03E0     		b	.L102
 2196              	.L101:
 976:Middlewares/Decawave/decadriver/deca_device.c ****     else regval &= DRX_CARRIER_INT_MASK ;                               // make sure upper bits are
 2197              		.loc 1 976 17
 2198 0050 FB68     		ldr	r3, [r7, #12]
ARM GAS  /tmp/cc0TY0Fa.s 			page 56


 2199 0052 C3F31403 		ubfx	r3, r3, #0, #21
 2200 0056 FB60     		str	r3, [r7, #12]
 2201              	.L102:
 977:Middlewares/Decawave/decadriver/deca_device.c **** 
 978:Middlewares/Decawave/decadriver/deca_device.c ****     return (int32) regval ; // cast unsigned value to signed quantity.
 2202              		.loc 1 978 12
 2203 0058 FB68     		ldr	r3, [r7, #12]
 979:Middlewares/Decawave/decadriver/deca_device.c **** }
 2204              		.loc 1 979 1
 2205 005a 1846     		mov	r0, r3
 2206 005c 1037     		adds	r7, r7, #16
 2207              	.LCFI115:
 2208              		.cfi_def_cfa_offset 8
 2209 005e BD46     		mov	sp, r7
 2210              	.LCFI116:
 2211              		.cfi_def_cfa_register 13
 2212              		@ sp needed
 2213 0060 80BD     		pop	{r7, pc}
 2214              		.cfi_endproc
 2215              	.LFE24:
 2217              		.section	.text.dwt_readdiagnostics,"ax",%progbits
 2218              		.align	1
 2219              		.global	dwt_readdiagnostics
 2220              		.syntax unified
 2221              		.thumb
 2222              		.thumb_func
 2223              		.fpu fpv4-sp-d16
 2225              	dwt_readdiagnostics:
 2226              	.LFB25:
 980:Middlewares/Decawave/decadriver/deca_device.c **** 
 981:Middlewares/Decawave/decadriver/deca_device.c **** /*! -----------------------------------------------------------------------------------------------
 982:Middlewares/Decawave/decadriver/deca_device.c ****  * @fn dwt_readdiagnostics()
 983:Middlewares/Decawave/decadriver/deca_device.c ****  *
 984:Middlewares/Decawave/decadriver/deca_device.c ****  * @brief this function reads the RX signal quality diagnostic data
 985:Middlewares/Decawave/decadriver/deca_device.c ****  *
 986:Middlewares/Decawave/decadriver/deca_device.c ****  * input parameters
 987:Middlewares/Decawave/decadriver/deca_device.c ****  * @param diagnostics - diagnostic structure pointer, this will contain the diagnostic data read fr
 988:Middlewares/Decawave/decadriver/deca_device.c ****  *
 989:Middlewares/Decawave/decadriver/deca_device.c ****  * output parameters
 990:Middlewares/Decawave/decadriver/deca_device.c ****  *
 991:Middlewares/Decawave/decadriver/deca_device.c ****  * no return value
 992:Middlewares/Decawave/decadriver/deca_device.c ****  */
 993:Middlewares/Decawave/decadriver/deca_device.c **** void dwt_readdiagnostics(dwt_rxdiag_t *diagnostics)
 994:Middlewares/Decawave/decadriver/deca_device.c **** {
 2227              		.loc 1 994 1
 2228              		.cfi_startproc
 2229              		@ args = 0, pretend = 0, frame = 8
 2230              		@ frame_needed = 1, uses_anonymous_args = 0
 2231 0000 80B5     		push	{r7, lr}
 2232              	.LCFI117:
 2233              		.cfi_def_cfa_offset 8
 2234              		.cfi_offset 7, -8
 2235              		.cfi_offset 14, -4
 2236 0002 82B0     		sub	sp, sp, #8
 2237              	.LCFI118:
 2238              		.cfi_def_cfa_offset 16
 2239 0004 00AF     		add	r7, sp, #0
ARM GAS  /tmp/cc0TY0Fa.s 			page 57


 2240              	.LCFI119:
 2241              		.cfi_def_cfa_register 7
 2242 0006 7860     		str	r0, [r7, #4]
 995:Middlewares/Decawave/decadriver/deca_device.c ****     // Read the HW FP index
 996:Middlewares/Decawave/decadriver/deca_device.c ****     diagnostics->firstPath = dwt_read16bitoffsetreg(RX_TIME_ID, RX_TIME_FP_INDEX_OFFSET);
 2243              		.loc 1 996 30
 2244 0008 0521     		movs	r1, #5
 2245 000a 1520     		movs	r0, #21
 2246 000c FFF7FEFF 		bl	dwt_read16bitoffsetreg
 2247 0010 0346     		mov	r3, r0
 2248 0012 1A46     		mov	r2, r3
 2249              		.loc 1 996 28
 2250 0014 7B68     		ldr	r3, [r7, #4]
 2251 0016 DA81     		strh	r2, [r3, #14]	@ movhi
 997:Middlewares/Decawave/decadriver/deca_device.c **** 
 998:Middlewares/Decawave/decadriver/deca_device.c ****     // LDE diagnostic data
 999:Middlewares/Decawave/decadriver/deca_device.c ****     diagnostics->maxNoise = dwt_read16bitoffsetreg(LDE_IF_ID, LDE_THRESH_OFFSET);
 2252              		.loc 1 999 29
 2253 0018 0021     		movs	r1, #0
 2254 001a 2E20     		movs	r0, #46
 2255 001c FFF7FEFF 		bl	dwt_read16bitoffsetreg
 2256 0020 0346     		mov	r3, r0
 2257 0022 1A46     		mov	r2, r3
 2258              		.loc 1 999 27
 2259 0024 7B68     		ldr	r3, [r7, #4]
 2260 0026 1A80     		strh	r2, [r3]	@ movhi
1000:Middlewares/Decawave/decadriver/deca_device.c **** 
1001:Middlewares/Decawave/decadriver/deca_device.c ****     // Read all 8 bytes in one SPI transaction
1002:Middlewares/Decawave/decadriver/deca_device.c ****     dwt_readfromdevice(RX_FQUAL_ID, 0x0, 8, (uint8*)&diagnostics->stdNoise);
 2261              		.loc 1 1002 53
 2262 0028 7B68     		ldr	r3, [r7, #4]
 2263 002a 0433     		adds	r3, r3, #4
 2264              		.loc 1 1002 5
 2265 002c 0822     		movs	r2, #8
 2266 002e 0021     		movs	r1, #0
 2267 0030 1220     		movs	r0, #18
 2268 0032 FFF7FEFF 		bl	dwt_readfromdevice
1003:Middlewares/Decawave/decadriver/deca_device.c **** 
1004:Middlewares/Decawave/decadriver/deca_device.c ****     diagnostics->firstPathAmp1 = dwt_read16bitoffsetreg(RX_TIME_ID, RX_TIME_FP_AMPL1_OFFSET);
 2269              		.loc 1 1004 34
 2270 0036 0721     		movs	r1, #7
 2271 0038 1520     		movs	r0, #21
 2272 003a FFF7FEFF 		bl	dwt_read16bitoffsetreg
 2273 003e 0346     		mov	r3, r0
 2274 0040 1A46     		mov	r2, r3
 2275              		.loc 1 1004 32
 2276 0042 7B68     		ldr	r3, [r7, #4]
 2277 0044 5A80     		strh	r2, [r3, #2]	@ movhi
1005:Middlewares/Decawave/decadriver/deca_device.c **** 
1006:Middlewares/Decawave/decadriver/deca_device.c ****     diagnostics->rxPreamCount = (dwt_read32bitreg(RX_FINFO_ID) & RX_FINFO_RXPACC_MASK) >> RX_FINFO_
 2278              		.loc 1 1006 34
 2279 0046 0021     		movs	r1, #0
 2280 0048 1020     		movs	r0, #16
 2281 004a FFF7FEFF 		bl	dwt_read32bitoffsetreg
 2282 004e 0346     		mov	r3, r0
 2283              		.loc 1 1006 88
 2284 0050 1B0D     		lsrs	r3, r3, #20
ARM GAS  /tmp/cc0TY0Fa.s 			page 58


 2285 0052 9BB2     		uxth	r3, r3
 2286 0054 C3F30B03 		ubfx	r3, r3, #0, #12
 2287 0058 9AB2     		uxth	r2, r3
 2288              		.loc 1 1006 31
 2289 005a 7B68     		ldr	r3, [r7, #4]
 2290 005c 9A81     		strh	r2, [r3, #12]	@ movhi
1007:Middlewares/Decawave/decadriver/deca_device.c **** }
 2291              		.loc 1 1007 1
 2292 005e 00BF     		nop
 2293 0060 0837     		adds	r7, r7, #8
 2294              	.LCFI120:
 2295              		.cfi_def_cfa_offset 8
 2296 0062 BD46     		mov	sp, r7
 2297              	.LCFI121:
 2298              		.cfi_def_cfa_register 13
 2299              		@ sp needed
 2300 0064 80BD     		pop	{r7, pc}
 2301              		.cfi_endproc
 2302              	.LFE25:
 2304              		.section	.text.dwt_readtxtimestamp,"ax",%progbits
 2305              		.align	1
 2306              		.global	dwt_readtxtimestamp
 2307              		.syntax unified
 2308              		.thumb
 2309              		.thumb_func
 2310              		.fpu fpv4-sp-d16
 2312              	dwt_readtxtimestamp:
 2313              	.LFB26:
1008:Middlewares/Decawave/decadriver/deca_device.c **** 
1009:Middlewares/Decawave/decadriver/deca_device.c **** /*! -----------------------------------------------------------------------------------------------
1010:Middlewares/Decawave/decadriver/deca_device.c ****  * @fn dwt_readtxtimestamp()
1011:Middlewares/Decawave/decadriver/deca_device.c ****  *
1012:Middlewares/Decawave/decadriver/deca_device.c ****  * @brief This is used to read the TX timestamp (adjusted with the programmed antenna delay)
1013:Middlewares/Decawave/decadriver/deca_device.c ****  *
1014:Middlewares/Decawave/decadriver/deca_device.c ****  * input parameters
1015:Middlewares/Decawave/decadriver/deca_device.c ****  * @param timestamp - a pointer to a 5-byte buffer which will store the read TX timestamp time
1016:Middlewares/Decawave/decadriver/deca_device.c ****  *
1017:Middlewares/Decawave/decadriver/deca_device.c ****  * output parameters - the timestamp buffer will contain the value after the function call
1018:Middlewares/Decawave/decadriver/deca_device.c ****  *
1019:Middlewares/Decawave/decadriver/deca_device.c ****  * no return value
1020:Middlewares/Decawave/decadriver/deca_device.c ****  */
1021:Middlewares/Decawave/decadriver/deca_device.c **** void dwt_readtxtimestamp(uint8 * timestamp)
1022:Middlewares/Decawave/decadriver/deca_device.c **** {
 2314              		.loc 1 1022 1
 2315              		.cfi_startproc
 2316              		@ args = 0, pretend = 0, frame = 8
 2317              		@ frame_needed = 1, uses_anonymous_args = 0
 2318 0000 80B5     		push	{r7, lr}
 2319              	.LCFI122:
 2320              		.cfi_def_cfa_offset 8
 2321              		.cfi_offset 7, -8
 2322              		.cfi_offset 14, -4
 2323 0002 82B0     		sub	sp, sp, #8
 2324              	.LCFI123:
 2325              		.cfi_def_cfa_offset 16
 2326 0004 00AF     		add	r7, sp, #0
 2327              	.LCFI124:
ARM GAS  /tmp/cc0TY0Fa.s 			page 59


 2328              		.cfi_def_cfa_register 7
 2329 0006 7860     		str	r0, [r7, #4]
1023:Middlewares/Decawave/decadriver/deca_device.c ****     dwt_readfromdevice(TX_TIME_ID, TX_TIME_TX_STAMP_OFFSET, TX_TIME_TX_STAMP_LEN, timestamp) ; // R
 2330              		.loc 1 1023 5
 2331 0008 7B68     		ldr	r3, [r7, #4]
 2332 000a 0522     		movs	r2, #5
 2333 000c 0021     		movs	r1, #0
 2334 000e 1720     		movs	r0, #23
 2335 0010 FFF7FEFF 		bl	dwt_readfromdevice
1024:Middlewares/Decawave/decadriver/deca_device.c **** }
 2336              		.loc 1 1024 1
 2337 0014 00BF     		nop
 2338 0016 0837     		adds	r7, r7, #8
 2339              	.LCFI125:
 2340              		.cfi_def_cfa_offset 8
 2341 0018 BD46     		mov	sp, r7
 2342              	.LCFI126:
 2343              		.cfi_def_cfa_register 13
 2344              		@ sp needed
 2345 001a 80BD     		pop	{r7, pc}
 2346              		.cfi_endproc
 2347              	.LFE26:
 2349              		.section	.text.dwt_readtxtimestamphi32,"ax",%progbits
 2350              		.align	1
 2351              		.global	dwt_readtxtimestamphi32
 2352              		.syntax unified
 2353              		.thumb
 2354              		.thumb_func
 2355              		.fpu fpv4-sp-d16
 2357              	dwt_readtxtimestamphi32:
 2358              	.LFB27:
1025:Middlewares/Decawave/decadriver/deca_device.c **** 
1026:Middlewares/Decawave/decadriver/deca_device.c **** /*! -----------------------------------------------------------------------------------------------
1027:Middlewares/Decawave/decadriver/deca_device.c ****  * @fn dwt_readtxtimestamphi32()
1028:Middlewares/Decawave/decadriver/deca_device.c ****  *
1029:Middlewares/Decawave/decadriver/deca_device.c ****  * @brief This is used to read the high 32-bits of the TX timestamp (adjusted with the programmed a
1030:Middlewares/Decawave/decadriver/deca_device.c ****  *
1031:Middlewares/Decawave/decadriver/deca_device.c ****  * input parameters
1032:Middlewares/Decawave/decadriver/deca_device.c ****  *
1033:Middlewares/Decawave/decadriver/deca_device.c ****  * output parameters
1034:Middlewares/Decawave/decadriver/deca_device.c ****  *
1035:Middlewares/Decawave/decadriver/deca_device.c ****  * returns high 32-bits of TX timestamp
1036:Middlewares/Decawave/decadriver/deca_device.c ****  */
1037:Middlewares/Decawave/decadriver/deca_device.c **** uint32 dwt_readtxtimestamphi32(void)
1038:Middlewares/Decawave/decadriver/deca_device.c **** {
 2359              		.loc 1 1038 1
 2360              		.cfi_startproc
 2361              		@ args = 0, pretend = 0, frame = 0
 2362              		@ frame_needed = 1, uses_anonymous_args = 0
 2363 0000 80B5     		push	{r7, lr}
 2364              	.LCFI127:
 2365              		.cfi_def_cfa_offset 8
 2366              		.cfi_offset 7, -8
 2367              		.cfi_offset 14, -4
 2368 0002 00AF     		add	r7, sp, #0
 2369              	.LCFI128:
 2370              		.cfi_def_cfa_register 7
ARM GAS  /tmp/cc0TY0Fa.s 			page 60


1039:Middlewares/Decawave/decadriver/deca_device.c ****     return dwt_read32bitoffsetreg(TX_TIME_ID, 1); // Offset is 1 to get the 4 upper bytes out of 5
 2371              		.loc 1 1039 12
 2372 0004 0121     		movs	r1, #1
 2373 0006 1720     		movs	r0, #23
 2374 0008 FFF7FEFF 		bl	dwt_read32bitoffsetreg
 2375 000c 0346     		mov	r3, r0
1040:Middlewares/Decawave/decadriver/deca_device.c **** }
 2376              		.loc 1 1040 1
 2377 000e 1846     		mov	r0, r3
 2378 0010 80BD     		pop	{r7, pc}
 2379              		.cfi_endproc
 2380              	.LFE27:
 2382              		.section	.text.dwt_readtxtimestamplo32,"ax",%progbits
 2383              		.align	1
 2384              		.global	dwt_readtxtimestamplo32
 2385              		.syntax unified
 2386              		.thumb
 2387              		.thumb_func
 2388              		.fpu fpv4-sp-d16
 2390              	dwt_readtxtimestamplo32:
 2391              	.LFB28:
1041:Middlewares/Decawave/decadriver/deca_device.c **** 
1042:Middlewares/Decawave/decadriver/deca_device.c **** /*! -----------------------------------------------------------------------------------------------
1043:Middlewares/Decawave/decadriver/deca_device.c ****  * @fn dwt_readtxtimestamplo32()
1044:Middlewares/Decawave/decadriver/deca_device.c ****  *
1045:Middlewares/Decawave/decadriver/deca_device.c ****  * @brief This is used to read the low 32-bits of the TX timestamp (adjusted with the programmed an
1046:Middlewares/Decawave/decadriver/deca_device.c ****  *
1047:Middlewares/Decawave/decadriver/deca_device.c ****  * input parameters
1048:Middlewares/Decawave/decadriver/deca_device.c ****  *
1049:Middlewares/Decawave/decadriver/deca_device.c ****  * output parameters
1050:Middlewares/Decawave/decadriver/deca_device.c ****  *
1051:Middlewares/Decawave/decadriver/deca_device.c ****  * returns low 32-bits of TX timestamp
1052:Middlewares/Decawave/decadriver/deca_device.c ****  */
1053:Middlewares/Decawave/decadriver/deca_device.c **** uint32 dwt_readtxtimestamplo32(void)
1054:Middlewares/Decawave/decadriver/deca_device.c **** {
 2392              		.loc 1 1054 1
 2393              		.cfi_startproc
 2394              		@ args = 0, pretend = 0, frame = 0
 2395              		@ frame_needed = 1, uses_anonymous_args = 0
 2396 0000 80B5     		push	{r7, lr}
 2397              	.LCFI129:
 2398              		.cfi_def_cfa_offset 8
 2399              		.cfi_offset 7, -8
 2400              		.cfi_offset 14, -4
 2401 0002 00AF     		add	r7, sp, #0
 2402              	.LCFI130:
 2403              		.cfi_def_cfa_register 7
1055:Middlewares/Decawave/decadriver/deca_device.c ****     return dwt_read32bitreg(TX_TIME_ID); // Read TX TIME as a 32-bit register to get the 4 lower by
 2404              		.loc 1 1055 12
 2405 0004 0021     		movs	r1, #0
 2406 0006 1720     		movs	r0, #23
 2407 0008 FFF7FEFF 		bl	dwt_read32bitoffsetreg
 2408 000c 0346     		mov	r3, r0
1056:Middlewares/Decawave/decadriver/deca_device.c **** }
 2409              		.loc 1 1056 1
 2410 000e 1846     		mov	r0, r3
 2411 0010 80BD     		pop	{r7, pc}
ARM GAS  /tmp/cc0TY0Fa.s 			page 61


 2412              		.cfi_endproc
 2413              	.LFE28:
 2415              		.section	.text.dwt_readrxtimestamp,"ax",%progbits
 2416              		.align	1
 2417              		.global	dwt_readrxtimestamp
 2418              		.syntax unified
 2419              		.thumb
 2420              		.thumb_func
 2421              		.fpu fpv4-sp-d16
 2423              	dwt_readrxtimestamp:
 2424              	.LFB29:
1057:Middlewares/Decawave/decadriver/deca_device.c **** 
1058:Middlewares/Decawave/decadriver/deca_device.c **** /*! -----------------------------------------------------------------------------------------------
1059:Middlewares/Decawave/decadriver/deca_device.c ****  * @fn dwt_readrxtimestamp()
1060:Middlewares/Decawave/decadriver/deca_device.c ****  *
1061:Middlewares/Decawave/decadriver/deca_device.c ****  * @brief This is used to read the RX timestamp (adjusted time of arrival)
1062:Middlewares/Decawave/decadriver/deca_device.c ****  *
1063:Middlewares/Decawave/decadriver/deca_device.c ****  * input parameters
1064:Middlewares/Decawave/decadriver/deca_device.c ****  * @param timestamp - a pointer to a 5-byte buffer which will store the read RX timestamp time
1065:Middlewares/Decawave/decadriver/deca_device.c ****  *
1066:Middlewares/Decawave/decadriver/deca_device.c ****  * output parameters - the timestamp buffer will contain the value after the function call
1067:Middlewares/Decawave/decadriver/deca_device.c ****  *
1068:Middlewares/Decawave/decadriver/deca_device.c ****  * no return value
1069:Middlewares/Decawave/decadriver/deca_device.c ****  */
1070:Middlewares/Decawave/decadriver/deca_device.c **** void dwt_readrxtimestamp(uint8 * timestamp)
1071:Middlewares/Decawave/decadriver/deca_device.c **** {
 2425              		.loc 1 1071 1
 2426              		.cfi_startproc
 2427              		@ args = 0, pretend = 0, frame = 8
 2428              		@ frame_needed = 1, uses_anonymous_args = 0
 2429 0000 80B5     		push	{r7, lr}
 2430              	.LCFI131:
 2431              		.cfi_def_cfa_offset 8
 2432              		.cfi_offset 7, -8
 2433              		.cfi_offset 14, -4
 2434 0002 82B0     		sub	sp, sp, #8
 2435              	.LCFI132:
 2436              		.cfi_def_cfa_offset 16
 2437 0004 00AF     		add	r7, sp, #0
 2438              	.LCFI133:
 2439              		.cfi_def_cfa_register 7
 2440 0006 7860     		str	r0, [r7, #4]
1072:Middlewares/Decawave/decadriver/deca_device.c ****     dwt_readfromdevice(RX_TIME_ID, RX_TIME_RX_STAMP_OFFSET, RX_TIME_RX_STAMP_LEN, timestamp) ; // G
 2441              		.loc 1 1072 5
 2442 0008 7B68     		ldr	r3, [r7, #4]
 2443 000a 0522     		movs	r2, #5
 2444 000c 0021     		movs	r1, #0
 2445 000e 1520     		movs	r0, #21
 2446 0010 FFF7FEFF 		bl	dwt_readfromdevice
1073:Middlewares/Decawave/decadriver/deca_device.c **** }
 2447              		.loc 1 1073 1
 2448 0014 00BF     		nop
 2449 0016 0837     		adds	r7, r7, #8
 2450              	.LCFI134:
 2451              		.cfi_def_cfa_offset 8
 2452 0018 BD46     		mov	sp, r7
 2453              	.LCFI135:
ARM GAS  /tmp/cc0TY0Fa.s 			page 62


 2454              		.cfi_def_cfa_register 13
 2455              		@ sp needed
 2456 001a 80BD     		pop	{r7, pc}
 2457              		.cfi_endproc
 2458              	.LFE29:
 2460              		.section	.text.dwt_readrxtimestamphi32,"ax",%progbits
 2461              		.align	1
 2462              		.global	dwt_readrxtimestamphi32
 2463              		.syntax unified
 2464              		.thumb
 2465              		.thumb_func
 2466              		.fpu fpv4-sp-d16
 2468              	dwt_readrxtimestamphi32:
 2469              	.LFB30:
1074:Middlewares/Decawave/decadriver/deca_device.c **** 
1075:Middlewares/Decawave/decadriver/deca_device.c **** /*! -----------------------------------------------------------------------------------------------
1076:Middlewares/Decawave/decadriver/deca_device.c ****  * @fn dwt_readrxtimestamphi32()
1077:Middlewares/Decawave/decadriver/deca_device.c ****  *
1078:Middlewares/Decawave/decadriver/deca_device.c ****  * @brief This is used to read the high 32-bits of the RX timestamp (adjusted with the programmed a
1079:Middlewares/Decawave/decadriver/deca_device.c ****  *
1080:Middlewares/Decawave/decadriver/deca_device.c ****  * input parameters
1081:Middlewares/Decawave/decadriver/deca_device.c ****  *
1082:Middlewares/Decawave/decadriver/deca_device.c ****  * output parameters
1083:Middlewares/Decawave/decadriver/deca_device.c ****  *
1084:Middlewares/Decawave/decadriver/deca_device.c ****  * returns high 32-bits of RX timestamp
1085:Middlewares/Decawave/decadriver/deca_device.c ****  */
1086:Middlewares/Decawave/decadriver/deca_device.c **** uint32 dwt_readrxtimestamphi32(void)
1087:Middlewares/Decawave/decadriver/deca_device.c **** {
 2470              		.loc 1 1087 1
 2471              		.cfi_startproc
 2472              		@ args = 0, pretend = 0, frame = 0
 2473              		@ frame_needed = 1, uses_anonymous_args = 0
 2474 0000 80B5     		push	{r7, lr}
 2475              	.LCFI136:
 2476              		.cfi_def_cfa_offset 8
 2477              		.cfi_offset 7, -8
 2478              		.cfi_offset 14, -4
 2479 0002 00AF     		add	r7, sp, #0
 2480              	.LCFI137:
 2481              		.cfi_def_cfa_register 7
1088:Middlewares/Decawave/decadriver/deca_device.c ****     return dwt_read32bitoffsetreg(RX_TIME_ID, 1); // Offset is 1 to get the 4 upper bytes out of 5
 2482              		.loc 1 1088 12
 2483 0004 0121     		movs	r1, #1
 2484 0006 1520     		movs	r0, #21
 2485 0008 FFF7FEFF 		bl	dwt_read32bitoffsetreg
 2486 000c 0346     		mov	r3, r0
1089:Middlewares/Decawave/decadriver/deca_device.c **** }
 2487              		.loc 1 1089 1
 2488 000e 1846     		mov	r0, r3
 2489 0010 80BD     		pop	{r7, pc}
 2490              		.cfi_endproc
 2491              	.LFE30:
 2493              		.section	.text.dwt_readrxtimestamplo32,"ax",%progbits
 2494              		.align	1
 2495              		.global	dwt_readrxtimestamplo32
 2496              		.syntax unified
 2497              		.thumb
ARM GAS  /tmp/cc0TY0Fa.s 			page 63


 2498              		.thumb_func
 2499              		.fpu fpv4-sp-d16
 2501              	dwt_readrxtimestamplo32:
 2502              	.LFB31:
1090:Middlewares/Decawave/decadriver/deca_device.c **** 
1091:Middlewares/Decawave/decadriver/deca_device.c **** /*! -----------------------------------------------------------------------------------------------
1092:Middlewares/Decawave/decadriver/deca_device.c ****  * @fn dwt_readrxtimestamplo32()
1093:Middlewares/Decawave/decadriver/deca_device.c ****  *
1094:Middlewares/Decawave/decadriver/deca_device.c ****  * @brief This is used to read the low 32-bits of the RX timestamp (adjusted with the programmed an
1095:Middlewares/Decawave/decadriver/deca_device.c ****  *
1096:Middlewares/Decawave/decadriver/deca_device.c ****  * input parameters
1097:Middlewares/Decawave/decadriver/deca_device.c ****  *
1098:Middlewares/Decawave/decadriver/deca_device.c ****  * output parameters
1099:Middlewares/Decawave/decadriver/deca_device.c ****  *
1100:Middlewares/Decawave/decadriver/deca_device.c ****  * returns low 32-bits of RX timestamp
1101:Middlewares/Decawave/decadriver/deca_device.c ****  */
1102:Middlewares/Decawave/decadriver/deca_device.c **** uint32 dwt_readrxtimestamplo32(void)
1103:Middlewares/Decawave/decadriver/deca_device.c **** {
 2503              		.loc 1 1103 1
 2504              		.cfi_startproc
 2505              		@ args = 0, pretend = 0, frame = 0
 2506              		@ frame_needed = 1, uses_anonymous_args = 0
 2507 0000 80B5     		push	{r7, lr}
 2508              	.LCFI138:
 2509              		.cfi_def_cfa_offset 8
 2510              		.cfi_offset 7, -8
 2511              		.cfi_offset 14, -4
 2512 0002 00AF     		add	r7, sp, #0
 2513              	.LCFI139:
 2514              		.cfi_def_cfa_register 7
1104:Middlewares/Decawave/decadriver/deca_device.c ****     return dwt_read32bitreg(RX_TIME_ID); // Read RX TIME as a 32-bit register to get the 4 lower by
 2515              		.loc 1 1104 12
 2516 0004 0021     		movs	r1, #0
 2517 0006 1520     		movs	r0, #21
 2518 0008 FFF7FEFF 		bl	dwt_read32bitoffsetreg
 2519 000c 0346     		mov	r3, r0
1105:Middlewares/Decawave/decadriver/deca_device.c **** }
 2520              		.loc 1 1105 1
 2521 000e 1846     		mov	r0, r3
 2522 0010 80BD     		pop	{r7, pc}
 2523              		.cfi_endproc
 2524              	.LFE31:
 2526              		.section	.text.dwt_readsystimestamphi32,"ax",%progbits
 2527              		.align	1
 2528              		.global	dwt_readsystimestamphi32
 2529              		.syntax unified
 2530              		.thumb
 2531              		.thumb_func
 2532              		.fpu fpv4-sp-d16
 2534              	dwt_readsystimestamphi32:
 2535              	.LFB32:
1106:Middlewares/Decawave/decadriver/deca_device.c **** 
1107:Middlewares/Decawave/decadriver/deca_device.c **** /*! -----------------------------------------------------------------------------------------------
1108:Middlewares/Decawave/decadriver/deca_device.c ****  * @fn dwt_readsystimestamphi32()
1109:Middlewares/Decawave/decadriver/deca_device.c ****  *
1110:Middlewares/Decawave/decadriver/deca_device.c ****  * @brief This is used to read the high 32-bits of the system time
1111:Middlewares/Decawave/decadriver/deca_device.c ****  *
ARM GAS  /tmp/cc0TY0Fa.s 			page 64


1112:Middlewares/Decawave/decadriver/deca_device.c ****  * input parameters
1113:Middlewares/Decawave/decadriver/deca_device.c ****  *
1114:Middlewares/Decawave/decadriver/deca_device.c ****  * output parameters
1115:Middlewares/Decawave/decadriver/deca_device.c ****  *
1116:Middlewares/Decawave/decadriver/deca_device.c ****  * returns high 32-bits of system time timestamp
1117:Middlewares/Decawave/decadriver/deca_device.c ****  */
1118:Middlewares/Decawave/decadriver/deca_device.c **** uint32 dwt_readsystimestamphi32(void)
1119:Middlewares/Decawave/decadriver/deca_device.c **** {
 2536              		.loc 1 1119 1
 2537              		.cfi_startproc
 2538              		@ args = 0, pretend = 0, frame = 0
 2539              		@ frame_needed = 1, uses_anonymous_args = 0
 2540 0000 80B5     		push	{r7, lr}
 2541              	.LCFI140:
 2542              		.cfi_def_cfa_offset 8
 2543              		.cfi_offset 7, -8
 2544              		.cfi_offset 14, -4
 2545 0002 00AF     		add	r7, sp, #0
 2546              	.LCFI141:
 2547              		.cfi_def_cfa_register 7
1120:Middlewares/Decawave/decadriver/deca_device.c ****     return dwt_read32bitoffsetreg(SYS_TIME_ID, 1); // Offset is 1 to get the 4 upper bytes out of 5
 2548              		.loc 1 1120 12
 2549 0004 0121     		movs	r1, #1
 2550 0006 0620     		movs	r0, #6
 2551 0008 FFF7FEFF 		bl	dwt_read32bitoffsetreg
 2552 000c 0346     		mov	r3, r0
1121:Middlewares/Decawave/decadriver/deca_device.c **** }
 2553              		.loc 1 1121 1
 2554 000e 1846     		mov	r0, r3
 2555 0010 80BD     		pop	{r7, pc}
 2556              		.cfi_endproc
 2557              	.LFE32:
 2559              		.section	.text.dwt_readsystime,"ax",%progbits
 2560              		.align	1
 2561              		.global	dwt_readsystime
 2562              		.syntax unified
 2563              		.thumb
 2564              		.thumb_func
 2565              		.fpu fpv4-sp-d16
 2567              	dwt_readsystime:
 2568              	.LFB33:
1122:Middlewares/Decawave/decadriver/deca_device.c **** 
1123:Middlewares/Decawave/decadriver/deca_device.c **** /*! -----------------------------------------------------------------------------------------------
1124:Middlewares/Decawave/decadriver/deca_device.c ****  * @fn dwt_readsystime()
1125:Middlewares/Decawave/decadriver/deca_device.c ****  *
1126:Middlewares/Decawave/decadriver/deca_device.c ****  * @brief This is used to read the system time
1127:Middlewares/Decawave/decadriver/deca_device.c ****  *
1128:Middlewares/Decawave/decadriver/deca_device.c ****  * input parameters
1129:Middlewares/Decawave/decadriver/deca_device.c ****  * @param timestamp - a pointer to a 5-byte buffer which will store the read system time
1130:Middlewares/Decawave/decadriver/deca_device.c ****  *
1131:Middlewares/Decawave/decadriver/deca_device.c ****  * output parameters
1132:Middlewares/Decawave/decadriver/deca_device.c ****  * @param timestamp - the timestamp buffer will contain the value after the function call
1133:Middlewares/Decawave/decadriver/deca_device.c ****  *
1134:Middlewares/Decawave/decadriver/deca_device.c ****  * no return value
1135:Middlewares/Decawave/decadriver/deca_device.c ****  */
1136:Middlewares/Decawave/decadriver/deca_device.c **** void dwt_readsystime(uint8 * timestamp)
1137:Middlewares/Decawave/decadriver/deca_device.c **** {
ARM GAS  /tmp/cc0TY0Fa.s 			page 65


 2569              		.loc 1 1137 1
 2570              		.cfi_startproc
 2571              		@ args = 0, pretend = 0, frame = 8
 2572              		@ frame_needed = 1, uses_anonymous_args = 0
 2573 0000 80B5     		push	{r7, lr}
 2574              	.LCFI142:
 2575              		.cfi_def_cfa_offset 8
 2576              		.cfi_offset 7, -8
 2577              		.cfi_offset 14, -4
 2578 0002 82B0     		sub	sp, sp, #8
 2579              	.LCFI143:
 2580              		.cfi_def_cfa_offset 16
 2581 0004 00AF     		add	r7, sp, #0
 2582              	.LCFI144:
 2583              		.cfi_def_cfa_register 7
 2584 0006 7860     		str	r0, [r7, #4]
1138:Middlewares/Decawave/decadriver/deca_device.c ****     dwt_readfromdevice(SYS_TIME_ID, SYS_TIME_OFFSET, SYS_TIME_LEN, timestamp) ;
 2585              		.loc 1 1138 5
 2586 0008 7B68     		ldr	r3, [r7, #4]
 2587 000a 0522     		movs	r2, #5
 2588 000c 0021     		movs	r1, #0
 2589 000e 0620     		movs	r0, #6
 2590 0010 FFF7FEFF 		bl	dwt_readfromdevice
1139:Middlewares/Decawave/decadriver/deca_device.c **** }
 2591              		.loc 1 1139 1
 2592 0014 00BF     		nop
 2593 0016 0837     		adds	r7, r7, #8
 2594              	.LCFI145:
 2595              		.cfi_def_cfa_offset 8
 2596 0018 BD46     		mov	sp, r7
 2597              	.LCFI146:
 2598              		.cfi_def_cfa_register 13
 2599              		@ sp needed
 2600 001a 80BD     		pop	{r7, pc}
 2601              		.cfi_endproc
 2602              	.LFE33:
 2604              		.section	.text.dwt_writetodevice,"ax",%progbits
 2605              		.align	1
 2606              		.global	dwt_writetodevice
 2607              		.syntax unified
 2608              		.thumb
 2609              		.thumb_func
 2610              		.fpu fpv4-sp-d16
 2612              	dwt_writetodevice:
 2613              	.LFB34:
1140:Middlewares/Decawave/decadriver/deca_device.c **** 
1141:Middlewares/Decawave/decadriver/deca_device.c **** /*! -----------------------------------------------------------------------------------------------
1142:Middlewares/Decawave/decadriver/deca_device.c ****  * @fn dwt_writetodevice()
1143:Middlewares/Decawave/decadriver/deca_device.c ****  *
1144:Middlewares/Decawave/decadriver/deca_device.c ****  * @brief  this function is used to write to the DW1000 device registers
1145:Middlewares/Decawave/decadriver/deca_device.c ****  * Notes:
1146:Middlewares/Decawave/decadriver/deca_device.c ****  *        1. Firstly we create a header (the first byte is a header byte)
1147:Middlewares/Decawave/decadriver/deca_device.c ****  *        a. check if sub index is used, if subindexing is used - set bit-6 to 1 to signify that th
1148:Middlewares/Decawave/decadriver/deca_device.c ****  *        b. set bit-7 (or with 0x80) for write operation
1149:Middlewares/Decawave/decadriver/deca_device.c ****  *        c. if extended sub address index is used (i.e. if index > 127) set bit-7 of the first sub
1150:Middlewares/Decawave/decadriver/deca_device.c ****  *
1151:Middlewares/Decawave/decadriver/deca_device.c ****  *        2. Write the header followed by the data bytes to the DW1000 device
ARM GAS  /tmp/cc0TY0Fa.s 			page 66


1152:Middlewares/Decawave/decadriver/deca_device.c ****  *
1153:Middlewares/Decawave/decadriver/deca_device.c ****  *
1154:Middlewares/Decawave/decadriver/deca_device.c ****  * input parameters:
1155:Middlewares/Decawave/decadriver/deca_device.c ****  * @param recordNumber  - ID of register file or buffer being accessed
1156:Middlewares/Decawave/decadriver/deca_device.c ****  * @param index         - byte index into register file or buffer being accessed
1157:Middlewares/Decawave/decadriver/deca_device.c ****  * @param length        - number of bytes being written
1158:Middlewares/Decawave/decadriver/deca_device.c ****  * @param buffer        - pointer to buffer containing the 'length' bytes to be written
1159:Middlewares/Decawave/decadriver/deca_device.c ****  *
1160:Middlewares/Decawave/decadriver/deca_device.c ****  * output parameters
1161:Middlewares/Decawave/decadriver/deca_device.c ****  *
1162:Middlewares/Decawave/decadriver/deca_device.c ****  * no return value
1163:Middlewares/Decawave/decadriver/deca_device.c ****  */
1164:Middlewares/Decawave/decadriver/deca_device.c **** void dwt_writetodevice
1165:Middlewares/Decawave/decadriver/deca_device.c **** (
1166:Middlewares/Decawave/decadriver/deca_device.c ****     uint16  recordNumber,
1167:Middlewares/Decawave/decadriver/deca_device.c ****     uint16  index,
1168:Middlewares/Decawave/decadriver/deca_device.c ****     uint32        length,
1169:Middlewares/Decawave/decadriver/deca_device.c ****     const uint8   *buffer
1170:Middlewares/Decawave/decadriver/deca_device.c **** )
1171:Middlewares/Decawave/decadriver/deca_device.c **** {
 2614              		.loc 1 1171 1
 2615              		.cfi_startproc
 2616              		@ args = 0, pretend = 0, frame = 24
 2617              		@ frame_needed = 1, uses_anonymous_args = 0
 2618 0000 80B5     		push	{r7, lr}
 2619              	.LCFI147:
 2620              		.cfi_def_cfa_offset 8
 2621              		.cfi_offset 7, -8
 2622              		.cfi_offset 14, -4
 2623 0002 86B0     		sub	sp, sp, #24
 2624              	.LCFI148:
 2625              		.cfi_def_cfa_offset 32
 2626 0004 00AF     		add	r7, sp, #0
 2627              	.LCFI149:
 2628              		.cfi_def_cfa_register 7
 2629 0006 BA60     		str	r2, [r7, #8]
 2630 0008 7B60     		str	r3, [r7, #4]
 2631 000a 0346     		mov	r3, r0	@ movhi
 2632 000c FB81     		strh	r3, [r7, #14]	@ movhi
 2633 000e 0B46     		mov	r3, r1	@ movhi
 2634 0010 BB81     		strh	r3, [r7, #12]	@ movhi
1172:Middlewares/Decawave/decadriver/deca_device.c ****     uint8 header[3] ; // Buffer to compose header in
1173:Middlewares/Decawave/decadriver/deca_device.c ****     int   cnt = 0; // Counter for length of header
 2635              		.loc 1 1173 11
 2636 0012 0023     		movs	r3, #0
 2637 0014 7B61     		str	r3, [r7, #20]
1174:Middlewares/Decawave/decadriver/deca_device.c **** #ifdef DWT_API_ERROR_CHECK
1175:Middlewares/Decawave/decadriver/deca_device.c ****     assert(recordNumber <= 0x3F); // Record number is limited to 6-bits.
1176:Middlewares/Decawave/decadriver/deca_device.c **** #endif
1177:Middlewares/Decawave/decadriver/deca_device.c **** 
1178:Middlewares/Decawave/decadriver/deca_device.c ****     // Write message header selecting WRITE operation and addresses as appropriate (this is one to 
1179:Middlewares/Decawave/decadriver/deca_device.c ****     if (index == 0) // For index of 0, no sub-index is required
 2638              		.loc 1 1179 8
 2639 0016 BB89     		ldrh	r3, [r7, #12]
 2640 0018 002B     		cmp	r3, #0
 2641 001a 0DD1     		bne	.L119
1180:Middlewares/Decawave/decadriver/deca_device.c ****     {
ARM GAS  /tmp/cc0TY0Fa.s 			page 67


1181:Middlewares/Decawave/decadriver/deca_device.c ****         header[cnt++] = 0x80 | recordNumber ; // Bit-7 is WRITE operation, bit-6 zero=NO sub-addres
 2642              		.loc 1 1181 23
 2643 001c FB89     		ldrh	r3, [r7, #14]	@ movhi
 2644 001e DAB2     		uxtb	r2, r3
 2645              		.loc 1 1181 19
 2646 0020 7B69     		ldr	r3, [r7, #20]
 2647 0022 591C     		adds	r1, r3, #1
 2648 0024 7961     		str	r1, [r7, #20]
 2649              		.loc 1 1181 23
 2650 0026 62F07F02 		orn	r2, r2, #127
 2651 002a D2B2     		uxtb	r2, r2
 2652 002c 07F11801 		add	r1, r7, #24
 2653 0030 0B44     		add	r3, r3, r1
 2654 0032 03F8082C 		strb	r2, [r3, #-8]
 2655 0036 33E0     		b	.L120
 2656              	.L119:
1182:Middlewares/Decawave/decadriver/deca_device.c ****     }
1183:Middlewares/Decawave/decadriver/deca_device.c ****     else
1184:Middlewares/Decawave/decadriver/deca_device.c ****     {
1185:Middlewares/Decawave/decadriver/deca_device.c **** #ifdef DWT_API_ERROR_CHECK
1186:Middlewares/Decawave/decadriver/deca_device.c ****         assert((index <= 0x7FFF) && ((index + length) <= 0x7FFF)); // Index and sub-addressable are
1187:Middlewares/Decawave/decadriver/deca_device.c **** #endif
1188:Middlewares/Decawave/decadriver/deca_device.c ****         header[cnt++] = 0xC0 | recordNumber ; // Bit-7 is WRITE operation, bit-6 one=sub-address fo
 2657              		.loc 1 1188 23
 2658 0038 FB89     		ldrh	r3, [r7, #14]	@ movhi
 2659 003a DAB2     		uxtb	r2, r3
 2660              		.loc 1 1188 19
 2661 003c 7B69     		ldr	r3, [r7, #20]
 2662 003e 591C     		adds	r1, r3, #1
 2663 0040 7961     		str	r1, [r7, #20]
 2664              		.loc 1 1188 23
 2665 0042 62F03F02 		orn	r2, r2, #63
 2666 0046 D2B2     		uxtb	r2, r2
 2667 0048 07F11801 		add	r1, r7, #24
 2668 004c 0B44     		add	r3, r3, r1
 2669 004e 03F8082C 		strb	r2, [r3, #-8]
1189:Middlewares/Decawave/decadriver/deca_device.c **** 
1190:Middlewares/Decawave/decadriver/deca_device.c ****         if (index <= 127) // For non-zero index < 127, just a single sub-index byte is required
 2670              		.loc 1 1190 12
 2671 0052 BB89     		ldrh	r3, [r7, #12]
 2672 0054 7F2B     		cmp	r3, #127
 2673 0056 0AD8     		bhi	.L121
1191:Middlewares/Decawave/decadriver/deca_device.c ****         {
1192:Middlewares/Decawave/decadriver/deca_device.c ****             header[cnt++] = (uint8)index ; // Bit-7 zero means no extension, bits 6-0 is index.
 2674              		.loc 1 1192 23
 2675 0058 7B69     		ldr	r3, [r7, #20]
 2676 005a 5A1C     		adds	r2, r3, #1
 2677 005c 7A61     		str	r2, [r7, #20]
 2678              		.loc 1 1192 29
 2679 005e BA89     		ldrh	r2, [r7, #12]	@ movhi
 2680 0060 D2B2     		uxtb	r2, r2
 2681              		.loc 1 1192 27
 2682 0062 07F11801 		add	r1, r7, #24
 2683 0066 0B44     		add	r3, r3, r1
 2684 0068 03F8082C 		strb	r2, [r3, #-8]
 2685 006c 18E0     		b	.L120
 2686              	.L121:
ARM GAS  /tmp/cc0TY0Fa.s 			page 68


1193:Middlewares/Decawave/decadriver/deca_device.c ****         }
1194:Middlewares/Decawave/decadriver/deca_device.c ****         else
1195:Middlewares/Decawave/decadriver/deca_device.c ****         {
1196:Middlewares/Decawave/decadriver/deca_device.c ****             header[cnt++] = 0x80 | (uint8)(index) ; // Bit-7 one means extended index, bits 6-0 is 
 2687              		.loc 1 1196 36
 2688 006e BB89     		ldrh	r3, [r7, #12]	@ movhi
 2689 0070 DAB2     		uxtb	r2, r3
 2690              		.loc 1 1196 23
 2691 0072 7B69     		ldr	r3, [r7, #20]
 2692 0074 591C     		adds	r1, r3, #1
 2693 0076 7961     		str	r1, [r7, #20]
 2694              		.loc 1 1196 27
 2695 0078 62F07F02 		orn	r2, r2, #127
 2696 007c D2B2     		uxtb	r2, r2
 2697 007e 07F11801 		add	r1, r7, #24
 2698 0082 0B44     		add	r3, r3, r1
 2699 0084 03F8082C 		strb	r2, [r3, #-8]
1197:Middlewares/Decawave/decadriver/deca_device.c ****             header[cnt++] =  (uint8) (index >> 7) ; // 8-bit value = high eight bits of index.
 2700              		.loc 1 1197 30
 2701 0088 BB89     		ldrh	r3, [r7, #12]
 2702 008a DB09     		lsrs	r3, r3, #7
 2703 008c 99B2     		uxth	r1, r3
 2704              		.loc 1 1197 23
 2705 008e 7B69     		ldr	r3, [r7, #20]
 2706 0090 5A1C     		adds	r2, r3, #1
 2707 0092 7A61     		str	r2, [r7, #20]
 2708              		.loc 1 1197 30
 2709 0094 CAB2     		uxtb	r2, r1
 2710              		.loc 1 1197 27
 2711 0096 07F11801 		add	r1, r7, #24
 2712 009a 0B44     		add	r3, r3, r1
 2713 009c 03F8082C 		strb	r2, [r3, #-8]
 2714              	.L120:
1198:Middlewares/Decawave/decadriver/deca_device.c ****         }
1199:Middlewares/Decawave/decadriver/deca_device.c ****     }
1200:Middlewares/Decawave/decadriver/deca_device.c **** 
1201:Middlewares/Decawave/decadriver/deca_device.c ****     // Write it to the SPI
1202:Middlewares/Decawave/decadriver/deca_device.c ****     writetospi(cnt,header,length,buffer);
 2715              		.loc 1 1202 5
 2716 00a0 7B69     		ldr	r3, [r7, #20]
 2717 00a2 98B2     		uxth	r0, r3
 2718 00a4 07F11001 		add	r1, r7, #16
 2719 00a8 7B68     		ldr	r3, [r7, #4]
 2720 00aa BA68     		ldr	r2, [r7, #8]
 2721 00ac FFF7FEFF 		bl	writetospi
1203:Middlewares/Decawave/decadriver/deca_device.c **** } // end dwt_writetodevice()
 2722              		.loc 1 1203 1
 2723 00b0 00BF     		nop
 2724 00b2 1837     		adds	r7, r7, #24
 2725              	.LCFI150:
 2726              		.cfi_def_cfa_offset 8
 2727 00b4 BD46     		mov	sp, r7
 2728              	.LCFI151:
 2729              		.cfi_def_cfa_register 13
 2730              		@ sp needed
 2731 00b6 80BD     		pop	{r7, pc}
 2732              		.cfi_endproc
ARM GAS  /tmp/cc0TY0Fa.s 			page 69


 2733              	.LFE34:
 2735              		.section	.text.dwt_readfromdevice,"ax",%progbits
 2736              		.align	1
 2737              		.global	dwt_readfromdevice
 2738              		.syntax unified
 2739              		.thumb
 2740              		.thumb_func
 2741              		.fpu fpv4-sp-d16
 2743              	dwt_readfromdevice:
 2744              	.LFB35:
1204:Middlewares/Decawave/decadriver/deca_device.c **** 
1205:Middlewares/Decawave/decadriver/deca_device.c **** /*! -----------------------------------------------------------------------------------------------
1206:Middlewares/Decawave/decadriver/deca_device.c ****  * @fn dwt_readfromdevice()
1207:Middlewares/Decawave/decadriver/deca_device.c ****  *
1208:Middlewares/Decawave/decadriver/deca_device.c ****  * @brief  this function is used to read from the DW1000 device registers
1209:Middlewares/Decawave/decadriver/deca_device.c ****  * Notes:
1210:Middlewares/Decawave/decadriver/deca_device.c ****  *        1. Firstly we create a header (the first byte is a header byte)
1211:Middlewares/Decawave/decadriver/deca_device.c ****  *        a. check if sub index is used, if subindexing is used - set bit-6 to 1 to signify that th
1212:Middlewares/Decawave/decadriver/deca_device.c ****  *        b. set bit-7 (or with 0x80) for write operation
1213:Middlewares/Decawave/decadriver/deca_device.c ****  *        c. if extended sub address index is used (i.e. if index > 127) set bit-7 of the first sub
1214:Middlewares/Decawave/decadriver/deca_device.c ****  *
1215:Middlewares/Decawave/decadriver/deca_device.c ****  *        2. Write the header followed by the data bytes to the DW1000 device
1216:Middlewares/Decawave/decadriver/deca_device.c ****  *        3. Store the read data in the input buffer
1217:Middlewares/Decawave/decadriver/deca_device.c ****  *
1218:Middlewares/Decawave/decadriver/deca_device.c ****  * input parameters:
1219:Middlewares/Decawave/decadriver/deca_device.c ****  * @param recordNumber  - ID of register file or buffer being accessed
1220:Middlewares/Decawave/decadriver/deca_device.c ****  * @param index         - byte index into register file or buffer being accessed
1221:Middlewares/Decawave/decadriver/deca_device.c ****  * @param length        - number of bytes being read
1222:Middlewares/Decawave/decadriver/deca_device.c ****  * @param buffer        - pointer to buffer in which to return the read data.
1223:Middlewares/Decawave/decadriver/deca_device.c ****  *
1224:Middlewares/Decawave/decadriver/deca_device.c ****  * output parameters
1225:Middlewares/Decawave/decadriver/deca_device.c ****  *
1226:Middlewares/Decawave/decadriver/deca_device.c ****  * no return value
1227:Middlewares/Decawave/decadriver/deca_device.c ****  */
1228:Middlewares/Decawave/decadriver/deca_device.c **** void dwt_readfromdevice
1229:Middlewares/Decawave/decadriver/deca_device.c **** (
1230:Middlewares/Decawave/decadriver/deca_device.c ****     uint16  recordNumber,
1231:Middlewares/Decawave/decadriver/deca_device.c ****     uint16  index,
1232:Middlewares/Decawave/decadriver/deca_device.c ****     uint32        length,
1233:Middlewares/Decawave/decadriver/deca_device.c ****     uint8         *buffer
1234:Middlewares/Decawave/decadriver/deca_device.c **** )
1235:Middlewares/Decawave/decadriver/deca_device.c **** {
 2745              		.loc 1 1235 1
 2746              		.cfi_startproc
 2747              		@ args = 0, pretend = 0, frame = 24
 2748              		@ frame_needed = 1, uses_anonymous_args = 0
 2749 0000 80B5     		push	{r7, lr}
 2750              	.LCFI152:
 2751              		.cfi_def_cfa_offset 8
 2752              		.cfi_offset 7, -8
 2753              		.cfi_offset 14, -4
 2754 0002 86B0     		sub	sp, sp, #24
 2755              	.LCFI153:
 2756              		.cfi_def_cfa_offset 32
 2757 0004 00AF     		add	r7, sp, #0
 2758              	.LCFI154:
 2759              		.cfi_def_cfa_register 7
ARM GAS  /tmp/cc0TY0Fa.s 			page 70


 2760 0006 BA60     		str	r2, [r7, #8]
 2761 0008 7B60     		str	r3, [r7, #4]
 2762 000a 0346     		mov	r3, r0	@ movhi
 2763 000c FB81     		strh	r3, [r7, #14]	@ movhi
 2764 000e 0B46     		mov	r3, r1	@ movhi
 2765 0010 BB81     		strh	r3, [r7, #12]	@ movhi
1236:Middlewares/Decawave/decadriver/deca_device.c ****     uint8 header[3] ; // Buffer to compose header in
1237:Middlewares/Decawave/decadriver/deca_device.c ****     int   cnt = 0; // Counter for length of header
 2766              		.loc 1 1237 11
 2767 0012 0023     		movs	r3, #0
 2768 0014 7B61     		str	r3, [r7, #20]
1238:Middlewares/Decawave/decadriver/deca_device.c **** #ifdef DWT_API_ERROR_CHECK
1239:Middlewares/Decawave/decadriver/deca_device.c ****     assert(recordNumber <= 0x3F); // Record number is limited to 6-bits.
1240:Middlewares/Decawave/decadriver/deca_device.c **** #endif
1241:Middlewares/Decawave/decadriver/deca_device.c **** 
1242:Middlewares/Decawave/decadriver/deca_device.c ****     // Write message header selecting READ operation and addresses as appropriate (this is one to t
1243:Middlewares/Decawave/decadriver/deca_device.c ****     if (index == 0) // For index of 0, no sub-index is required
 2769              		.loc 1 1243 8
 2770 0016 BB89     		ldrh	r3, [r7, #12]
 2771 0018 002B     		cmp	r3, #0
 2772 001a 0AD1     		bne	.L123
1244:Middlewares/Decawave/decadriver/deca_device.c ****     {
1245:Middlewares/Decawave/decadriver/deca_device.c ****         header[cnt++] = (uint8) recordNumber ; // Bit-7 zero is READ operation, bit-6 zero=NO sub-a
 2773              		.loc 1 1245 19
 2774 001c 7B69     		ldr	r3, [r7, #20]
 2775 001e 5A1C     		adds	r2, r3, #1
 2776 0020 7A61     		str	r2, [r7, #20]
 2777              		.loc 1 1245 25
 2778 0022 FA89     		ldrh	r2, [r7, #14]	@ movhi
 2779 0024 D2B2     		uxtb	r2, r2
 2780              		.loc 1 1245 23
 2781 0026 07F11801 		add	r1, r7, #24
 2782 002a 0B44     		add	r3, r3, r1
 2783 002c 03F8082C 		strb	r2, [r3, #-8]
 2784 0030 33E0     		b	.L124
 2785              	.L123:
1246:Middlewares/Decawave/decadriver/deca_device.c ****     }
1247:Middlewares/Decawave/decadriver/deca_device.c ****     else
1248:Middlewares/Decawave/decadriver/deca_device.c ****     {
1249:Middlewares/Decawave/decadriver/deca_device.c **** #ifdef DWT_API_ERROR_CHECK
1250:Middlewares/Decawave/decadriver/deca_device.c ****         assert((index <= 0x7FFF) && ((index + length) <= 0x7FFF)); // Index and sub-addressable are
1251:Middlewares/Decawave/decadriver/deca_device.c **** #endif
1252:Middlewares/Decawave/decadriver/deca_device.c ****         header[cnt++] = (uint8)(0x40 | recordNumber) ; // Bit-7 zero is READ operation, bit-6 one=s
 2786              		.loc 1 1252 25
 2787 0032 FB89     		ldrh	r3, [r7, #14]	@ movhi
 2788 0034 DAB2     		uxtb	r2, r3
 2789              		.loc 1 1252 19
 2790 0036 7B69     		ldr	r3, [r7, #20]
 2791 0038 591C     		adds	r1, r3, #1
 2792 003a 7961     		str	r1, [r7, #20]
 2793              		.loc 1 1252 25
 2794 003c 42F04002 		orr	r2, r2, #64
 2795 0040 D2B2     		uxtb	r2, r2
 2796              		.loc 1 1252 23
 2797 0042 07F11801 		add	r1, r7, #24
 2798 0046 0B44     		add	r3, r3, r1
 2799 0048 03F8082C 		strb	r2, [r3, #-8]
ARM GAS  /tmp/cc0TY0Fa.s 			page 71


1253:Middlewares/Decawave/decadriver/deca_device.c **** 
1254:Middlewares/Decawave/decadriver/deca_device.c ****         if (index <= 127) // For non-zero index < 127, just a single sub-index byte is required
 2800              		.loc 1 1254 12
 2801 004c BB89     		ldrh	r3, [r7, #12]
 2802 004e 7F2B     		cmp	r3, #127
 2803 0050 0AD8     		bhi	.L125
1255:Middlewares/Decawave/decadriver/deca_device.c ****         {
1256:Middlewares/Decawave/decadriver/deca_device.c ****             header[cnt++] = (uint8) index ; // Bit-7 zero means no extension, bits 6-0 is index.
 2804              		.loc 1 1256 23
 2805 0052 7B69     		ldr	r3, [r7, #20]
 2806 0054 5A1C     		adds	r2, r3, #1
 2807 0056 7A61     		str	r2, [r7, #20]
 2808              		.loc 1 1256 29
 2809 0058 BA89     		ldrh	r2, [r7, #12]	@ movhi
 2810 005a D2B2     		uxtb	r2, r2
 2811              		.loc 1 1256 27
 2812 005c 07F11801 		add	r1, r7, #24
 2813 0060 0B44     		add	r3, r3, r1
 2814 0062 03F8082C 		strb	r2, [r3, #-8]
 2815 0066 18E0     		b	.L124
 2816              	.L125:
1257:Middlewares/Decawave/decadriver/deca_device.c ****         }
1258:Middlewares/Decawave/decadriver/deca_device.c ****         else
1259:Middlewares/Decawave/decadriver/deca_device.c ****         {
1260:Middlewares/Decawave/decadriver/deca_device.c ****             header[cnt++] = 0x80 | (uint8)(index) ; // Bit-7 one means extended index, bits 6-0 is 
 2817              		.loc 1 1260 36
 2818 0068 BB89     		ldrh	r3, [r7, #12]	@ movhi
 2819 006a DAB2     		uxtb	r2, r3
 2820              		.loc 1 1260 23
 2821 006c 7B69     		ldr	r3, [r7, #20]
 2822 006e 591C     		adds	r1, r3, #1
 2823 0070 7961     		str	r1, [r7, #20]
 2824              		.loc 1 1260 27
 2825 0072 62F07F02 		orn	r2, r2, #127
 2826 0076 D2B2     		uxtb	r2, r2
 2827 0078 07F11801 		add	r1, r7, #24
 2828 007c 0B44     		add	r3, r3, r1
 2829 007e 03F8082C 		strb	r2, [r3, #-8]
1261:Middlewares/Decawave/decadriver/deca_device.c ****             header[cnt++] =  (uint8) (index >> 7) ; // 8-bit value = high eight bits of index.
 2830              		.loc 1 1261 30
 2831 0082 BB89     		ldrh	r3, [r7, #12]
 2832 0084 DB09     		lsrs	r3, r3, #7
 2833 0086 99B2     		uxth	r1, r3
 2834              		.loc 1 1261 23
 2835 0088 7B69     		ldr	r3, [r7, #20]
 2836 008a 5A1C     		adds	r2, r3, #1
 2837 008c 7A61     		str	r2, [r7, #20]
 2838              		.loc 1 1261 30
 2839 008e CAB2     		uxtb	r2, r1
 2840              		.loc 1 1261 27
 2841 0090 07F11801 		add	r1, r7, #24
 2842 0094 0B44     		add	r3, r3, r1
 2843 0096 03F8082C 		strb	r2, [r3, #-8]
 2844              	.L124:
1262:Middlewares/Decawave/decadriver/deca_device.c ****         }
1263:Middlewares/Decawave/decadriver/deca_device.c ****     }
1264:Middlewares/Decawave/decadriver/deca_device.c **** 
ARM GAS  /tmp/cc0TY0Fa.s 			page 72


1265:Middlewares/Decawave/decadriver/deca_device.c ****     // Do the read from the SPI
1266:Middlewares/Decawave/decadriver/deca_device.c ****     readfromspi(cnt, header, length, buffer);  // result is stored in the buffer
 2845              		.loc 1 1266 5
 2846 009a 7B69     		ldr	r3, [r7, #20]
 2847 009c 98B2     		uxth	r0, r3
 2848 009e 07F11001 		add	r1, r7, #16
 2849 00a2 7B68     		ldr	r3, [r7, #4]
 2850 00a4 BA68     		ldr	r2, [r7, #8]
 2851 00a6 FFF7FEFF 		bl	readfromspi
1267:Middlewares/Decawave/decadriver/deca_device.c **** } // end dwt_readfromdevice()
 2852              		.loc 1 1267 1
 2853 00aa 00BF     		nop
 2854 00ac 1837     		adds	r7, r7, #24
 2855              	.LCFI155:
 2856              		.cfi_def_cfa_offset 8
 2857 00ae BD46     		mov	sp, r7
 2858              	.LCFI156:
 2859              		.cfi_def_cfa_register 13
 2860              		@ sp needed
 2861 00b0 80BD     		pop	{r7, pc}
 2862              		.cfi_endproc
 2863              	.LFE35:
 2865              		.section	.text.dwt_read32bitoffsetreg,"ax",%progbits
 2866              		.align	1
 2867              		.global	dwt_read32bitoffsetreg
 2868              		.syntax unified
 2869              		.thumb
 2870              		.thumb_func
 2871              		.fpu fpv4-sp-d16
 2873              	dwt_read32bitoffsetreg:
 2874              	.LFB36:
1268:Middlewares/Decawave/decadriver/deca_device.c **** 
1269:Middlewares/Decawave/decadriver/deca_device.c **** 
1270:Middlewares/Decawave/decadriver/deca_device.c **** 
1271:Middlewares/Decawave/decadriver/deca_device.c **** /*! -----------------------------------------------------------------------------------------------
1272:Middlewares/Decawave/decadriver/deca_device.c ****  * @fn dwt_read32bitoffsetreg()
1273:Middlewares/Decawave/decadriver/deca_device.c ****  *
1274:Middlewares/Decawave/decadriver/deca_device.c ****  * @brief  this function is used to read 32-bit value from the DW1000 device registers
1275:Middlewares/Decawave/decadriver/deca_device.c ****  *
1276:Middlewares/Decawave/decadriver/deca_device.c ****  * input parameters:
1277:Middlewares/Decawave/decadriver/deca_device.c ****  * @param regFileID - ID of register file or buffer being accessed
1278:Middlewares/Decawave/decadriver/deca_device.c ****  * @param regOffset - the index into register file or buffer being accessed
1279:Middlewares/Decawave/decadriver/deca_device.c ****  *
1280:Middlewares/Decawave/decadriver/deca_device.c ****  * output parameters
1281:Middlewares/Decawave/decadriver/deca_device.c ****  *
1282:Middlewares/Decawave/decadriver/deca_device.c ****  * returns 32 bit register value
1283:Middlewares/Decawave/decadriver/deca_device.c ****  */
1284:Middlewares/Decawave/decadriver/deca_device.c **** uint32 dwt_read32bitoffsetreg(int regFileID, int regOffset)
1285:Middlewares/Decawave/decadriver/deca_device.c **** {
 2875              		.loc 1 1285 1
 2876              		.cfi_startproc
 2877              		@ args = 0, pretend = 0, frame = 24
 2878              		@ frame_needed = 1, uses_anonymous_args = 0
 2879 0000 80B5     		push	{r7, lr}
 2880              	.LCFI157:
 2881              		.cfi_def_cfa_offset 8
 2882              		.cfi_offset 7, -8
ARM GAS  /tmp/cc0TY0Fa.s 			page 73


 2883              		.cfi_offset 14, -4
 2884 0002 86B0     		sub	sp, sp, #24
 2885              	.LCFI158:
 2886              		.cfi_def_cfa_offset 32
 2887 0004 00AF     		add	r7, sp, #0
 2888              	.LCFI159:
 2889              		.cfi_def_cfa_register 7
 2890 0006 7860     		str	r0, [r7, #4]
 2891 0008 3960     		str	r1, [r7]
1286:Middlewares/Decawave/decadriver/deca_device.c ****     uint32  regval = 0 ;
 2892              		.loc 1 1286 13
 2893 000a 0023     		movs	r3, #0
 2894 000c 7B61     		str	r3, [r7, #20]
1287:Middlewares/Decawave/decadriver/deca_device.c ****     int     j ;
1288:Middlewares/Decawave/decadriver/deca_device.c ****     uint8   buffer[4] ;
1289:Middlewares/Decawave/decadriver/deca_device.c **** 
1290:Middlewares/Decawave/decadriver/deca_device.c ****     dwt_readfromdevice(regFileID,regOffset,4,buffer); // Read 4 bytes (32-bits) register into buffe
 2895              		.loc 1 1290 5
 2896 000e 7B68     		ldr	r3, [r7, #4]
 2897 0010 98B2     		uxth	r0, r3
 2898 0012 3B68     		ldr	r3, [r7]
 2899 0014 99B2     		uxth	r1, r3
 2900 0016 07F10C03 		add	r3, r7, #12
 2901 001a 0422     		movs	r2, #4
 2902 001c FFF7FEFF 		bl	dwt_readfromdevice
1291:Middlewares/Decawave/decadriver/deca_device.c **** 
1292:Middlewares/Decawave/decadriver/deca_device.c ****     for (j = 3 ; j >= 0 ; j --)
 2903              		.loc 1 1292 12
 2904 0020 0323     		movs	r3, #3
 2905 0022 3B61     		str	r3, [r7, #16]
 2906              		.loc 1 1292 5
 2907 0024 0BE0     		b	.L127
 2908              	.L128:
1293:Middlewares/Decawave/decadriver/deca_device.c ****     {
1294:Middlewares/Decawave/decadriver/deca_device.c ****         regval = (regval << 8) + buffer[j] ;
 2909              		.loc 1 1294 26 discriminator 3
 2910 0026 7B69     		ldr	r3, [r7, #20]
 2911 0028 1B02     		lsls	r3, r3, #8
 2912              		.loc 1 1294 40 discriminator 3
 2913 002a 07F10C01 		add	r1, r7, #12
 2914 002e 3A69     		ldr	r2, [r7, #16]
 2915 0030 0A44     		add	r2, r2, r1
 2916 0032 1278     		ldrb	r2, [r2]	@ zero_extendqisi2
 2917              		.loc 1 1294 16 discriminator 3
 2918 0034 1344     		add	r3, r3, r2
 2919 0036 7B61     		str	r3, [r7, #20]
1292:Middlewares/Decawave/decadriver/deca_device.c ****     {
 2920              		.loc 1 1292 29 discriminator 3
 2921 0038 3B69     		ldr	r3, [r7, #16]
 2922 003a 013B     		subs	r3, r3, #1
 2923 003c 3B61     		str	r3, [r7, #16]
 2924              	.L127:
1292:Middlewares/Decawave/decadriver/deca_device.c ****     {
 2925              		.loc 1 1292 5 discriminator 1
 2926 003e 3B69     		ldr	r3, [r7, #16]
 2927 0040 002B     		cmp	r3, #0
 2928 0042 F0DA     		bge	.L128
ARM GAS  /tmp/cc0TY0Fa.s 			page 74


1295:Middlewares/Decawave/decadriver/deca_device.c ****     }
1296:Middlewares/Decawave/decadriver/deca_device.c ****     return regval ;
 2929              		.loc 1 1296 12
 2930 0044 7B69     		ldr	r3, [r7, #20]
1297:Middlewares/Decawave/decadriver/deca_device.c **** 
1298:Middlewares/Decawave/decadriver/deca_device.c **** } // end dwt_read32bitoffsetreg()
 2931              		.loc 1 1298 1
 2932 0046 1846     		mov	r0, r3
 2933 0048 1837     		adds	r7, r7, #24
 2934              	.LCFI160:
 2935              		.cfi_def_cfa_offset 8
 2936 004a BD46     		mov	sp, r7
 2937              	.LCFI161:
 2938              		.cfi_def_cfa_register 13
 2939              		@ sp needed
 2940 004c 80BD     		pop	{r7, pc}
 2941              		.cfi_endproc
 2942              	.LFE36:
 2944              		.section	.text.dwt_read16bitoffsetreg,"ax",%progbits
 2945              		.align	1
 2946              		.global	dwt_read16bitoffsetreg
 2947              		.syntax unified
 2948              		.thumb
 2949              		.thumb_func
 2950              		.fpu fpv4-sp-d16
 2952              	dwt_read16bitoffsetreg:
 2953              	.LFB37:
1299:Middlewares/Decawave/decadriver/deca_device.c **** 
1300:Middlewares/Decawave/decadriver/deca_device.c **** /*! -----------------------------------------------------------------------------------------------
1301:Middlewares/Decawave/decadriver/deca_device.c ****  * @fn dwt_read16bitoffsetreg()
1302:Middlewares/Decawave/decadriver/deca_device.c ****  *
1303:Middlewares/Decawave/decadriver/deca_device.c ****  * @brief  this function is used to read 16-bit value from the DW1000 device registers
1304:Middlewares/Decawave/decadriver/deca_device.c ****  *
1305:Middlewares/Decawave/decadriver/deca_device.c ****  * input parameters:
1306:Middlewares/Decawave/decadriver/deca_device.c ****  * @param regFileID - ID of register file or buffer being accessed
1307:Middlewares/Decawave/decadriver/deca_device.c ****  * @param regOffset - the index into register file or buffer being accessed
1308:Middlewares/Decawave/decadriver/deca_device.c ****  *
1309:Middlewares/Decawave/decadriver/deca_device.c ****  * output parameters
1310:Middlewares/Decawave/decadriver/deca_device.c ****  *
1311:Middlewares/Decawave/decadriver/deca_device.c ****  * returns 16 bit register value
1312:Middlewares/Decawave/decadriver/deca_device.c ****  */
1313:Middlewares/Decawave/decadriver/deca_device.c **** uint16 dwt_read16bitoffsetreg(int regFileID, int regOffset)
1314:Middlewares/Decawave/decadriver/deca_device.c **** {
 2954              		.loc 1 1314 1
 2955              		.cfi_startproc
 2956              		@ args = 0, pretend = 0, frame = 16
 2957              		@ frame_needed = 1, uses_anonymous_args = 0
 2958 0000 80B5     		push	{r7, lr}
 2959              	.LCFI162:
 2960              		.cfi_def_cfa_offset 8
 2961              		.cfi_offset 7, -8
 2962              		.cfi_offset 14, -4
 2963 0002 84B0     		sub	sp, sp, #16
 2964              	.LCFI163:
 2965              		.cfi_def_cfa_offset 24
 2966 0004 00AF     		add	r7, sp, #0
 2967              	.LCFI164:
ARM GAS  /tmp/cc0TY0Fa.s 			page 75


 2968              		.cfi_def_cfa_register 7
 2969 0006 7860     		str	r0, [r7, #4]
 2970 0008 3960     		str	r1, [r7]
1315:Middlewares/Decawave/decadriver/deca_device.c ****     uint16  regval = 0 ;
 2971              		.loc 1 1315 13
 2972 000a 0023     		movs	r3, #0
 2973 000c FB81     		strh	r3, [r7, #14]	@ movhi
1316:Middlewares/Decawave/decadriver/deca_device.c ****     uint8   buffer[2] ;
1317:Middlewares/Decawave/decadriver/deca_device.c **** 
1318:Middlewares/Decawave/decadriver/deca_device.c ****     dwt_readfromdevice(regFileID,regOffset,2,buffer); // Read 2 bytes (16-bits) register into buffe
 2974              		.loc 1 1318 5
 2975 000e 7B68     		ldr	r3, [r7, #4]
 2976 0010 98B2     		uxth	r0, r3
 2977 0012 3B68     		ldr	r3, [r7]
 2978 0014 99B2     		uxth	r1, r3
 2979 0016 07F10C03 		add	r3, r7, #12
 2980 001a 0222     		movs	r2, #2
 2981 001c FFF7FEFF 		bl	dwt_readfromdevice
1319:Middlewares/Decawave/decadriver/deca_device.c **** 
1320:Middlewares/Decawave/decadriver/deca_device.c ****     regval = ((uint16)buffer[1] << 8) + buffer[0] ;
 2982              		.loc 1 1320 29
 2983 0020 7B7B     		ldrb	r3, [r7, #13]	@ zero_extendqisi2
 2984 0022 9BB2     		uxth	r3, r3
 2985              		.loc 1 1320 33
 2986 0024 1B02     		lsls	r3, r3, #8
 2987 0026 9AB2     		uxth	r2, r3
 2988              		.loc 1 1320 47
 2989 0028 3B7B     		ldrb	r3, [r7, #12]	@ zero_extendqisi2
 2990 002a 9BB2     		uxth	r3, r3
 2991              		.loc 1 1320 12
 2992 002c 1344     		add	r3, r3, r2
 2993 002e FB81     		strh	r3, [r7, #14]	@ movhi
1321:Middlewares/Decawave/decadriver/deca_device.c ****     return regval ;
 2994              		.loc 1 1321 12
 2995 0030 FB89     		ldrh	r3, [r7, #14]
1322:Middlewares/Decawave/decadriver/deca_device.c **** 
1323:Middlewares/Decawave/decadriver/deca_device.c **** } // end dwt_read16bitoffsetreg()
 2996              		.loc 1 1323 1
 2997 0032 1846     		mov	r0, r3
 2998 0034 1037     		adds	r7, r7, #16
 2999              	.LCFI165:
 3000              		.cfi_def_cfa_offset 8
 3001 0036 BD46     		mov	sp, r7
 3002              	.LCFI166:
 3003              		.cfi_def_cfa_register 13
 3004              		@ sp needed
 3005 0038 80BD     		pop	{r7, pc}
 3006              		.cfi_endproc
 3007              	.LFE37:
 3009              		.section	.text.dwt_read8bitoffsetreg,"ax",%progbits
 3010              		.align	1
 3011              		.global	dwt_read8bitoffsetreg
 3012              		.syntax unified
 3013              		.thumb
 3014              		.thumb_func
 3015              		.fpu fpv4-sp-d16
 3017              	dwt_read8bitoffsetreg:
ARM GAS  /tmp/cc0TY0Fa.s 			page 76


 3018              	.LFB38:
1324:Middlewares/Decawave/decadriver/deca_device.c **** 
1325:Middlewares/Decawave/decadriver/deca_device.c **** /*! -----------------------------------------------------------------------------------------------
1326:Middlewares/Decawave/decadriver/deca_device.c ****  * @fn dwt_read8bitoffsetreg()
1327:Middlewares/Decawave/decadriver/deca_device.c ****  *
1328:Middlewares/Decawave/decadriver/deca_device.c ****  * @brief  this function is used to read an 8-bit value from the DW1000 device registers
1329:Middlewares/Decawave/decadriver/deca_device.c ****  *
1330:Middlewares/Decawave/decadriver/deca_device.c ****  * input parameters:
1331:Middlewares/Decawave/decadriver/deca_device.c ****  * @param regFileID - ID of register file or buffer being accessed
1332:Middlewares/Decawave/decadriver/deca_device.c ****  * @param regOffset - the index into register file or buffer being accessed
1333:Middlewares/Decawave/decadriver/deca_device.c ****  *
1334:Middlewares/Decawave/decadriver/deca_device.c ****  * output parameters
1335:Middlewares/Decawave/decadriver/deca_device.c ****  *
1336:Middlewares/Decawave/decadriver/deca_device.c ****  * returns 8-bit register value
1337:Middlewares/Decawave/decadriver/deca_device.c ****  */
1338:Middlewares/Decawave/decadriver/deca_device.c **** uint8 dwt_read8bitoffsetreg(int regFileID, int regOffset)
1339:Middlewares/Decawave/decadriver/deca_device.c **** {
 3019              		.loc 1 1339 1
 3020              		.cfi_startproc
 3021              		@ args = 0, pretend = 0, frame = 16
 3022              		@ frame_needed = 1, uses_anonymous_args = 0
 3023 0000 80B5     		push	{r7, lr}
 3024              	.LCFI167:
 3025              		.cfi_def_cfa_offset 8
 3026              		.cfi_offset 7, -8
 3027              		.cfi_offset 14, -4
 3028 0002 84B0     		sub	sp, sp, #16
 3029              	.LCFI168:
 3030              		.cfi_def_cfa_offset 24
 3031 0004 00AF     		add	r7, sp, #0
 3032              	.LCFI169:
 3033              		.cfi_def_cfa_register 7
 3034 0006 7860     		str	r0, [r7, #4]
 3035 0008 3960     		str	r1, [r7]
1340:Middlewares/Decawave/decadriver/deca_device.c ****     uint8 regval;
1341:Middlewares/Decawave/decadriver/deca_device.c **** 
1342:Middlewares/Decawave/decadriver/deca_device.c ****     dwt_readfromdevice(regFileID, regOffset, 1, &regval);
 3036              		.loc 1 1342 5
 3037 000a 7B68     		ldr	r3, [r7, #4]
 3038 000c 98B2     		uxth	r0, r3
 3039 000e 3B68     		ldr	r3, [r7]
 3040 0010 99B2     		uxth	r1, r3
 3041 0012 07F10F03 		add	r3, r7, #15
 3042 0016 0122     		movs	r2, #1
 3043 0018 FFF7FEFF 		bl	dwt_readfromdevice
1343:Middlewares/Decawave/decadriver/deca_device.c **** 
1344:Middlewares/Decawave/decadriver/deca_device.c ****     return regval ;
 3044              		.loc 1 1344 12
 3045 001c FB7B     		ldrb	r3, [r7, #15]	@ zero_extendqisi2
1345:Middlewares/Decawave/decadriver/deca_device.c **** }
 3046              		.loc 1 1345 1
 3047 001e 1846     		mov	r0, r3
 3048 0020 1037     		adds	r7, r7, #16
 3049              	.LCFI170:
 3050              		.cfi_def_cfa_offset 8
 3051 0022 BD46     		mov	sp, r7
 3052              	.LCFI171:
ARM GAS  /tmp/cc0TY0Fa.s 			page 77


 3053              		.cfi_def_cfa_register 13
 3054              		@ sp needed
 3055 0024 80BD     		pop	{r7, pc}
 3056              		.cfi_endproc
 3057              	.LFE38:
 3059              		.section	.text.dwt_write8bitoffsetreg,"ax",%progbits
 3060              		.align	1
 3061              		.global	dwt_write8bitoffsetreg
 3062              		.syntax unified
 3063              		.thumb
 3064              		.thumb_func
 3065              		.fpu fpv4-sp-d16
 3067              	dwt_write8bitoffsetreg:
 3068              	.LFB39:
1346:Middlewares/Decawave/decadriver/deca_device.c **** 
1347:Middlewares/Decawave/decadriver/deca_device.c **** /*! -----------------------------------------------------------------------------------------------
1348:Middlewares/Decawave/decadriver/deca_device.c ****  * @fn dwt_write8bitoffsetreg()
1349:Middlewares/Decawave/decadriver/deca_device.c ****  *
1350:Middlewares/Decawave/decadriver/deca_device.c ****  * @brief  this function is used to write an 8-bit value to the DW1000 device registers
1351:Middlewares/Decawave/decadriver/deca_device.c ****  *
1352:Middlewares/Decawave/decadriver/deca_device.c ****  * input parameters:
1353:Middlewares/Decawave/decadriver/deca_device.c ****  * @param regFileID - ID of register file or buffer being accessed
1354:Middlewares/Decawave/decadriver/deca_device.c ****  * @param regOffset - the index into register file or buffer being accessed
1355:Middlewares/Decawave/decadriver/deca_device.c ****  * @param regval    - the value to write
1356:Middlewares/Decawave/decadriver/deca_device.c ****  *
1357:Middlewares/Decawave/decadriver/deca_device.c ****  * output parameters
1358:Middlewares/Decawave/decadriver/deca_device.c ****  *
1359:Middlewares/Decawave/decadriver/deca_device.c ****  * no return value
1360:Middlewares/Decawave/decadriver/deca_device.c ****  */
1361:Middlewares/Decawave/decadriver/deca_device.c **** void dwt_write8bitoffsetreg(int regFileID, int regOffset, uint8 regval)
1362:Middlewares/Decawave/decadriver/deca_device.c **** {
 3069              		.loc 1 1362 1
 3070              		.cfi_startproc
 3071              		@ args = 0, pretend = 0, frame = 16
 3072              		@ frame_needed = 1, uses_anonymous_args = 0
 3073 0000 80B5     		push	{r7, lr}
 3074              	.LCFI172:
 3075              		.cfi_def_cfa_offset 8
 3076              		.cfi_offset 7, -8
 3077              		.cfi_offset 14, -4
 3078 0002 84B0     		sub	sp, sp, #16
 3079              	.LCFI173:
 3080              		.cfi_def_cfa_offset 24
 3081 0004 00AF     		add	r7, sp, #0
 3082              	.LCFI174:
 3083              		.cfi_def_cfa_register 7
 3084 0006 F860     		str	r0, [r7, #12]
 3085 0008 B960     		str	r1, [r7, #8]
 3086 000a 1346     		mov	r3, r2
 3087 000c FB71     		strb	r3, [r7, #7]
1363:Middlewares/Decawave/decadriver/deca_device.c ****     dwt_writetodevice(regFileID, regOffset, 1, &regval);
 3088              		.loc 1 1363 5
 3089 000e FB68     		ldr	r3, [r7, #12]
 3090 0010 98B2     		uxth	r0, r3
 3091 0012 BB68     		ldr	r3, [r7, #8]
 3092 0014 99B2     		uxth	r1, r3
 3093 0016 FB1D     		adds	r3, r7, #7
ARM GAS  /tmp/cc0TY0Fa.s 			page 78


 3094 0018 0122     		movs	r2, #1
 3095 001a FFF7FEFF 		bl	dwt_writetodevice
1364:Middlewares/Decawave/decadriver/deca_device.c **** }
 3096              		.loc 1 1364 1
 3097 001e 00BF     		nop
 3098 0020 1037     		adds	r7, r7, #16
 3099              	.LCFI175:
 3100              		.cfi_def_cfa_offset 8
 3101 0022 BD46     		mov	sp, r7
 3102              	.LCFI176:
 3103              		.cfi_def_cfa_register 13
 3104              		@ sp needed
 3105 0024 80BD     		pop	{r7, pc}
 3106              		.cfi_endproc
 3107              	.LFE39:
 3109              		.section	.text.dwt_write16bitoffsetreg,"ax",%progbits
 3110              		.align	1
 3111              		.global	dwt_write16bitoffsetreg
 3112              		.syntax unified
 3113              		.thumb
 3114              		.thumb_func
 3115              		.fpu fpv4-sp-d16
 3117              	dwt_write16bitoffsetreg:
 3118              	.LFB40:
1365:Middlewares/Decawave/decadriver/deca_device.c **** 
1366:Middlewares/Decawave/decadriver/deca_device.c **** /*! -----------------------------------------------------------------------------------------------
1367:Middlewares/Decawave/decadriver/deca_device.c ****  * @fn dwt_write16bitoffsetreg()
1368:Middlewares/Decawave/decadriver/deca_device.c ****  *
1369:Middlewares/Decawave/decadriver/deca_device.c ****  * @brief  this function is used to write 16-bit value to the DW1000 device registers
1370:Middlewares/Decawave/decadriver/deca_device.c ****  *
1371:Middlewares/Decawave/decadriver/deca_device.c ****  * input parameters:
1372:Middlewares/Decawave/decadriver/deca_device.c ****  * @param regFileID - ID of register file or buffer being accessed
1373:Middlewares/Decawave/decadriver/deca_device.c ****  * @param regOffset - the index into register file or buffer being accessed
1374:Middlewares/Decawave/decadriver/deca_device.c ****  * @param regval    - the value to write
1375:Middlewares/Decawave/decadriver/deca_device.c ****  *
1376:Middlewares/Decawave/decadriver/deca_device.c ****  * output parameters
1377:Middlewares/Decawave/decadriver/deca_device.c ****  *
1378:Middlewares/Decawave/decadriver/deca_device.c ****  * no return value
1379:Middlewares/Decawave/decadriver/deca_device.c ****  */
1380:Middlewares/Decawave/decadriver/deca_device.c **** void dwt_write16bitoffsetreg(int regFileID, int regOffset, uint16 regval)
1381:Middlewares/Decawave/decadriver/deca_device.c **** {
 3119              		.loc 1 1381 1
 3120              		.cfi_startproc
 3121              		@ args = 0, pretend = 0, frame = 24
 3122              		@ frame_needed = 1, uses_anonymous_args = 0
 3123 0000 80B5     		push	{r7, lr}
 3124              	.LCFI177:
 3125              		.cfi_def_cfa_offset 8
 3126              		.cfi_offset 7, -8
 3127              		.cfi_offset 14, -4
 3128 0002 86B0     		sub	sp, sp, #24
 3129              	.LCFI178:
 3130              		.cfi_def_cfa_offset 32
 3131 0004 00AF     		add	r7, sp, #0
 3132              	.LCFI179:
 3133              		.cfi_def_cfa_register 7
 3134 0006 F860     		str	r0, [r7, #12]
ARM GAS  /tmp/cc0TY0Fa.s 			page 79


 3135 0008 B960     		str	r1, [r7, #8]
 3136 000a 1346     		mov	r3, r2
 3137 000c FB80     		strh	r3, [r7, #6]	@ movhi
1382:Middlewares/Decawave/decadriver/deca_device.c ****     uint8   buffer[2] ;
1383:Middlewares/Decawave/decadriver/deca_device.c **** 
1384:Middlewares/Decawave/decadriver/deca_device.c ****     buffer[0] = regval & 0xFF;
 3138              		.loc 1 1384 15
 3139 000e FB88     		ldrh	r3, [r7, #6]	@ movhi
 3140 0010 DBB2     		uxtb	r3, r3
 3141 0012 3B75     		strb	r3, [r7, #20]
1385:Middlewares/Decawave/decadriver/deca_device.c ****     buffer[1] = regval >> 8 ;
 3142              		.loc 1 1385 15
 3143 0014 FB88     		ldrh	r3, [r7, #6]
 3144 0016 1B0A     		lsrs	r3, r3, #8
 3145 0018 9BB2     		uxth	r3, r3
 3146 001a DBB2     		uxtb	r3, r3
 3147 001c 7B75     		strb	r3, [r7, #21]
1386:Middlewares/Decawave/decadriver/deca_device.c **** 
1387:Middlewares/Decawave/decadriver/deca_device.c ****     dwt_writetodevice(regFileID,regOffset,2,buffer);
 3148              		.loc 1 1387 5
 3149 001e FB68     		ldr	r3, [r7, #12]
 3150 0020 98B2     		uxth	r0, r3
 3151 0022 BB68     		ldr	r3, [r7, #8]
 3152 0024 99B2     		uxth	r1, r3
 3153 0026 07F11403 		add	r3, r7, #20
 3154 002a 0222     		movs	r2, #2
 3155 002c FFF7FEFF 		bl	dwt_writetodevice
1388:Middlewares/Decawave/decadriver/deca_device.c **** } // end dwt_write16bitoffsetreg()
 3156              		.loc 1 1388 1
 3157 0030 00BF     		nop
 3158 0032 1837     		adds	r7, r7, #24
 3159              	.LCFI180:
 3160              		.cfi_def_cfa_offset 8
 3161 0034 BD46     		mov	sp, r7
 3162              	.LCFI181:
 3163              		.cfi_def_cfa_register 13
 3164              		@ sp needed
 3165 0036 80BD     		pop	{r7, pc}
 3166              		.cfi_endproc
 3167              	.LFE40:
 3169              		.section	.text.dwt_write32bitoffsetreg,"ax",%progbits
 3170              		.align	1
 3171              		.global	dwt_write32bitoffsetreg
 3172              		.syntax unified
 3173              		.thumb
 3174              		.thumb_func
 3175              		.fpu fpv4-sp-d16
 3177              	dwt_write32bitoffsetreg:
 3178              	.LFB41:
1389:Middlewares/Decawave/decadriver/deca_device.c **** 
1390:Middlewares/Decawave/decadriver/deca_device.c **** /*! -----------------------------------------------------------------------------------------------
1391:Middlewares/Decawave/decadriver/deca_device.c ****  * @fn dwt_write32bitoffsetreg()
1392:Middlewares/Decawave/decadriver/deca_device.c ****  *
1393:Middlewares/Decawave/decadriver/deca_device.c ****  * @brief  this function is used to write 32-bit value to the DW1000 device registers
1394:Middlewares/Decawave/decadriver/deca_device.c ****  *
1395:Middlewares/Decawave/decadriver/deca_device.c ****  * input parameters:
1396:Middlewares/Decawave/decadriver/deca_device.c ****  * @param regFileID - ID of register file or buffer being accessed
ARM GAS  /tmp/cc0TY0Fa.s 			page 80


1397:Middlewares/Decawave/decadriver/deca_device.c ****  * @param regOffset - the index into register file or buffer being accessed
1398:Middlewares/Decawave/decadriver/deca_device.c ****  * @param regval    - the value to write
1399:Middlewares/Decawave/decadriver/deca_device.c ****  *
1400:Middlewares/Decawave/decadriver/deca_device.c ****  * output parameters
1401:Middlewares/Decawave/decadriver/deca_device.c ****  *
1402:Middlewares/Decawave/decadriver/deca_device.c ****  * no return value
1403:Middlewares/Decawave/decadriver/deca_device.c ****  */
1404:Middlewares/Decawave/decadriver/deca_device.c **** void dwt_write32bitoffsetreg(int regFileID, int regOffset, uint32 regval)
1405:Middlewares/Decawave/decadriver/deca_device.c **** {
 3179              		.loc 1 1405 1
 3180              		.cfi_startproc
 3181              		@ args = 0, pretend = 0, frame = 24
 3182              		@ frame_needed = 1, uses_anonymous_args = 0
 3183 0000 80B5     		push	{r7, lr}
 3184              	.LCFI182:
 3185              		.cfi_def_cfa_offset 8
 3186              		.cfi_offset 7, -8
 3187              		.cfi_offset 14, -4
 3188 0002 86B0     		sub	sp, sp, #24
 3189              	.LCFI183:
 3190              		.cfi_def_cfa_offset 32
 3191 0004 00AF     		add	r7, sp, #0
 3192              	.LCFI184:
 3193              		.cfi_def_cfa_register 7
 3194 0006 F860     		str	r0, [r7, #12]
 3195 0008 B960     		str	r1, [r7, #8]
 3196 000a 7A60     		str	r2, [r7, #4]
1406:Middlewares/Decawave/decadriver/deca_device.c ****     int     j ;
1407:Middlewares/Decawave/decadriver/deca_device.c ****     uint8   buffer[4] ;
1408:Middlewares/Decawave/decadriver/deca_device.c **** 
1409:Middlewares/Decawave/decadriver/deca_device.c ****     for ( j = 0 ; j < 4 ; j++ )
 3197              		.loc 1 1409 13
 3198 000c 0023     		movs	r3, #0
 3199 000e 7B61     		str	r3, [r7, #20]
 3200              		.loc 1 1409 5
 3201 0010 0DE0     		b	.L137
 3202              	.L138:
1410:Middlewares/Decawave/decadriver/deca_device.c ****     {
1411:Middlewares/Decawave/decadriver/deca_device.c ****         buffer[j] = regval & 0xff ;
 3203              		.loc 1 1411 19 discriminator 3
 3204 0012 7B68     		ldr	r3, [r7, #4]
 3205 0014 D9B2     		uxtb	r1, r3
 3206 0016 07F11002 		add	r2, r7, #16
 3207 001a 7B69     		ldr	r3, [r7, #20]
 3208 001c 1344     		add	r3, r3, r2
 3209 001e 0A46     		mov	r2, r1
 3210 0020 1A70     		strb	r2, [r3]
