ARM GAS  /tmp/cc9IMTcg.s 			page 1


   1              		.cpu cortex-m4
   2              		.eabi_attribute 27, 1
   3              		.eabi_attribute 28, 1
   4              		.eabi_attribute 20, 1
   5              		.eabi_attribute 21, 1
   6              		.eabi_attribute 23, 3
   7              		.eabi_attribute 24, 1
   8              		.eabi_attribute 25, 1
   9              		.eabi_attribute 26, 1
  10              		.eabi_attribute 30, 6
  11              		.eabi_attribute 34, 1
  12              		.eabi_attribute 18, 4
  13              		.file	"stm32l4xx_hal_tim_ex.c"
  14              		.text
  15              	.Ltext0:
  16              		.cfi_sections	.debug_frame
  17              		.section	.text.HAL_TIMEx_HallSensor_Init,"ax",%progbits
  18              		.align	1
  19              		.global	HAL_TIMEx_HallSensor_Init
  20              		.arch armv7e-m
  21              		.syntax unified
  22              		.thumb
  23              		.thumb_func
  24              		.fpu fpv4-sp-d16
  26              	HAL_TIMEx_HallSensor_Init:
  27              	.LFB130:
  28              		.file 1 "Drivers/STM32L4xx_HAL_Driver/Src/stm32l4xx_hal_tim_ex.c"
   1:Drivers/STM32L4xx_HAL_Driver/Src/stm32l4xx_hal_tim_ex.c **** /**
   2:Drivers/STM32L4xx_HAL_Driver/Src/stm32l4xx_hal_tim_ex.c ****   ******************************************************************************
   3:Drivers/STM32L4xx_HAL_Driver/Src/stm32l4xx_hal_tim_ex.c ****   * @file    stm32l4xx_hal_tim_ex.c
   4:Drivers/STM32L4xx_HAL_Driver/Src/stm32l4xx_hal_tim_ex.c ****   * @author  MCD Application Team
   5:Drivers/STM32L4xx_HAL_Driver/Src/stm32l4xx_hal_tim_ex.c ****   * @brief   TIM HAL module driver.
   6:Drivers/STM32L4xx_HAL_Driver/Src/stm32l4xx_hal_tim_ex.c ****   *          This file provides firmware functions to manage the following
   7:Drivers/STM32L4xx_HAL_Driver/Src/stm32l4xx_hal_tim_ex.c ****   *          functionalities of the Timer Extended peripheral:
   8:Drivers/STM32L4xx_HAL_Driver/Src/stm32l4xx_hal_tim_ex.c ****   *           + Time Hall Sensor Interface Initialization
   9:Drivers/STM32L4xx_HAL_Driver/Src/stm32l4xx_hal_tim_ex.c ****   *           + Time Hall Sensor Interface Start
  10:Drivers/STM32L4xx_HAL_Driver/Src/stm32l4xx_hal_tim_ex.c ****   *           + Time Complementary signal break and dead time configuration
  11:Drivers/STM32L4xx_HAL_Driver/Src/stm32l4xx_hal_tim_ex.c ****   *           + Time Master and Slave synchronization configuration
  12:Drivers/STM32L4xx_HAL_Driver/Src/stm32l4xx_hal_tim_ex.c ****   *           + Time Output Compare/PWM Channel Configuration (for channels 5 and 6)
  13:Drivers/STM32L4xx_HAL_Driver/Src/stm32l4xx_hal_tim_ex.c ****   *           + Time OCRef clear configuration
  14:Drivers/STM32L4xx_HAL_Driver/Src/stm32l4xx_hal_tim_ex.c ****   *           + Timer remapping capabilities configuration
  15:Drivers/STM32L4xx_HAL_Driver/Src/stm32l4xx_hal_tim_ex.c ****   @verbatim
  16:Drivers/STM32L4xx_HAL_Driver/Src/stm32l4xx_hal_tim_ex.c ****   ==============================================================================
  17:Drivers/STM32L4xx_HAL_Driver/Src/stm32l4xx_hal_tim_ex.c ****                       ##### TIMER Extended features #####
  18:Drivers/STM32L4xx_HAL_Driver/Src/stm32l4xx_hal_tim_ex.c ****   ==============================================================================
  19:Drivers/STM32L4xx_HAL_Driver/Src/stm32l4xx_hal_tim_ex.c ****   [..]
  20:Drivers/STM32L4xx_HAL_Driver/Src/stm32l4xx_hal_tim_ex.c ****     The Timer Extended features include:
  21:Drivers/STM32L4xx_HAL_Driver/Src/stm32l4xx_hal_tim_ex.c ****     (#) Complementary outputs with programmable dead-time for :
  22:Drivers/STM32L4xx_HAL_Driver/Src/stm32l4xx_hal_tim_ex.c ****         (++) Output Compare
  23:Drivers/STM32L4xx_HAL_Driver/Src/stm32l4xx_hal_tim_ex.c ****         (++) PWM generation (Edge and Center-aligned Mode)
  24:Drivers/STM32L4xx_HAL_Driver/Src/stm32l4xx_hal_tim_ex.c ****         (++) One-pulse mode output
  25:Drivers/STM32L4xx_HAL_Driver/Src/stm32l4xx_hal_tim_ex.c ****     (#) Synchronization circuit to control the timer with external signals and to
  26:Drivers/STM32L4xx_HAL_Driver/Src/stm32l4xx_hal_tim_ex.c ****         interconnect several timers together.
  27:Drivers/STM32L4xx_HAL_Driver/Src/stm32l4xx_hal_tim_ex.c ****     (#) Break input to put the timer output signals in reset state or in a known state.
  28:Drivers/STM32L4xx_HAL_Driver/Src/stm32l4xx_hal_tim_ex.c ****     (#) Supports incremental (quadrature) encoder and hall-sensor circuitry for
  29:Drivers/STM32L4xx_HAL_Driver/Src/stm32l4xx_hal_tim_ex.c ****         positioning purposes
  30:Drivers/STM32L4xx_HAL_Driver/Src/stm32l4xx_hal_tim_ex.c **** 
ARM GAS  /tmp/cc9IMTcg.s 			page 2


  31:Drivers/STM32L4xx_HAL_Driver/Src/stm32l4xx_hal_tim_ex.c ****             ##### How to use this driver #####
  32:Drivers/STM32L4xx_HAL_Driver/Src/stm32l4xx_hal_tim_ex.c ****   ==============================================================================
  33:Drivers/STM32L4xx_HAL_Driver/Src/stm32l4xx_hal_tim_ex.c ****     [..]
  34:Drivers/STM32L4xx_HAL_Driver/Src/stm32l4xx_hal_tim_ex.c ****      (#) Initialize the TIM low level resources by implementing the following functions
  35:Drivers/STM32L4xx_HAL_Driver/Src/stm32l4xx_hal_tim_ex.c ****          depending on the selected feature:
  36:Drivers/STM32L4xx_HAL_Driver/Src/stm32l4xx_hal_tim_ex.c ****            (++) Hall Sensor output : HAL_TIMEx_HallSensor_MspInit()
  37:Drivers/STM32L4xx_HAL_Driver/Src/stm32l4xx_hal_tim_ex.c **** 
  38:Drivers/STM32L4xx_HAL_Driver/Src/stm32l4xx_hal_tim_ex.c ****      (#) Initialize the TIM low level resources :
  39:Drivers/STM32L4xx_HAL_Driver/Src/stm32l4xx_hal_tim_ex.c ****         (##) Enable the TIM interface clock using __HAL_RCC_TIMx_CLK_ENABLE();
  40:Drivers/STM32L4xx_HAL_Driver/Src/stm32l4xx_hal_tim_ex.c ****         (##) TIM pins configuration
  41:Drivers/STM32L4xx_HAL_Driver/Src/stm32l4xx_hal_tim_ex.c ****             (+++) Enable the clock for the TIM GPIOs using the following function:
  42:Drivers/STM32L4xx_HAL_Driver/Src/stm32l4xx_hal_tim_ex.c ****               __HAL_RCC_GPIOx_CLK_ENABLE();
  43:Drivers/STM32L4xx_HAL_Driver/Src/stm32l4xx_hal_tim_ex.c ****             (+++) Configure these TIM pins in Alternate function mode using HAL_GPIO_Init();
  44:Drivers/STM32L4xx_HAL_Driver/Src/stm32l4xx_hal_tim_ex.c **** 
  45:Drivers/STM32L4xx_HAL_Driver/Src/stm32l4xx_hal_tim_ex.c ****      (#) The external Clock can be configured, if needed (the default clock is the
  46:Drivers/STM32L4xx_HAL_Driver/Src/stm32l4xx_hal_tim_ex.c ****          internal clock from the APBx), using the following function:
  47:Drivers/STM32L4xx_HAL_Driver/Src/stm32l4xx_hal_tim_ex.c ****          HAL_TIM_ConfigClockSource, the clock configuration should be done before
  48:Drivers/STM32L4xx_HAL_Driver/Src/stm32l4xx_hal_tim_ex.c ****          any start function.
  49:Drivers/STM32L4xx_HAL_Driver/Src/stm32l4xx_hal_tim_ex.c **** 
  50:Drivers/STM32L4xx_HAL_Driver/Src/stm32l4xx_hal_tim_ex.c ****      (#) Configure the TIM in the desired functioning mode using one of the
  51:Drivers/STM32L4xx_HAL_Driver/Src/stm32l4xx_hal_tim_ex.c ****          initialization function of this driver:
  52:Drivers/STM32L4xx_HAL_Driver/Src/stm32l4xx_hal_tim_ex.c ****           (++) HAL_TIMEx_HallSensor_Init() and HAL_TIMEx_ConfigCommutEvent(): to use the
  53:Drivers/STM32L4xx_HAL_Driver/Src/stm32l4xx_hal_tim_ex.c ****                Timer Hall Sensor Interface and the commutation event with the corresponding
  54:Drivers/STM32L4xx_HAL_Driver/Src/stm32l4xx_hal_tim_ex.c ****                Interrupt and DMA request if needed (Note that One Timer is used to interface
  55:Drivers/STM32L4xx_HAL_Driver/Src/stm32l4xx_hal_tim_ex.c ****                with the Hall sensor Interface and another Timer should be used to use
  56:Drivers/STM32L4xx_HAL_Driver/Src/stm32l4xx_hal_tim_ex.c ****                the commutation event).
  57:Drivers/STM32L4xx_HAL_Driver/Src/stm32l4xx_hal_tim_ex.c **** 
  58:Drivers/STM32L4xx_HAL_Driver/Src/stm32l4xx_hal_tim_ex.c ****      (#) Activate the TIM peripheral using one of the start functions:
  59:Drivers/STM32L4xx_HAL_Driver/Src/stm32l4xx_hal_tim_ex.c ****            (++) Complementary Output Compare : HAL_TIMEx_OCN_Start(), HAL_TIMEx_OCN_Start_DMA(), HA
  60:Drivers/STM32L4xx_HAL_Driver/Src/stm32l4xx_hal_tim_ex.c ****            (++) Complementary PWM generation : HAL_TIMEx_PWMN_Start(), HAL_TIMEx_PWMN_Start_DMA(), 
  61:Drivers/STM32L4xx_HAL_Driver/Src/stm32l4xx_hal_tim_ex.c ****            (++) Complementary One-pulse mode output : HAL_TIMEx_OnePulseN_Start(), HAL_TIMEx_OnePul
  62:Drivers/STM32L4xx_HAL_Driver/Src/stm32l4xx_hal_tim_ex.c ****            (++) Hall Sensor output : HAL_TIMEx_HallSensor_Start(), HAL_TIMEx_HallSensor_Start_DMA()
  63:Drivers/STM32L4xx_HAL_Driver/Src/stm32l4xx_hal_tim_ex.c **** 
  64:Drivers/STM32L4xx_HAL_Driver/Src/stm32l4xx_hal_tim_ex.c ****   @endverbatim
  65:Drivers/STM32L4xx_HAL_Driver/Src/stm32l4xx_hal_tim_ex.c ****   ******************************************************************************
  66:Drivers/STM32L4xx_HAL_Driver/Src/stm32l4xx_hal_tim_ex.c ****   * @attention
  67:Drivers/STM32L4xx_HAL_Driver/Src/stm32l4xx_hal_tim_ex.c ****   *
  68:Drivers/STM32L4xx_HAL_Driver/Src/stm32l4xx_hal_tim_ex.c ****   * <h2><center>&copy; Copyright (c) 2017 STMicroelectronics.
  69:Drivers/STM32L4xx_HAL_Driver/Src/stm32l4xx_hal_tim_ex.c ****   * All rights reserved.</center></h2>
  70:Drivers/STM32L4xx_HAL_Driver/Src/stm32l4xx_hal_tim_ex.c ****   *
  71:Drivers/STM32L4xx_HAL_Driver/Src/stm32l4xx_hal_tim_ex.c ****   * This software component is licensed by ST under BSD 3-Clause license,
  72:Drivers/STM32L4xx_HAL_Driver/Src/stm32l4xx_hal_tim_ex.c ****   * the "License"; You may not use this file except in compliance with the
  73:Drivers/STM32L4xx_HAL_Driver/Src/stm32l4xx_hal_tim_ex.c ****   * License. You may obtain a copy of the License at:
  74:Drivers/STM32L4xx_HAL_Driver/Src/stm32l4xx_hal_tim_ex.c ****   *                        opensource.org/licenses/BSD-3-Clause
  75:Drivers/STM32L4xx_HAL_Driver/Src/stm32l4xx_hal_tim_ex.c ****   *
  76:Drivers/STM32L4xx_HAL_Driver/Src/stm32l4xx_hal_tim_ex.c ****   ******************************************************************************
  77:Drivers/STM32L4xx_HAL_Driver/Src/stm32l4xx_hal_tim_ex.c ****   */
  78:Drivers/STM32L4xx_HAL_Driver/Src/stm32l4xx_hal_tim_ex.c **** 
  79:Drivers/STM32L4xx_HAL_Driver/Src/stm32l4xx_hal_tim_ex.c **** /* Includes ------------------------------------------------------------------*/
  80:Drivers/STM32L4xx_HAL_Driver/Src/stm32l4xx_hal_tim_ex.c **** #include "stm32l4xx_hal.h"
  81:Drivers/STM32L4xx_HAL_Driver/Src/stm32l4xx_hal_tim_ex.c **** 
  82:Drivers/STM32L4xx_HAL_Driver/Src/stm32l4xx_hal_tim_ex.c **** /** @addtogroup STM32L4xx_HAL_Driver
  83:Drivers/STM32L4xx_HAL_Driver/Src/stm32l4xx_hal_tim_ex.c ****   * @{
  84:Drivers/STM32L4xx_HAL_Driver/Src/stm32l4xx_hal_tim_ex.c ****   */
  85:Drivers/STM32L4xx_HAL_Driver/Src/stm32l4xx_hal_tim_ex.c **** 
  86:Drivers/STM32L4xx_HAL_Driver/Src/stm32l4xx_hal_tim_ex.c **** /** @defgroup TIMEx TIMEx
  87:Drivers/STM32L4xx_HAL_Driver/Src/stm32l4xx_hal_tim_ex.c ****   * @brief TIM Extended HAL module driver
ARM GAS  /tmp/cc9IMTcg.s 			page 3


  88:Drivers/STM32L4xx_HAL_Driver/Src/stm32l4xx_hal_tim_ex.c ****   * @{
  89:Drivers/STM32L4xx_HAL_Driver/Src/stm32l4xx_hal_tim_ex.c ****   */
  90:Drivers/STM32L4xx_HAL_Driver/Src/stm32l4xx_hal_tim_ex.c **** 
  91:Drivers/STM32L4xx_HAL_Driver/Src/stm32l4xx_hal_tim_ex.c **** #ifdef HAL_TIM_MODULE_ENABLED
  92:Drivers/STM32L4xx_HAL_Driver/Src/stm32l4xx_hal_tim_ex.c **** 
  93:Drivers/STM32L4xx_HAL_Driver/Src/stm32l4xx_hal_tim_ex.c **** /* Private typedef -----------------------------------------------------------*/
  94:Drivers/STM32L4xx_HAL_Driver/Src/stm32l4xx_hal_tim_ex.c **** /* Private define ------------------------------------------------------------*/
  95:Drivers/STM32L4xx_HAL_Driver/Src/stm32l4xx_hal_tim_ex.c **** /* Private macro -------------------------------------------------------------*/
  96:Drivers/STM32L4xx_HAL_Driver/Src/stm32l4xx_hal_tim_ex.c **** /* Private variables ---------------------------------------------------------*/
  97:Drivers/STM32L4xx_HAL_Driver/Src/stm32l4xx_hal_tim_ex.c **** /* Private function prototypes -----------------------------------------------*/
  98:Drivers/STM32L4xx_HAL_Driver/Src/stm32l4xx_hal_tim_ex.c **** static void TIM_CCxNChannelCmd(TIM_TypeDef *TIMx, uint32_t Channel, uint32_t ChannelNState);
  99:Drivers/STM32L4xx_HAL_Driver/Src/stm32l4xx_hal_tim_ex.c **** 
 100:Drivers/STM32L4xx_HAL_Driver/Src/stm32l4xx_hal_tim_ex.c **** /* Exported functions --------------------------------------------------------*/
 101:Drivers/STM32L4xx_HAL_Driver/Src/stm32l4xx_hal_tim_ex.c **** /** @defgroup TIMEx_Exported_Functions TIM Extended Exported Functions
 102:Drivers/STM32L4xx_HAL_Driver/Src/stm32l4xx_hal_tim_ex.c ****   * @{
 103:Drivers/STM32L4xx_HAL_Driver/Src/stm32l4xx_hal_tim_ex.c ****   */
 104:Drivers/STM32L4xx_HAL_Driver/Src/stm32l4xx_hal_tim_ex.c **** 
 105:Drivers/STM32L4xx_HAL_Driver/Src/stm32l4xx_hal_tim_ex.c **** /** @defgroup TIMEx_Exported_Functions_Group1 Extended Timer Hall Sensor functions
 106:Drivers/STM32L4xx_HAL_Driver/Src/stm32l4xx_hal_tim_ex.c ****   * @brief    Timer Hall Sensor functions
 107:Drivers/STM32L4xx_HAL_Driver/Src/stm32l4xx_hal_tim_ex.c ****   *
 108:Drivers/STM32L4xx_HAL_Driver/Src/stm32l4xx_hal_tim_ex.c **** @verbatim
 109:Drivers/STM32L4xx_HAL_Driver/Src/stm32l4xx_hal_tim_ex.c ****   ==============================================================================
 110:Drivers/STM32L4xx_HAL_Driver/Src/stm32l4xx_hal_tim_ex.c ****                       ##### Timer Hall Sensor functions #####
 111:Drivers/STM32L4xx_HAL_Driver/Src/stm32l4xx_hal_tim_ex.c ****   ==============================================================================
 112:Drivers/STM32L4xx_HAL_Driver/Src/stm32l4xx_hal_tim_ex.c ****   [..]
 113:Drivers/STM32L4xx_HAL_Driver/Src/stm32l4xx_hal_tim_ex.c ****     This section provides functions allowing to:
 114:Drivers/STM32L4xx_HAL_Driver/Src/stm32l4xx_hal_tim_ex.c ****     (+) Initialize and configure TIM HAL Sensor.
 115:Drivers/STM32L4xx_HAL_Driver/Src/stm32l4xx_hal_tim_ex.c ****     (+) De-initialize TIM HAL Sensor.
 116:Drivers/STM32L4xx_HAL_Driver/Src/stm32l4xx_hal_tim_ex.c ****     (+) Start the Hall Sensor Interface.
 117:Drivers/STM32L4xx_HAL_Driver/Src/stm32l4xx_hal_tim_ex.c ****     (+) Stop the Hall Sensor Interface.
 118:Drivers/STM32L4xx_HAL_Driver/Src/stm32l4xx_hal_tim_ex.c ****     (+) Start the Hall Sensor Interface and enable interrupts.
 119:Drivers/STM32L4xx_HAL_Driver/Src/stm32l4xx_hal_tim_ex.c ****     (+) Stop the Hall Sensor Interface and disable interrupts.
 120:Drivers/STM32L4xx_HAL_Driver/Src/stm32l4xx_hal_tim_ex.c ****     (+) Start the Hall Sensor Interface and enable DMA transfers.
 121:Drivers/STM32L4xx_HAL_Driver/Src/stm32l4xx_hal_tim_ex.c ****     (+) Stop the Hall Sensor Interface and disable DMA transfers.
 122:Drivers/STM32L4xx_HAL_Driver/Src/stm32l4xx_hal_tim_ex.c **** 
 123:Drivers/STM32L4xx_HAL_Driver/Src/stm32l4xx_hal_tim_ex.c **** @endverbatim
 124:Drivers/STM32L4xx_HAL_Driver/Src/stm32l4xx_hal_tim_ex.c ****   * @{
 125:Drivers/STM32L4xx_HAL_Driver/Src/stm32l4xx_hal_tim_ex.c ****   */
 126:Drivers/STM32L4xx_HAL_Driver/Src/stm32l4xx_hal_tim_ex.c **** /**
 127:Drivers/STM32L4xx_HAL_Driver/Src/stm32l4xx_hal_tim_ex.c ****   * @brief  Initializes the TIM Hall Sensor Interface and initialize the associated handle.
 128:Drivers/STM32L4xx_HAL_Driver/Src/stm32l4xx_hal_tim_ex.c ****   * @param  htim TIM Hall Sensor Interface handle
 129:Drivers/STM32L4xx_HAL_Driver/Src/stm32l4xx_hal_tim_ex.c ****   * @param  sConfig TIM Hall Sensor configuration structure
 130:Drivers/STM32L4xx_HAL_Driver/Src/stm32l4xx_hal_tim_ex.c ****   * @retval HAL status
 131:Drivers/STM32L4xx_HAL_Driver/Src/stm32l4xx_hal_tim_ex.c ****   */
 132:Drivers/STM32L4xx_HAL_Driver/Src/stm32l4xx_hal_tim_ex.c **** HAL_StatusTypeDef HAL_TIMEx_HallSensor_Init(TIM_HandleTypeDef *htim, TIM_HallSensor_InitTypeDef *sC
 133:Drivers/STM32L4xx_HAL_Driver/Src/stm32l4xx_hal_tim_ex.c **** {
  29              		.loc 1 133 1
  30              		.cfi_startproc
  31              		@ args = 0, pretend = 0, frame = 40
  32              		@ frame_needed = 1, uses_anonymous_args = 0
  33 0000 80B5     		push	{r7, lr}
  34              	.LCFI0:
  35              		.cfi_def_cfa_offset 8
  36              		.cfi_offset 7, -8
  37              		.cfi_offset 14, -4
  38 0002 8AB0     		sub	sp, sp, #40
  39              	.LCFI1:
ARM GAS  /tmp/cc9IMTcg.s 			page 4


  40              		.cfi_def_cfa_offset 48
  41 0004 00AF     		add	r7, sp, #0
  42              	.LCFI2:
  43              		.cfi_def_cfa_register 7
  44 0006 7860     		str	r0, [r7, #4]
  45 0008 3960     		str	r1, [r7]
 134:Drivers/STM32L4xx_HAL_Driver/Src/stm32l4xx_hal_tim_ex.c ****   TIM_OC_InitTypeDef OC_Config;
 135:Drivers/STM32L4xx_HAL_Driver/Src/stm32l4xx_hal_tim_ex.c **** 
 136:Drivers/STM32L4xx_HAL_Driver/Src/stm32l4xx_hal_tim_ex.c ****   /* Check the TIM handle allocation */
 137:Drivers/STM32L4xx_HAL_Driver/Src/stm32l4xx_hal_tim_ex.c ****   if (htim == NULL)
  46              		.loc 1 137 6
  47 000a 7B68     		ldr	r3, [r7, #4]
  48 000c 002B     		cmp	r3, #0
  49 000e 01D1     		bne	.L2
 138:Drivers/STM32L4xx_HAL_Driver/Src/stm32l4xx_hal_tim_ex.c ****   {
 139:Drivers/STM32L4xx_HAL_Driver/Src/stm32l4xx_hal_tim_ex.c ****     return HAL_ERROR;
  50              		.loc 1 139 12
  51 0010 0123     		movs	r3, #1
  52 0012 88E0     		b	.L5
  53              	.L2:
 140:Drivers/STM32L4xx_HAL_Driver/Src/stm32l4xx_hal_tim_ex.c ****   }
 141:Drivers/STM32L4xx_HAL_Driver/Src/stm32l4xx_hal_tim_ex.c **** 
 142:Drivers/STM32L4xx_HAL_Driver/Src/stm32l4xx_hal_tim_ex.c ****   /* Check the parameters */
 143:Drivers/STM32L4xx_HAL_Driver/Src/stm32l4xx_hal_tim_ex.c ****   assert_param(IS_TIM_HALL_SENSOR_INTERFACE_INSTANCE(htim->Instance));
 144:Drivers/STM32L4xx_HAL_Driver/Src/stm32l4xx_hal_tim_ex.c ****   assert_param(IS_TIM_COUNTER_MODE(htim->Init.CounterMode));
 145:Drivers/STM32L4xx_HAL_Driver/Src/stm32l4xx_hal_tim_ex.c ****   assert_param(IS_TIM_CLOCKDIVISION_DIV(htim->Init.ClockDivision));
 146:Drivers/STM32L4xx_HAL_Driver/Src/stm32l4xx_hal_tim_ex.c ****   assert_param(IS_TIM_AUTORELOAD_PRELOAD(htim->Init.AutoReloadPreload));
 147:Drivers/STM32L4xx_HAL_Driver/Src/stm32l4xx_hal_tim_ex.c ****   assert_param(IS_TIM_IC_POLARITY(sConfig->IC1Polarity));
 148:Drivers/STM32L4xx_HAL_Driver/Src/stm32l4xx_hal_tim_ex.c ****   assert_param(IS_TIM_IC_PRESCALER(sConfig->IC1Prescaler));
 149:Drivers/STM32L4xx_HAL_Driver/Src/stm32l4xx_hal_tim_ex.c ****   assert_param(IS_TIM_IC_FILTER(sConfig->IC1Filter));
 150:Drivers/STM32L4xx_HAL_Driver/Src/stm32l4xx_hal_tim_ex.c **** 
 151:Drivers/STM32L4xx_HAL_Driver/Src/stm32l4xx_hal_tim_ex.c ****   if (htim->State == HAL_TIM_STATE_RESET)
  54              		.loc 1 151 11
  55 0014 7B68     		ldr	r3, [r7, #4]
  56 0016 93F83D30 		ldrb	r3, [r3, #61]
  57 001a DBB2     		uxtb	r3, r3
  58              		.loc 1 151 6
  59 001c 002B     		cmp	r3, #0
  60 001e 06D1     		bne	.L4
 152:Drivers/STM32L4xx_HAL_Driver/Src/stm32l4xx_hal_tim_ex.c ****   {
 153:Drivers/STM32L4xx_HAL_Driver/Src/stm32l4xx_hal_tim_ex.c ****     /* Allocate lock resource and initialize it */
 154:Drivers/STM32L4xx_HAL_Driver/Src/stm32l4xx_hal_tim_ex.c ****     htim->Lock = HAL_UNLOCKED;
  61              		.loc 1 154 16
  62 0020 7B68     		ldr	r3, [r7, #4]
  63 0022 0022     		movs	r2, #0
  64 0024 83F83C20 		strb	r2, [r3, #60]
 155:Drivers/STM32L4xx_HAL_Driver/Src/stm32l4xx_hal_tim_ex.c **** 
 156:Drivers/STM32L4xx_HAL_Driver/Src/stm32l4xx_hal_tim_ex.c **** #if (USE_HAL_TIM_REGISTER_CALLBACKS == 1)
 157:Drivers/STM32L4xx_HAL_Driver/Src/stm32l4xx_hal_tim_ex.c ****     /* Reset interrupt callbacks to legacy week callbacks */
 158:Drivers/STM32L4xx_HAL_Driver/Src/stm32l4xx_hal_tim_ex.c ****     TIM_ResetCallback(htim);
 159:Drivers/STM32L4xx_HAL_Driver/Src/stm32l4xx_hal_tim_ex.c **** 
 160:Drivers/STM32L4xx_HAL_Driver/Src/stm32l4xx_hal_tim_ex.c ****     if (htim->HallSensor_MspInitCallback == NULL)
 161:Drivers/STM32L4xx_HAL_Driver/Src/stm32l4xx_hal_tim_ex.c ****     {
 162:Drivers/STM32L4xx_HAL_Driver/Src/stm32l4xx_hal_tim_ex.c ****       htim->HallSensor_MspInitCallback = HAL_TIMEx_HallSensor_MspInit;
 163:Drivers/STM32L4xx_HAL_Driver/Src/stm32l4xx_hal_tim_ex.c ****     }
 164:Drivers/STM32L4xx_HAL_Driver/Src/stm32l4xx_hal_tim_ex.c ****     /* Init the low level hardware : GPIO, CLOCK, NVIC */
 165:Drivers/STM32L4xx_HAL_Driver/Src/stm32l4xx_hal_tim_ex.c ****     htim->HallSensor_MspInitCallback(htim);
ARM GAS  /tmp/cc9IMTcg.s 			page 5


 166:Drivers/STM32L4xx_HAL_Driver/Src/stm32l4xx_hal_tim_ex.c **** #else
 167:Drivers/STM32L4xx_HAL_Driver/Src/stm32l4xx_hal_tim_ex.c ****     /* Init the low level hardware : GPIO, CLOCK, NVIC and DMA */
 168:Drivers/STM32L4xx_HAL_Driver/Src/stm32l4xx_hal_tim_ex.c ****     HAL_TIMEx_HallSensor_MspInit(htim);
  65              		.loc 1 168 5
  66 0028 7868     		ldr	r0, [r7, #4]
  67 002a FFF7FEFF 		bl	HAL_TIMEx_HallSensor_MspInit
  68              	.L4:
 169:Drivers/STM32L4xx_HAL_Driver/Src/stm32l4xx_hal_tim_ex.c **** #endif /* USE_HAL_TIM_REGISTER_CALLBACKS */
 170:Drivers/STM32L4xx_HAL_Driver/Src/stm32l4xx_hal_tim_ex.c ****   }
 171:Drivers/STM32L4xx_HAL_Driver/Src/stm32l4xx_hal_tim_ex.c **** 
 172:Drivers/STM32L4xx_HAL_Driver/Src/stm32l4xx_hal_tim_ex.c ****   /* Set the TIM state */
 173:Drivers/STM32L4xx_HAL_Driver/Src/stm32l4xx_hal_tim_ex.c ****   htim->State = HAL_TIM_STATE_BUSY;
  69              		.loc 1 173 15
  70 002e 7B68     		ldr	r3, [r7, #4]
  71 0030 0222     		movs	r2, #2
  72 0032 83F83D20 		strb	r2, [r3, #61]
 174:Drivers/STM32L4xx_HAL_Driver/Src/stm32l4xx_hal_tim_ex.c **** 
 175:Drivers/STM32L4xx_HAL_Driver/Src/stm32l4xx_hal_tim_ex.c ****   /* Configure the Time base in the Encoder Mode */
 176:Drivers/STM32L4xx_HAL_Driver/Src/stm32l4xx_hal_tim_ex.c ****   TIM_Base_SetConfig(htim->Instance, &htim->Init);
  73              		.loc 1 176 3
  74 0036 7B68     		ldr	r3, [r7, #4]
  75 0038 1A68     		ldr	r2, [r3]
  76 003a 7B68     		ldr	r3, [r7, #4]
  77 003c 0433     		adds	r3, r3, #4
  78 003e 1946     		mov	r1, r3
  79 0040 1046     		mov	r0, r2
  80 0042 FFF7FEFF 		bl	TIM_Base_SetConfig
 177:Drivers/STM32L4xx_HAL_Driver/Src/stm32l4xx_hal_tim_ex.c **** 
 178:Drivers/STM32L4xx_HAL_Driver/Src/stm32l4xx_hal_tim_ex.c ****   /* Configure the Channel 1 as Input Channel to interface with the three Outputs of the  Hall sens
 179:Drivers/STM32L4xx_HAL_Driver/Src/stm32l4xx_hal_tim_ex.c ****   TIM_TI1_SetConfig(htim->Instance, sConfig->IC1Polarity, TIM_ICSELECTION_TRC, sConfig->IC1Filter);
  81              		.loc 1 179 3
  82 0046 7B68     		ldr	r3, [r7, #4]
  83 0048 1868     		ldr	r0, [r3]
  84 004a 3B68     		ldr	r3, [r7]
  85 004c 1968     		ldr	r1, [r3]
  86 004e 3B68     		ldr	r3, [r7]
  87 0050 9B68     		ldr	r3, [r3, #8]
  88 0052 0322     		movs	r2, #3
  89 0054 FFF7FEFF 		bl	TIM_TI1_SetConfig
 180:Drivers/STM32L4xx_HAL_Driver/Src/stm32l4xx_hal_tim_ex.c **** 
 181:Drivers/STM32L4xx_HAL_Driver/Src/stm32l4xx_hal_tim_ex.c ****   /* Reset the IC1PSC Bits */
 182:Drivers/STM32L4xx_HAL_Driver/Src/stm32l4xx_hal_tim_ex.c ****   htim->Instance->CCMR1 &= ~TIM_CCMR1_IC1PSC;
  90              		.loc 1 182 7
  91 0058 7B68     		ldr	r3, [r7, #4]
  92 005a 1B68     		ldr	r3, [r3]
  93              		.loc 1 182 25
  94 005c 9A69     		ldr	r2, [r3, #24]
  95              		.loc 1 182 7
  96 005e 7B68     		ldr	r3, [r7, #4]
  97 0060 1B68     		ldr	r3, [r3]
  98              		.loc 1 182 25
  99 0062 22F00C02 		bic	r2, r2, #12
 100 0066 9A61     		str	r2, [r3, #24]
 183:Drivers/STM32L4xx_HAL_Driver/Src/stm32l4xx_hal_tim_ex.c ****   /* Set the IC1PSC value */
 184:Drivers/STM32L4xx_HAL_Driver/Src/stm32l4xx_hal_tim_ex.c ****   htim->Instance->CCMR1 |= sConfig->IC1Prescaler;
 101              		.loc 1 184 7
 102 0068 7B68     		ldr	r3, [r7, #4]
ARM GAS  /tmp/cc9IMTcg.s 			page 6


 103 006a 1B68     		ldr	r3, [r3]
 104              		.loc 1 184 25
 105 006c 9969     		ldr	r1, [r3, #24]
 106              		.loc 1 184 35
 107 006e 3B68     		ldr	r3, [r7]
 108 0070 5A68     		ldr	r2, [r3, #4]
 109              		.loc 1 184 7
 110 0072 7B68     		ldr	r3, [r7, #4]
 111 0074 1B68     		ldr	r3, [r3]
 112              		.loc 1 184 25
 113 0076 0A43     		orrs	r2, r2, r1
 114 0078 9A61     		str	r2, [r3, #24]
 185:Drivers/STM32L4xx_HAL_Driver/Src/stm32l4xx_hal_tim_ex.c **** 
 186:Drivers/STM32L4xx_HAL_Driver/Src/stm32l4xx_hal_tim_ex.c ****   /* Enable the Hall sensor interface (XOR function of the three inputs) */
 187:Drivers/STM32L4xx_HAL_Driver/Src/stm32l4xx_hal_tim_ex.c ****   htim->Instance->CR2 |= TIM_CR2_TI1S;
 115              		.loc 1 187 7
 116 007a 7B68     		ldr	r3, [r7, #4]
 117 007c 1B68     		ldr	r3, [r3]
 118              		.loc 1 187 23
 119 007e 5A68     		ldr	r2, [r3, #4]
 120              		.loc 1 187 7
 121 0080 7B68     		ldr	r3, [r7, #4]
 122 0082 1B68     		ldr	r3, [r3]
 123              		.loc 1 187 23
 124 0084 42F08002 		orr	r2, r2, #128
 125 0088 5A60     		str	r2, [r3, #4]
 188:Drivers/STM32L4xx_HAL_Driver/Src/stm32l4xx_hal_tim_ex.c **** 
 189:Drivers/STM32L4xx_HAL_Driver/Src/stm32l4xx_hal_tim_ex.c ****   /* Select the TIM_TS_TI1F_ED signal as Input trigger for the TIM */
 190:Drivers/STM32L4xx_HAL_Driver/Src/stm32l4xx_hal_tim_ex.c ****   htim->Instance->SMCR &= ~TIM_SMCR_TS;
 126              		.loc 1 190 7
 127 008a 7B68     		ldr	r3, [r7, #4]
 128 008c 1B68     		ldr	r3, [r3]
 129              		.loc 1 190 24
 130 008e 9A68     		ldr	r2, [r3, #8]
 131              		.loc 1 190 7
 132 0090 7B68     		ldr	r3, [r7, #4]
 133 0092 1B68     		ldr	r3, [r3]
 134              		.loc 1 190 24
 135 0094 22F07002 		bic	r2, r2, #112
 136 0098 9A60     		str	r2, [r3, #8]
 191:Drivers/STM32L4xx_HAL_Driver/Src/stm32l4xx_hal_tim_ex.c ****   htim->Instance->SMCR |= TIM_TS_TI1F_ED;
 137              		.loc 1 191 7
 138 009a 7B68     		ldr	r3, [r7, #4]
 139 009c 1B68     		ldr	r3, [r3]
 140              		.loc 1 191 24
 141 009e 9A68     		ldr	r2, [r3, #8]
 142              		.loc 1 191 7
 143 00a0 7B68     		ldr	r3, [r7, #4]
 144 00a2 1B68     		ldr	r3, [r3]
 145              		.loc 1 191 24
 146 00a4 42F04002 		orr	r2, r2, #64
 147 00a8 9A60     		str	r2, [r3, #8]
 192:Drivers/STM32L4xx_HAL_Driver/Src/stm32l4xx_hal_tim_ex.c **** 
 193:Drivers/STM32L4xx_HAL_Driver/Src/stm32l4xx_hal_tim_ex.c ****   /* Use the TIM_TS_TI1F_ED signal to reset the TIM counter each edge detection */
 194:Drivers/STM32L4xx_HAL_Driver/Src/stm32l4xx_hal_tim_ex.c ****   htim->Instance->SMCR &= ~TIM_SMCR_SMS;
 148              		.loc 1 194 7
 149 00aa 7B68     		ldr	r3, [r7, #4]
ARM GAS  /tmp/cc9IMTcg.s 			page 7


 150 00ac 1B68     		ldr	r3, [r3]
 151              		.loc 1 194 24
 152 00ae 9B68     		ldr	r3, [r3, #8]
 153              		.loc 1 194 7
 154 00b0 7A68     		ldr	r2, [r7, #4]
 155 00b2 1268     		ldr	r2, [r2]
 156              		.loc 1 194 24
 157 00b4 23F48033 		bic	r3, r3, #65536
 158 00b8 23F00703 		bic	r3, r3, #7
 159 00bc 9360     		str	r3, [r2, #8]
 195:Drivers/STM32L4xx_HAL_Driver/Src/stm32l4xx_hal_tim_ex.c ****   htim->Instance->SMCR |= TIM_SLAVEMODE_RESET;
 160              		.loc 1 195 7
 161 00be 7B68     		ldr	r3, [r7, #4]
 162 00c0 1B68     		ldr	r3, [r3]
 163              		.loc 1 195 24
 164 00c2 9A68     		ldr	r2, [r3, #8]
 165              		.loc 1 195 7
 166 00c4 7B68     		ldr	r3, [r7, #4]
 167 00c6 1B68     		ldr	r3, [r3]
 168              		.loc 1 195 24
 169 00c8 42F00402 		orr	r2, r2, #4
 170 00cc 9A60     		str	r2, [r3, #8]
 196:Drivers/STM32L4xx_HAL_Driver/Src/stm32l4xx_hal_tim_ex.c **** 
 197:Drivers/STM32L4xx_HAL_Driver/Src/stm32l4xx_hal_tim_ex.c ****   /* Program channel 2 in PWM 2 mode with the desired Commutation_Delay*/
 198:Drivers/STM32L4xx_HAL_Driver/Src/stm32l4xx_hal_tim_ex.c ****   OC_Config.OCFastMode = TIM_OCFAST_DISABLE;
 171              		.loc 1 198 24
 172 00ce 0023     		movs	r3, #0
 173 00d0 FB61     		str	r3, [r7, #28]
 199:Drivers/STM32L4xx_HAL_Driver/Src/stm32l4xx_hal_tim_ex.c ****   OC_Config.OCIdleState = TIM_OCIDLESTATE_RESET;
 174              		.loc 1 199 25
 175 00d2 0023     		movs	r3, #0
 176 00d4 3B62     		str	r3, [r7, #32]
 200:Drivers/STM32L4xx_HAL_Driver/Src/stm32l4xx_hal_tim_ex.c ****   OC_Config.OCMode = TIM_OCMODE_PWM2;
 177              		.loc 1 200 20
 178 00d6 7023     		movs	r3, #112
 179 00d8 FB60     		str	r3, [r7, #12]
 201:Drivers/STM32L4xx_HAL_Driver/Src/stm32l4xx_hal_tim_ex.c ****   OC_Config.OCNIdleState = TIM_OCNIDLESTATE_RESET;
 180              		.loc 1 201 26
 181 00da 0023     		movs	r3, #0
 182 00dc 7B62     		str	r3, [r7, #36]
 202:Drivers/STM32L4xx_HAL_Driver/Src/stm32l4xx_hal_tim_ex.c ****   OC_Config.OCNPolarity = TIM_OCNPOLARITY_HIGH;
 183              		.loc 1 202 25
 184 00de 0023     		movs	r3, #0
 185 00e0 BB61     		str	r3, [r7, #24]
 203:Drivers/STM32L4xx_HAL_Driver/Src/stm32l4xx_hal_tim_ex.c ****   OC_Config.OCPolarity = TIM_OCPOLARITY_HIGH;
 186              		.loc 1 203 24
 187 00e2 0023     		movs	r3, #0
 188 00e4 7B61     		str	r3, [r7, #20]
 204:Drivers/STM32L4xx_HAL_Driver/Src/stm32l4xx_hal_tim_ex.c ****   OC_Config.Pulse = sConfig->Commutation_Delay;
 189              		.loc 1 204 28
 190 00e6 3B68     		ldr	r3, [r7]
 191 00e8 DB68     		ldr	r3, [r3, #12]
 192              		.loc 1 204 19
 193 00ea 3B61     		str	r3, [r7, #16]
 205:Drivers/STM32L4xx_HAL_Driver/Src/stm32l4xx_hal_tim_ex.c **** 
 206:Drivers/STM32L4xx_HAL_Driver/Src/stm32l4xx_hal_tim_ex.c ****   TIM_OC2_SetConfig(htim->Instance, &OC_Config);
 194              		.loc 1 206 3
ARM GAS  /tmp/cc9IMTcg.s 			page 8


 195 00ec 7B68     		ldr	r3, [r7, #4]
 196 00ee 1B68     		ldr	r3, [r3]
 197 00f0 07F10C02 		add	r2, r7, #12
 198 00f4 1146     		mov	r1, r2
 199 00f6 1846     		mov	r0, r3
 200 00f8 FFF7FEFF 		bl	TIM_OC2_SetConfig
 207:Drivers/STM32L4xx_HAL_Driver/Src/stm32l4xx_hal_tim_ex.c **** 
 208:Drivers/STM32L4xx_HAL_Driver/Src/stm32l4xx_hal_tim_ex.c ****   /* Select OC2REF as trigger output on TRGO: write the MMS bits in the TIMx_CR2
 209:Drivers/STM32L4xx_HAL_Driver/Src/stm32l4xx_hal_tim_ex.c ****     register to 101 */
 210:Drivers/STM32L4xx_HAL_Driver/Src/stm32l4xx_hal_tim_ex.c ****   htim->Instance->CR2 &= ~TIM_CR2_MMS;
 201              		.loc 1 210 7
 202 00fc 7B68     		ldr	r3, [r7, #4]
 203 00fe 1B68     		ldr	r3, [r3]
 204              		.loc 1 210 23
 205 0100 5A68     		ldr	r2, [r3, #4]
 206              		.loc 1 210 7
 207 0102 7B68     		ldr	r3, [r7, #4]
 208 0104 1B68     		ldr	r3, [r3]
 209              		.loc 1 210 23
 210 0106 22F07002 		bic	r2, r2, #112
 211 010a 5A60     		str	r2, [r3, #4]
 211:Drivers/STM32L4xx_HAL_Driver/Src/stm32l4xx_hal_tim_ex.c ****   htim->Instance->CR2 |= TIM_TRGO_OC2REF;
 212              		.loc 1 211 7
 213 010c 7B68     		ldr	r3, [r7, #4]
 214 010e 1B68     		ldr	r3, [r3]
 215              		.loc 1 211 23
 216 0110 5A68     		ldr	r2, [r3, #4]
 217              		.loc 1 211 7
 218 0112 7B68     		ldr	r3, [r7, #4]
 219 0114 1B68     		ldr	r3, [r3]
 220              		.loc 1 211 23
 221 0116 42F05002 		orr	r2, r2, #80
 222 011a 5A60     		str	r2, [r3, #4]
 212:Drivers/STM32L4xx_HAL_Driver/Src/stm32l4xx_hal_tim_ex.c **** 
 213:Drivers/STM32L4xx_HAL_Driver/Src/stm32l4xx_hal_tim_ex.c ****   /* Initialize the TIM state*/
 214:Drivers/STM32L4xx_HAL_Driver/Src/stm32l4xx_hal_tim_ex.c ****   htim->State = HAL_TIM_STATE_READY;
 223              		.loc 1 214 15
 224 011c 7B68     		ldr	r3, [r7, #4]
 225 011e 0122     		movs	r2, #1
 226 0120 83F83D20 		strb	r2, [r3, #61]
 215:Drivers/STM32L4xx_HAL_Driver/Src/stm32l4xx_hal_tim_ex.c **** 
 216:Drivers/STM32L4xx_HAL_Driver/Src/stm32l4xx_hal_tim_ex.c ****   return HAL_OK;
 227              		.loc 1 216 10
 228 0124 0023     		movs	r3, #0
 229              	.L5:
 217:Drivers/STM32L4xx_HAL_Driver/Src/stm32l4xx_hal_tim_ex.c **** }
 230              		.loc 1 217 1 discriminator 1
 231 0126 1846     		mov	r0, r3
 232 0128 2837     		adds	r7, r7, #40
 233              	.LCFI3:
 234              		.cfi_def_cfa_offset 8
 235 012a BD46     		mov	sp, r7
 236              	.LCFI4:
 237              		.cfi_def_cfa_register 13
 238              		@ sp needed
 239 012c 80BD     		pop	{r7, pc}
 240              		.cfi_endproc
ARM GAS  /tmp/cc9IMTcg.s 			page 9


 241              	.LFE130:
 243              		.section	.text.HAL_TIMEx_HallSensor_DeInit,"ax",%progbits
 244              		.align	1
 245              		.global	HAL_TIMEx_HallSensor_DeInit
 246              		.syntax unified
 247              		.thumb
 248              		.thumb_func
 249              		.fpu fpv4-sp-d16
 251              	HAL_TIMEx_HallSensor_DeInit:
 252              	.LFB131:
 218:Drivers/STM32L4xx_HAL_Driver/Src/stm32l4xx_hal_tim_ex.c **** 
 219:Drivers/STM32L4xx_HAL_Driver/Src/stm32l4xx_hal_tim_ex.c **** /**
 220:Drivers/STM32L4xx_HAL_Driver/Src/stm32l4xx_hal_tim_ex.c ****   * @brief  DeInitializes the TIM Hall Sensor interface
 221:Drivers/STM32L4xx_HAL_Driver/Src/stm32l4xx_hal_tim_ex.c ****   * @param  htim TIM Hall Sensor Interface handle
 222:Drivers/STM32L4xx_HAL_Driver/Src/stm32l4xx_hal_tim_ex.c ****   * @retval HAL status
 223:Drivers/STM32L4xx_HAL_Driver/Src/stm32l4xx_hal_tim_ex.c ****   */
 224:Drivers/STM32L4xx_HAL_Driver/Src/stm32l4xx_hal_tim_ex.c **** HAL_StatusTypeDef HAL_TIMEx_HallSensor_DeInit(TIM_HandleTypeDef *htim)
 225:Drivers/STM32L4xx_HAL_Driver/Src/stm32l4xx_hal_tim_ex.c **** {
 253              		.loc 1 225 1
 254              		.cfi_startproc
 255              		@ args = 0, pretend = 0, frame = 8
 256              		@ frame_needed = 1, uses_anonymous_args = 0
 257 0000 80B5     		push	{r7, lr}
 258              	.LCFI5:
 259              		.cfi_def_cfa_offset 8
 260              		.cfi_offset 7, -8
 261              		.cfi_offset 14, -4
 262 0002 82B0     		sub	sp, sp, #8
 263              	.LCFI6:
 264              		.cfi_def_cfa_offset 16
 265 0004 00AF     		add	r7, sp, #0
 266              	.LCFI7:
 267              		.cfi_def_cfa_register 7
 268 0006 7860     		str	r0, [r7, #4]
 226:Drivers/STM32L4xx_HAL_Driver/Src/stm32l4xx_hal_tim_ex.c ****   /* Check the parameters */
 227:Drivers/STM32L4xx_HAL_Driver/Src/stm32l4xx_hal_tim_ex.c ****   assert_param(IS_TIM_INSTANCE(htim->Instance));
 228:Drivers/STM32L4xx_HAL_Driver/Src/stm32l4xx_hal_tim_ex.c **** 
 229:Drivers/STM32L4xx_HAL_Driver/Src/stm32l4xx_hal_tim_ex.c ****   htim->State = HAL_TIM_STATE_BUSY;
 269              		.loc 1 229 15
 270 0008 7B68     		ldr	r3, [r7, #4]
 271 000a 0222     		movs	r2, #2
 272 000c 83F83D20 		strb	r2, [r3, #61]
 230:Drivers/STM32L4xx_HAL_Driver/Src/stm32l4xx_hal_tim_ex.c **** 
 231:Drivers/STM32L4xx_HAL_Driver/Src/stm32l4xx_hal_tim_ex.c ****   /* Disable the TIM Peripheral Clock */
 232:Drivers/STM32L4xx_HAL_Driver/Src/stm32l4xx_hal_tim_ex.c ****   __HAL_TIM_DISABLE(htim);
 273              		.loc 1 232 3
 274 0010 7B68     		ldr	r3, [r7, #4]
 275 0012 1B68     		ldr	r3, [r3]
 276 0014 1A6A     		ldr	r2, [r3, #32]
 277 0016 41F21113 		movw	r3, #4369
 278 001a 1340     		ands	r3, r3, r2
 279 001c 002B     		cmp	r3, #0
 280 001e 0FD1     		bne	.L7
 281              		.loc 1 232 3 is_stmt 0 discriminator 1
 282 0020 7B68     		ldr	r3, [r7, #4]
 283 0022 1B68     		ldr	r3, [r3]
 284 0024 1A6A     		ldr	r2, [r3, #32]
ARM GAS  /tmp/cc9IMTcg.s 			page 10


 285 0026 40F24443 		movw	r3, #1092
 286 002a 1340     		ands	r3, r3, r2
 287 002c 002B     		cmp	r3, #0
 288 002e 07D1     		bne	.L7
 289              		.loc 1 232 3 discriminator 2
 290 0030 7B68     		ldr	r3, [r7, #4]
 291 0032 1B68     		ldr	r3, [r3]
 292 0034 1A68     		ldr	r2, [r3]
 293 0036 7B68     		ldr	r3, [r7, #4]
 294 0038 1B68     		ldr	r3, [r3]
 295 003a 22F00102 		bic	r2, r2, #1
 296 003e 1A60     		str	r2, [r3]
 297              	.L7:
 233:Drivers/STM32L4xx_HAL_Driver/Src/stm32l4xx_hal_tim_ex.c **** 
 234:Drivers/STM32L4xx_HAL_Driver/Src/stm32l4xx_hal_tim_ex.c **** #if (USE_HAL_TIM_REGISTER_CALLBACKS == 1)
 235:Drivers/STM32L4xx_HAL_Driver/Src/stm32l4xx_hal_tim_ex.c ****   if (htim->HallSensor_MspDeInitCallback == NULL)
 236:Drivers/STM32L4xx_HAL_Driver/Src/stm32l4xx_hal_tim_ex.c ****   {
 237:Drivers/STM32L4xx_HAL_Driver/Src/stm32l4xx_hal_tim_ex.c ****     htim->HallSensor_MspDeInitCallback = HAL_TIMEx_HallSensor_MspDeInit;
 238:Drivers/STM32L4xx_HAL_Driver/Src/stm32l4xx_hal_tim_ex.c ****   }
 239:Drivers/STM32L4xx_HAL_Driver/Src/stm32l4xx_hal_tim_ex.c ****   /* DeInit the low level hardware */
 240:Drivers/STM32L4xx_HAL_Driver/Src/stm32l4xx_hal_tim_ex.c ****   htim->HallSensor_MspDeInitCallback(htim);
 241:Drivers/STM32L4xx_HAL_Driver/Src/stm32l4xx_hal_tim_ex.c **** #else
 242:Drivers/STM32L4xx_HAL_Driver/Src/stm32l4xx_hal_tim_ex.c ****   /* DeInit the low level hardware: GPIO, CLOCK, NVIC */
 243:Drivers/STM32L4xx_HAL_Driver/Src/stm32l4xx_hal_tim_ex.c ****   HAL_TIMEx_HallSensor_MspDeInit(htim);
 298              		.loc 1 243 3 is_stmt 1
 299 0040 7868     		ldr	r0, [r7, #4]
 300 0042 FFF7FEFF 		bl	HAL_TIMEx_HallSensor_MspDeInit
 244:Drivers/STM32L4xx_HAL_Driver/Src/stm32l4xx_hal_tim_ex.c **** #endif /* USE_HAL_TIM_REGISTER_CALLBACKS */
 245:Drivers/STM32L4xx_HAL_Driver/Src/stm32l4xx_hal_tim_ex.c **** 
 246:Drivers/STM32L4xx_HAL_Driver/Src/stm32l4xx_hal_tim_ex.c ****   /* Change TIM state */
 247:Drivers/STM32L4xx_HAL_Driver/Src/stm32l4xx_hal_tim_ex.c ****   htim->State = HAL_TIM_STATE_RESET;
 301              		.loc 1 247 15
 302 0046 7B68     		ldr	r3, [r7, #4]
 303 0048 0022     		movs	r2, #0
 304 004a 83F83D20 		strb	r2, [r3, #61]
 248:Drivers/STM32L4xx_HAL_Driver/Src/stm32l4xx_hal_tim_ex.c **** 
 249:Drivers/STM32L4xx_HAL_Driver/Src/stm32l4xx_hal_tim_ex.c ****   /* Release Lock */
 250:Drivers/STM32L4xx_HAL_Driver/Src/stm32l4xx_hal_tim_ex.c ****   __HAL_UNLOCK(htim);
 305              		.loc 1 250 3
 306 004e 7B68     		ldr	r3, [r7, #4]
 307 0050 0022     		movs	r2, #0
 308 0052 83F83C20 		strb	r2, [r3, #60]
 251:Drivers/STM32L4xx_HAL_Driver/Src/stm32l4xx_hal_tim_ex.c **** 
 252:Drivers/STM32L4xx_HAL_Driver/Src/stm32l4xx_hal_tim_ex.c ****   return HAL_OK;
 309              		.loc 1 252 10
 310 0056 0023     		movs	r3, #0
 253:Drivers/STM32L4xx_HAL_Driver/Src/stm32l4xx_hal_tim_ex.c **** }
 311              		.loc 1 253 1
 312 0058 1846     		mov	r0, r3
 313 005a 0837     		adds	r7, r7, #8
 314              	.LCFI8:
 315              		.cfi_def_cfa_offset 8
 316 005c BD46     		mov	sp, r7
 317              	.LCFI9:
 318              		.cfi_def_cfa_register 13
 319              		@ sp needed
 320 005e 80BD     		pop	{r7, pc}
ARM GAS  /tmp/cc9IMTcg.s 			page 11


 321              		.cfi_endproc
 322              	.LFE131:
 324              		.section	.text.HAL_TIMEx_HallSensor_MspInit,"ax",%progbits
 325              		.align	1
 326              		.weak	HAL_TIMEx_HallSensor_MspInit
 327              		.syntax unified
 328              		.thumb
 329              		.thumb_func
 330              		.fpu fpv4-sp-d16
 332              	HAL_TIMEx_HallSensor_MspInit:
 333              	.LFB132:
 254:Drivers/STM32L4xx_HAL_Driver/Src/stm32l4xx_hal_tim_ex.c **** 
 255:Drivers/STM32L4xx_HAL_Driver/Src/stm32l4xx_hal_tim_ex.c **** /**
 256:Drivers/STM32L4xx_HAL_Driver/Src/stm32l4xx_hal_tim_ex.c ****   * @brief  Initializes the TIM Hall Sensor MSP.
 257:Drivers/STM32L4xx_HAL_Driver/Src/stm32l4xx_hal_tim_ex.c ****   * @param  htim TIM Hall Sensor Interface handle
 258:Drivers/STM32L4xx_HAL_Driver/Src/stm32l4xx_hal_tim_ex.c ****   * @retval None
 259:Drivers/STM32L4xx_HAL_Driver/Src/stm32l4xx_hal_tim_ex.c ****   */
 260:Drivers/STM32L4xx_HAL_Driver/Src/stm32l4xx_hal_tim_ex.c **** __weak void HAL_TIMEx_HallSensor_MspInit(TIM_HandleTypeDef *htim)
 261:Drivers/STM32L4xx_HAL_Driver/Src/stm32l4xx_hal_tim_ex.c **** {
 334              		.loc 1 261 1
 335              		.cfi_startproc
 336              		@ args = 0, pretend = 0, frame = 8
 337              		@ frame_needed = 1, uses_anonymous_args = 0
 338              		@ link register save eliminated.
 339 0000 80B4     		push	{r7}
 340              	.LCFI10:
 341              		.cfi_def_cfa_offset 4
 342              		.cfi_offset 7, -4
 343 0002 83B0     		sub	sp, sp, #12
 344              	.LCFI11:
 345              		.cfi_def_cfa_offset 16
 346 0004 00AF     		add	r7, sp, #0
 347              	.LCFI12:
 348              		.cfi_def_cfa_register 7
 349 0006 7860     		str	r0, [r7, #4]
 262:Drivers/STM32L4xx_HAL_Driver/Src/stm32l4xx_hal_tim_ex.c ****   /* Prevent unused argument(s) compilation warning */
 263:Drivers/STM32L4xx_HAL_Driver/Src/stm32l4xx_hal_tim_ex.c ****   UNUSED(htim);
 264:Drivers/STM32L4xx_HAL_Driver/Src/stm32l4xx_hal_tim_ex.c **** 
 265:Drivers/STM32L4xx_HAL_Driver/Src/stm32l4xx_hal_tim_ex.c ****   /* NOTE : This function should not be modified, when the callback is needed,
 266:Drivers/STM32L4xx_HAL_Driver/Src/stm32l4xx_hal_tim_ex.c ****             the HAL_TIMEx_HallSensor_MspInit could be implemented in the user file
 267:Drivers/STM32L4xx_HAL_Driver/Src/stm32l4xx_hal_tim_ex.c ****    */
 268:Drivers/STM32L4xx_HAL_Driver/Src/stm32l4xx_hal_tim_ex.c **** }
 350              		.loc 1 268 1
 351 0008 00BF     		nop
 352 000a 0C37     		adds	r7, r7, #12
 353              	.LCFI13:
 354              		.cfi_def_cfa_offset 4
 355 000c BD46     		mov	sp, r7
 356              	.LCFI14:
 357              		.cfi_def_cfa_register 13
 358              		@ sp needed
 359 000e 5DF8047B 		ldr	r7, [sp], #4
 360              	.LCFI15:
 361              		.cfi_restore 7
 362              		.cfi_def_cfa_offset 0
 363 0012 7047     		bx	lr
 364              		.cfi_endproc
ARM GAS  /tmp/cc9IMTcg.s 			page 12


 365              	.LFE132:
 367              		.section	.text.HAL_TIMEx_HallSensor_MspDeInit,"ax",%progbits
 368              		.align	1
 369              		.weak	HAL_TIMEx_HallSensor_MspDeInit
 370              		.syntax unified
 371              		.thumb
 372              		.thumb_func
 373              		.fpu fpv4-sp-d16
 375              	HAL_TIMEx_HallSensor_MspDeInit:
 376              	.LFB133:
 269:Drivers/STM32L4xx_HAL_Driver/Src/stm32l4xx_hal_tim_ex.c **** 
 270:Drivers/STM32L4xx_HAL_Driver/Src/stm32l4xx_hal_tim_ex.c **** /**
 271:Drivers/STM32L4xx_HAL_Driver/Src/stm32l4xx_hal_tim_ex.c ****   * @brief  DeInitializes TIM Hall Sensor MSP.
 272:Drivers/STM32L4xx_HAL_Driver/Src/stm32l4xx_hal_tim_ex.c ****   * @param  htim TIM Hall Sensor Interface handle
 273:Drivers/STM32L4xx_HAL_Driver/Src/stm32l4xx_hal_tim_ex.c ****   * @retval None
 274:Drivers/STM32L4xx_HAL_Driver/Src/stm32l4xx_hal_tim_ex.c ****   */
 275:Drivers/STM32L4xx_HAL_Driver/Src/stm32l4xx_hal_tim_ex.c **** __weak void HAL_TIMEx_HallSensor_MspDeInit(TIM_HandleTypeDef *htim)
 276:Drivers/STM32L4xx_HAL_Driver/Src/stm32l4xx_hal_tim_ex.c **** {
 377              		.loc 1 276 1
 378              		.cfi_startproc
 379              		@ args = 0, pretend = 0, frame = 8
 380              		@ frame_needed = 1, uses_anonymous_args = 0
 381              		@ link register save eliminated.
 382 0000 80B4     		push	{r7}
 383              	.LCFI16:
 384              		.cfi_def_cfa_offset 4
 385              		.cfi_offset 7, -4
 386 0002 83B0     		sub	sp, sp, #12
 387              	.LCFI17:
 388              		.cfi_def_cfa_offset 16
 389 0004 00AF     		add	r7, sp, #0
 390              	.LCFI18:
 391              		.cfi_def_cfa_register 7
 392 0006 7860     		str	r0, [r7, #4]
 277:Drivers/STM32L4xx_HAL_Driver/Src/stm32l4xx_hal_tim_ex.c ****   /* Prevent unused argument(s) compilation warning */
 278:Drivers/STM32L4xx_HAL_Driver/Src/stm32l4xx_hal_tim_ex.c ****   UNUSED(htim);
 279:Drivers/STM32L4xx_HAL_Driver/Src/stm32l4xx_hal_tim_ex.c **** 
 280:Drivers/STM32L4xx_HAL_Driver/Src/stm32l4xx_hal_tim_ex.c ****   /* NOTE : This function should not be modified, when the callback is needed,
 281:Drivers/STM32L4xx_HAL_Driver/Src/stm32l4xx_hal_tim_ex.c ****             the HAL_TIMEx_HallSensor_MspDeInit could be implemented in the user file
 282:Drivers/STM32L4xx_HAL_Driver/Src/stm32l4xx_hal_tim_ex.c ****    */
 283:Drivers/STM32L4xx_HAL_Driver/Src/stm32l4xx_hal_tim_ex.c **** }
 393              		.loc 1 283 1
 394 0008 00BF     		nop
 395 000a 0C37     		adds	r7, r7, #12
 396              	.LCFI19:
 397              		.cfi_def_cfa_offset 4
 398 000c BD46     		mov	sp, r7
 399              	.LCFI20:
 400              		.cfi_def_cfa_register 13
 401              		@ sp needed
 402 000e 5DF8047B 		ldr	r7, [sp], #4
 403              	.LCFI21:
 404              		.cfi_restore 7
 405              		.cfi_def_cfa_offset 0
 406 0012 7047     		bx	lr
 407              		.cfi_endproc
 408              	.LFE133:
ARM GAS  /tmp/cc9IMTcg.s 			page 13


 410              		.section	.text.HAL_TIMEx_HallSensor_Start,"ax",%progbits
 411              		.align	1
 412              		.global	HAL_TIMEx_HallSensor_Start
 413              		.syntax unified
 414              		.thumb
 415              		.thumb_func
 416              		.fpu fpv4-sp-d16
 418              	HAL_TIMEx_HallSensor_Start:
 419              	.LFB134:
 284:Drivers/STM32L4xx_HAL_Driver/Src/stm32l4xx_hal_tim_ex.c **** 
 285:Drivers/STM32L4xx_HAL_Driver/Src/stm32l4xx_hal_tim_ex.c **** /**
 286:Drivers/STM32L4xx_HAL_Driver/Src/stm32l4xx_hal_tim_ex.c ****   * @brief  Starts the TIM Hall Sensor Interface.
 287:Drivers/STM32L4xx_HAL_Driver/Src/stm32l4xx_hal_tim_ex.c ****   * @param  htim TIM Hall Sensor Interface handle
 288:Drivers/STM32L4xx_HAL_Driver/Src/stm32l4xx_hal_tim_ex.c ****   * @retval HAL status
 289:Drivers/STM32L4xx_HAL_Driver/Src/stm32l4xx_hal_tim_ex.c ****   */
 290:Drivers/STM32L4xx_HAL_Driver/Src/stm32l4xx_hal_tim_ex.c **** HAL_StatusTypeDef HAL_TIMEx_HallSensor_Start(TIM_HandleTypeDef *htim)
 291:Drivers/STM32L4xx_HAL_Driver/Src/stm32l4xx_hal_tim_ex.c **** {
 420              		.loc 1 291 1
 421              		.cfi_startproc
 422              		@ args = 0, pretend = 0, frame = 16
 423              		@ frame_needed = 1, uses_anonymous_args = 0
 424 0000 80B5     		push	{r7, lr}
 425              	.LCFI22:
 426              		.cfi_def_cfa_offset 8
 427              		.cfi_offset 7, -8
 428              		.cfi_offset 14, -4
 429 0002 84B0     		sub	sp, sp, #16
 430              	.LCFI23:
 431              		.cfi_def_cfa_offset 24
 432 0004 00AF     		add	r7, sp, #0
 433              	.LCFI24:
 434              		.cfi_def_cfa_register 7
 435 0006 7860     		str	r0, [r7, #4]
 292:Drivers/STM32L4xx_HAL_Driver/Src/stm32l4xx_hal_tim_ex.c ****   uint32_t tmpsmcr;
 293:Drivers/STM32L4xx_HAL_Driver/Src/stm32l4xx_hal_tim_ex.c **** 
 294:Drivers/STM32L4xx_HAL_Driver/Src/stm32l4xx_hal_tim_ex.c ****   /* Check the parameters */
 295:Drivers/STM32L4xx_HAL_Driver/Src/stm32l4xx_hal_tim_ex.c ****   assert_param(IS_TIM_HALL_SENSOR_INTERFACE_INSTANCE(htim->Instance));
 296:Drivers/STM32L4xx_HAL_Driver/Src/stm32l4xx_hal_tim_ex.c **** 
 297:Drivers/STM32L4xx_HAL_Driver/Src/stm32l4xx_hal_tim_ex.c ****   /* Enable the Input Capture channel 1
 298:Drivers/STM32L4xx_HAL_Driver/Src/stm32l4xx_hal_tim_ex.c ****     (in the Hall Sensor Interface the three possible channels that can be used are TIM_CHANNEL_1, T
 299:Drivers/STM32L4xx_HAL_Driver/Src/stm32l4xx_hal_tim_ex.c ****   TIM_CCxChannelCmd(htim->Instance, TIM_CHANNEL_1, TIM_CCx_ENABLE);
 436              		.loc 1 299 3
 437 0008 7B68     		ldr	r3, [r7, #4]
 438 000a 1B68     		ldr	r3, [r3]
 439 000c 0122     		movs	r2, #1
 440 000e 0021     		movs	r1, #0
 441 0010 1846     		mov	r0, r3
 442 0012 FFF7FEFF 		bl	TIM_CCxChannelCmd
 300:Drivers/STM32L4xx_HAL_Driver/Src/stm32l4xx_hal_tim_ex.c **** 
 301:Drivers/STM32L4xx_HAL_Driver/Src/stm32l4xx_hal_tim_ex.c ****   /* Enable the Peripheral, except in trigger mode where enable is automatically done with trigger 
 302:Drivers/STM32L4xx_HAL_Driver/Src/stm32l4xx_hal_tim_ex.c ****   tmpsmcr = htim->Instance->SMCR & TIM_SMCR_SMS;
 443              		.loc 1 302 17
 444 0016 7B68     		ldr	r3, [r7, #4]
 445 0018 1B68     		ldr	r3, [r3]
 446              		.loc 1 302 27
 447 001a 9A68     		ldr	r2, [r3, #8]
 448              		.loc 1 302 11
ARM GAS  /tmp/cc9IMTcg.s 			page 14


 449 001c 0B4B     		ldr	r3, .L14
 450 001e 1340     		ands	r3, r3, r2
 451 0020 FB60     		str	r3, [r7, #12]
 303:Drivers/STM32L4xx_HAL_Driver/Src/stm32l4xx_hal_tim_ex.c ****   if (!IS_TIM_SLAVEMODE_TRIGGER_ENABLED(tmpsmcr))
 452              		.loc 1 303 6
 453 0022 FB68     		ldr	r3, [r7, #12]
 454 0024 062B     		cmp	r3, #6
 455 0026 0BD0     		beq	.L12
 456              		.loc 1 303 7 discriminator 1
 457 0028 FB68     		ldr	r3, [r7, #12]
 458 002a B3F5803F 		cmp	r3, #65536
 459 002e 07D0     		beq	.L12
 304:Drivers/STM32L4xx_HAL_Driver/Src/stm32l4xx_hal_tim_ex.c ****   {
 305:Drivers/STM32L4xx_HAL_Driver/Src/stm32l4xx_hal_tim_ex.c ****     __HAL_TIM_ENABLE(htim);
 460              		.loc 1 305 5
 461 0030 7B68     		ldr	r3, [r7, #4]
 462 0032 1B68     		ldr	r3, [r3]
 463 0034 1A68     		ldr	r2, [r3]
 464 0036 7B68     		ldr	r3, [r7, #4]
 465 0038 1B68     		ldr	r3, [r3]
 466 003a 42F00102 		orr	r2, r2, #1
 467 003e 1A60     		str	r2, [r3]
 468              	.L12:
 306:Drivers/STM32L4xx_HAL_Driver/Src/stm32l4xx_hal_tim_ex.c ****   }
 307:Drivers/STM32L4xx_HAL_Driver/Src/stm32l4xx_hal_tim_ex.c **** 
 308:Drivers/STM32L4xx_HAL_Driver/Src/stm32l4xx_hal_tim_ex.c ****   /* Return function status */
 309:Drivers/STM32L4xx_HAL_Driver/Src/stm32l4xx_hal_tim_ex.c ****   return HAL_OK;
 469              		.loc 1 309 10
 470 0040 0023     		movs	r3, #0
 310:Drivers/STM32L4xx_HAL_Driver/Src/stm32l4xx_hal_tim_ex.c **** }
 471              		.loc 1 310 1
 472 0042 1846     		mov	r0, r3
 473 0044 1037     		adds	r7, r7, #16
 474              	.LCFI25:
 475              		.cfi_def_cfa_offset 8
 476 0046 BD46     		mov	sp, r7
 477              	.LCFI26:
 478              		.cfi_def_cfa_register 13
 479              		@ sp needed
 480 0048 80BD     		pop	{r7, pc}
 481              	.L15:
 482 004a 00BF     		.align	2
 483              	.L14:
 484 004c 07000100 		.word	65543
 485              		.cfi_endproc
 486              	.LFE134:
 488              		.section	.text.HAL_TIMEx_HallSensor_Stop,"ax",%progbits
 489              		.align	1
 490              		.global	HAL_TIMEx_HallSensor_Stop
 491              		.syntax unified
 492              		.thumb
 493              		.thumb_func
 494              		.fpu fpv4-sp-d16
 496              	HAL_TIMEx_HallSensor_Stop:
 497              	.LFB135:
 311:Drivers/STM32L4xx_HAL_Driver/Src/stm32l4xx_hal_tim_ex.c **** 
 312:Drivers/STM32L4xx_HAL_Driver/Src/stm32l4xx_hal_tim_ex.c **** /**
ARM GAS  /tmp/cc9IMTcg.s 			page 15


 313:Drivers/STM32L4xx_HAL_Driver/Src/stm32l4xx_hal_tim_ex.c ****   * @brief  Stops the TIM Hall sensor Interface.
 314:Drivers/STM32L4xx_HAL_Driver/Src/stm32l4xx_hal_tim_ex.c ****   * @param  htim TIM Hall Sensor Interface handle
 315:Drivers/STM32L4xx_HAL_Driver/Src/stm32l4xx_hal_tim_ex.c ****   * @retval HAL status
 316:Drivers/STM32L4xx_HAL_Driver/Src/stm32l4xx_hal_tim_ex.c ****   */
 317:Drivers/STM32L4xx_HAL_Driver/Src/stm32l4xx_hal_tim_ex.c **** HAL_StatusTypeDef HAL_TIMEx_HallSensor_Stop(TIM_HandleTypeDef *htim)
 318:Drivers/STM32L4xx_HAL_Driver/Src/stm32l4xx_hal_tim_ex.c **** {
 498              		.loc 1 318 1
 499              		.cfi_startproc
 500              		@ args = 0, pretend = 0, frame = 8
 501              		@ frame_needed = 1, uses_anonymous_args = 0
 502 0000 80B5     		push	{r7, lr}
 503              	.LCFI27:
 504              		.cfi_def_cfa_offset 8
 505              		.cfi_offset 7, -8
 506              		.cfi_offset 14, -4
 507 0002 82B0     		sub	sp, sp, #8
 508              	.LCFI28:
 509              		.cfi_def_cfa_offset 16
 510 0004 00AF     		add	r7, sp, #0
 511              	.LCFI29:
 512              		.cfi_def_cfa_register 7
 513 0006 7860     		str	r0, [r7, #4]
 319:Drivers/STM32L4xx_HAL_Driver/Src/stm32l4xx_hal_tim_ex.c ****   /* Check the parameters */
 320:Drivers/STM32L4xx_HAL_Driver/Src/stm32l4xx_hal_tim_ex.c ****   assert_param(IS_TIM_HALL_SENSOR_INTERFACE_INSTANCE(htim->Instance));
 321:Drivers/STM32L4xx_HAL_Driver/Src/stm32l4xx_hal_tim_ex.c **** 
 322:Drivers/STM32L4xx_HAL_Driver/Src/stm32l4xx_hal_tim_ex.c ****   /* Disable the Input Capture channels 1, 2 and 3
 323:Drivers/STM32L4xx_HAL_Driver/Src/stm32l4xx_hal_tim_ex.c ****     (in the Hall Sensor Interface the three possible channels that can be used are TIM_CHANNEL_1, T
 324:Drivers/STM32L4xx_HAL_Driver/Src/stm32l4xx_hal_tim_ex.c ****   TIM_CCxChannelCmd(htim->Instance, TIM_CHANNEL_1, TIM_CCx_DISABLE);
 514              		.loc 1 324 3
 515 0008 7B68     		ldr	r3, [r7, #4]
 516 000a 1B68     		ldr	r3, [r3]
 517 000c 0022     		movs	r2, #0
 518 000e 0021     		movs	r1, #0
 519 0010 1846     		mov	r0, r3
 520 0012 FFF7FEFF 		bl	TIM_CCxChannelCmd
 325:Drivers/STM32L4xx_HAL_Driver/Src/stm32l4xx_hal_tim_ex.c **** 
 326:Drivers/STM32L4xx_HAL_Driver/Src/stm32l4xx_hal_tim_ex.c ****   /* Disable the Peripheral */
 327:Drivers/STM32L4xx_HAL_Driver/Src/stm32l4xx_hal_tim_ex.c ****   __HAL_TIM_DISABLE(htim);
 521              		.loc 1 327 3
 522 0016 7B68     		ldr	r3, [r7, #4]
 523 0018 1B68     		ldr	r3, [r3]
 524 001a 1A6A     		ldr	r2, [r3, #32]
 525 001c 41F21113 		movw	r3, #4369
 526 0020 1340     		ands	r3, r3, r2
 527 0022 002B     		cmp	r3, #0
 528 0024 0FD1     		bne	.L17
 529              		.loc 1 327 3 is_stmt 0 discriminator 1
 530 0026 7B68     		ldr	r3, [r7, #4]
 531 0028 1B68     		ldr	r3, [r3]
 532 002a 1A6A     		ldr	r2, [r3, #32]
 533 002c 40F24443 		movw	r3, #1092
 534 0030 1340     		ands	r3, r3, r2
 535 0032 002B     		cmp	r3, #0
 536 0034 07D1     		bne	.L17
 537              		.loc 1 327 3 discriminator 2
 538 0036 7B68     		ldr	r3, [r7, #4]
 539 0038 1B68     		ldr	r3, [r3]
ARM GAS  /tmp/cc9IMTcg.s 			page 16


 540 003a 1A68     		ldr	r2, [r3]
 541 003c 7B68     		ldr	r3, [r7, #4]
 542 003e 1B68     		ldr	r3, [r3]
 543 0040 22F00102 		bic	r2, r2, #1
 544 0044 1A60     		str	r2, [r3]
 545              	.L17:
 328:Drivers/STM32L4xx_HAL_Driver/Src/stm32l4xx_hal_tim_ex.c **** 
 329:Drivers/STM32L4xx_HAL_Driver/Src/stm32l4xx_hal_tim_ex.c ****   /* Return function status */
 330:Drivers/STM32L4xx_HAL_Driver/Src/stm32l4xx_hal_tim_ex.c ****   return HAL_OK;
 546              		.loc 1 330 10 is_stmt 1
 547 0046 0023     		movs	r3, #0
 331:Drivers/STM32L4xx_HAL_Driver/Src/stm32l4xx_hal_tim_ex.c **** }
 548              		.loc 1 331 1
 549 0048 1846     		mov	r0, r3
 550 004a 0837     		adds	r7, r7, #8
 551              	.LCFI30:
 552              		.cfi_def_cfa_offset 8
 553 004c BD46     		mov	sp, r7
 554              	.LCFI31:
 555              		.cfi_def_cfa_register 13
 556              		@ sp needed
 557 004e 80BD     		pop	{r7, pc}
 558              		.cfi_endproc
 559              	.LFE135:
 561              		.section	.text.HAL_TIMEx_HallSensor_Start_IT,"ax",%progbits
 562              		.align	1
 563              		.global	HAL_TIMEx_HallSensor_Start_IT
 564              		.syntax unified
 565              		.thumb
 566              		.thumb_func
 567              		.fpu fpv4-sp-d16
 569              	HAL_TIMEx_HallSensor_Start_IT:
 570              	.LFB136:
 332:Drivers/STM32L4xx_HAL_Driver/Src/stm32l4xx_hal_tim_ex.c **** 
 333:Drivers/STM32L4xx_HAL_Driver/Src/stm32l4xx_hal_tim_ex.c **** /**
 334:Drivers/STM32L4xx_HAL_Driver/Src/stm32l4xx_hal_tim_ex.c ****   * @brief  Starts the TIM Hall Sensor Interface in interrupt mode.
 335:Drivers/STM32L4xx_HAL_Driver/Src/stm32l4xx_hal_tim_ex.c ****   * @param  htim TIM Hall Sensor Interface handle
 336:Drivers/STM32L4xx_HAL_Driver/Src/stm32l4xx_hal_tim_ex.c ****   * @retval HAL status
 337:Drivers/STM32L4xx_HAL_Driver/Src/stm32l4xx_hal_tim_ex.c ****   */
 338:Drivers/STM32L4xx_HAL_Driver/Src/stm32l4xx_hal_tim_ex.c **** HAL_StatusTypeDef HAL_TIMEx_HallSensor_Start_IT(TIM_HandleTypeDef *htim)
 339:Drivers/STM32L4xx_HAL_Driver/Src/stm32l4xx_hal_tim_ex.c **** {
 571              		.loc 1 339 1
 572              		.cfi_startproc
 573              		@ args = 0, pretend = 0, frame = 16
 574              		@ frame_needed = 1, uses_anonymous_args = 0
 575 0000 80B5     		push	{r7, lr}
 576              	.LCFI32:
 577              		.cfi_def_cfa_offset 8
 578              		.cfi_offset 7, -8
 579              		.cfi_offset 14, -4
 580 0002 84B0     		sub	sp, sp, #16
 581              	.LCFI33:
 582              		.cfi_def_cfa_offset 24
 583 0004 00AF     		add	r7, sp, #0
 584              	.LCFI34:
 585              		.cfi_def_cfa_register 7
 586 0006 7860     		str	r0, [r7, #4]
ARM GAS  /tmp/cc9IMTcg.s 			page 17


 340:Drivers/STM32L4xx_HAL_Driver/Src/stm32l4xx_hal_tim_ex.c ****   uint32_t tmpsmcr;
 341:Drivers/STM32L4xx_HAL_Driver/Src/stm32l4xx_hal_tim_ex.c **** 
 342:Drivers/STM32L4xx_HAL_Driver/Src/stm32l4xx_hal_tim_ex.c ****   /* Check the parameters */
 343:Drivers/STM32L4xx_HAL_Driver/Src/stm32l4xx_hal_tim_ex.c ****   assert_param(IS_TIM_HALL_SENSOR_INTERFACE_INSTANCE(htim->Instance));
 344:Drivers/STM32L4xx_HAL_Driver/Src/stm32l4xx_hal_tim_ex.c **** 
 345:Drivers/STM32L4xx_HAL_Driver/Src/stm32l4xx_hal_tim_ex.c ****   /* Enable the capture compare Interrupts 1 event */
 346:Drivers/STM32L4xx_HAL_Driver/Src/stm32l4xx_hal_tim_ex.c ****   __HAL_TIM_ENABLE_IT(htim, TIM_IT_CC1);
 587              		.loc 1 346 3
 588 0008 7B68     		ldr	r3, [r7, #4]
 589 000a 1B68     		ldr	r3, [r3]
 590 000c DA68     		ldr	r2, [r3, #12]
 591 000e 7B68     		ldr	r3, [r7, #4]
 592 0010 1B68     		ldr	r3, [r3]
 593 0012 42F00202 		orr	r2, r2, #2
 594 0016 DA60     		str	r2, [r3, #12]
 347:Drivers/STM32L4xx_HAL_Driver/Src/stm32l4xx_hal_tim_ex.c **** 
 348:Drivers/STM32L4xx_HAL_Driver/Src/stm32l4xx_hal_tim_ex.c ****   /* Enable the Input Capture channel 1
 349:Drivers/STM32L4xx_HAL_Driver/Src/stm32l4xx_hal_tim_ex.c ****     (in the Hall Sensor Interface the three possible channels that can be used are TIM_CHANNEL_1, T
 350:Drivers/STM32L4xx_HAL_Driver/Src/stm32l4xx_hal_tim_ex.c ****   TIM_CCxChannelCmd(htim->Instance, TIM_CHANNEL_1, TIM_CCx_ENABLE);
 595              		.loc 1 350 3
 596 0018 7B68     		ldr	r3, [r7, #4]
 597 001a 1B68     		ldr	r3, [r3]
 598 001c 0122     		movs	r2, #1
 599 001e 0021     		movs	r1, #0
 600 0020 1846     		mov	r0, r3
 601 0022 FFF7FEFF 		bl	TIM_CCxChannelCmd
 351:Drivers/STM32L4xx_HAL_Driver/Src/stm32l4xx_hal_tim_ex.c **** 
 352:Drivers/STM32L4xx_HAL_Driver/Src/stm32l4xx_hal_tim_ex.c ****   /* Enable the Peripheral, except in trigger mode where enable is automatically done with trigger 
 353:Drivers/STM32L4xx_HAL_Driver/Src/stm32l4xx_hal_tim_ex.c ****   tmpsmcr = htim->Instance->SMCR & TIM_SMCR_SMS;
 602              		.loc 1 353 17
 603 0026 7B68     		ldr	r3, [r7, #4]
 604 0028 1B68     		ldr	r3, [r3]
 605              		.loc 1 353 27
 606 002a 9A68     		ldr	r2, [r3, #8]
 607              		.loc 1 353 11
 608 002c 0B4B     		ldr	r3, .L22
 609 002e 1340     		ands	r3, r3, r2
 610 0030 FB60     		str	r3, [r7, #12]
 354:Drivers/STM32L4xx_HAL_Driver/Src/stm32l4xx_hal_tim_ex.c ****   if (!IS_TIM_SLAVEMODE_TRIGGER_ENABLED(tmpsmcr))
 611              		.loc 1 354 6
 612 0032 FB68     		ldr	r3, [r7, #12]
 613 0034 062B     		cmp	r3, #6
 614 0036 0BD0     		beq	.L20
 615              		.loc 1 354 7 discriminator 1
 616 0038 FB68     		ldr	r3, [r7, #12]
 617 003a B3F5803F 		cmp	r3, #65536
 618 003e 07D0     		beq	.L20
 355:Drivers/STM32L4xx_HAL_Driver/Src/stm32l4xx_hal_tim_ex.c ****   {
 356:Drivers/STM32L4xx_HAL_Driver/Src/stm32l4xx_hal_tim_ex.c ****     __HAL_TIM_ENABLE(htim);
 619              		.loc 1 356 5
 620 0040 7B68     		ldr	r3, [r7, #4]
 621 0042 1B68     		ldr	r3, [r3]
 622 0044 1A68     		ldr	r2, [r3]
 623 0046 7B68     		ldr	r3, [r7, #4]
 624 0048 1B68     		ldr	r3, [r3]
 625 004a 42F00102 		orr	r2, r2, #1
 626 004e 1A60     		str	r2, [r3]
ARM GAS  /tmp/cc9IMTcg.s 			page 18


 627              	.L20:
 357:Drivers/STM32L4xx_HAL_Driver/Src/stm32l4xx_hal_tim_ex.c ****   }
 358:Drivers/STM32L4xx_HAL_Driver/Src/stm32l4xx_hal_tim_ex.c **** 
 359:Drivers/STM32L4xx_HAL_Driver/Src/stm32l4xx_hal_tim_ex.c ****   /* Return function status */
 360:Drivers/STM32L4xx_HAL_Driver/Src/stm32l4xx_hal_tim_ex.c ****   return HAL_OK;
 628              		.loc 1 360 10
 629 0050 0023     		movs	r3, #0
 361:Drivers/STM32L4xx_HAL_Driver/Src/stm32l4xx_hal_tim_ex.c **** }
 630              		.loc 1 361 1
 631 0052 1846     		mov	r0, r3
 632 0054 1037     		adds	r7, r7, #16
 633              	.LCFI35:
 634              		.cfi_def_cfa_offset 8
 635 0056 BD46     		mov	sp, r7
 636              	.LCFI36:
 637              		.cfi_def_cfa_register 13
 638              		@ sp needed
 639 0058 80BD     		pop	{r7, pc}
 640              	.L23:
 641 005a 00BF     		.align	2
 642              	.L22:
 643 005c 07000100 		.word	65543
 644              		.cfi_endproc
 645              	.LFE136:
 647              		.section	.text.HAL_TIMEx_HallSensor_Stop_IT,"ax",%progbits
 648              		.align	1
 649              		.global	HAL_TIMEx_HallSensor_Stop_IT
 650              		.syntax unified
 651              		.thumb
 652              		.thumb_func
 653              		.fpu fpv4-sp-d16
 655              	HAL_TIMEx_HallSensor_Stop_IT:
 656              	.LFB137:
 362:Drivers/STM32L4xx_HAL_Driver/Src/stm32l4xx_hal_tim_ex.c **** 
 363:Drivers/STM32L4xx_HAL_Driver/Src/stm32l4xx_hal_tim_ex.c **** /**
 364:Drivers/STM32L4xx_HAL_Driver/Src/stm32l4xx_hal_tim_ex.c ****   * @brief  Stops the TIM Hall Sensor Interface in interrupt mode.
 365:Drivers/STM32L4xx_HAL_Driver/Src/stm32l4xx_hal_tim_ex.c ****   * @param  htim TIM Hall Sensor Interface handle
 366:Drivers/STM32L4xx_HAL_Driver/Src/stm32l4xx_hal_tim_ex.c ****   * @retval HAL status
 367:Drivers/STM32L4xx_HAL_Driver/Src/stm32l4xx_hal_tim_ex.c ****   */
 368:Drivers/STM32L4xx_HAL_Driver/Src/stm32l4xx_hal_tim_ex.c **** HAL_StatusTypeDef HAL_TIMEx_HallSensor_Stop_IT(TIM_HandleTypeDef *htim)
 369:Drivers/STM32L4xx_HAL_Driver/Src/stm32l4xx_hal_tim_ex.c **** {
 657              		.loc 1 369 1
 658              		.cfi_startproc
 659              		@ args = 0, pretend = 0, frame = 8
 660              		@ frame_needed = 1, uses_anonymous_args = 0
 661 0000 80B5     		push	{r7, lr}
 662              	.LCFI37:
 663              		.cfi_def_cfa_offset 8
 664              		.cfi_offset 7, -8
 665              		.cfi_offset 14, -4
 666 0002 82B0     		sub	sp, sp, #8
 667              	.LCFI38:
 668              		.cfi_def_cfa_offset 16
 669 0004 00AF     		add	r7, sp, #0
 670              	.LCFI39:
 671              		.cfi_def_cfa_register 7
 672 0006 7860     		str	r0, [r7, #4]
ARM GAS  /tmp/cc9IMTcg.s 			page 19


 370:Drivers/STM32L4xx_HAL_Driver/Src/stm32l4xx_hal_tim_ex.c ****   /* Check the parameters */
 371:Drivers/STM32L4xx_HAL_Driver/Src/stm32l4xx_hal_tim_ex.c ****   assert_param(IS_TIM_HALL_SENSOR_INTERFACE_INSTANCE(htim->Instance));
 372:Drivers/STM32L4xx_HAL_Driver/Src/stm32l4xx_hal_tim_ex.c **** 
 373:Drivers/STM32L4xx_HAL_Driver/Src/stm32l4xx_hal_tim_ex.c ****   /* Disable the Input Capture channel 1
 374:Drivers/STM32L4xx_HAL_Driver/Src/stm32l4xx_hal_tim_ex.c ****     (in the Hall Sensor Interface the three possible channels that can be used are TIM_CHANNEL_1, T
 375:Drivers/STM32L4xx_HAL_Driver/Src/stm32l4xx_hal_tim_ex.c ****   TIM_CCxChannelCmd(htim->Instance, TIM_CHANNEL_1, TIM_CCx_DISABLE);
 673              		.loc 1 375 3
 674 0008 7B68     		ldr	r3, [r7, #4]
 675 000a 1B68     		ldr	r3, [r3]
 676 000c 0022     		movs	r2, #0
 677 000e 0021     		movs	r1, #0
 678 0010 1846     		mov	r0, r3
 679 0012 FFF7FEFF 		bl	TIM_CCxChannelCmd
 376:Drivers/STM32L4xx_HAL_Driver/Src/stm32l4xx_hal_tim_ex.c **** 
 377:Drivers/STM32L4xx_HAL_Driver/Src/stm32l4xx_hal_tim_ex.c ****   /* Disable the capture compare Interrupts event */
 378:Drivers/STM32L4xx_HAL_Driver/Src/stm32l4xx_hal_tim_ex.c ****   __HAL_TIM_DISABLE_IT(htim, TIM_IT_CC1);
 680              		.loc 1 378 3
 681 0016 7B68     		ldr	r3, [r7, #4]
 682 0018 1B68     		ldr	r3, [r3]
 683 001a DA68     		ldr	r2, [r3, #12]
 684 001c 7B68     		ldr	r3, [r7, #4]
 685 001e 1B68     		ldr	r3, [r3]
 686 0020 22F00202 		bic	r2, r2, #2
 687 0024 DA60     		str	r2, [r3, #12]
 379:Drivers/STM32L4xx_HAL_Driver/Src/stm32l4xx_hal_tim_ex.c **** 
 380:Drivers/STM32L4xx_HAL_Driver/Src/stm32l4xx_hal_tim_ex.c ****   /* Disable the Peripheral */
 381:Drivers/STM32L4xx_HAL_Driver/Src/stm32l4xx_hal_tim_ex.c ****   __HAL_TIM_DISABLE(htim);
 688              		.loc 1 381 3
 689 0026 7B68     		ldr	r3, [r7, #4]
 690 0028 1B68     		ldr	r3, [r3]
 691 002a 1A6A     		ldr	r2, [r3, #32]
 692 002c 41F21113 		movw	r3, #4369
 693 0030 1340     		ands	r3, r3, r2
 694 0032 002B     		cmp	r3, #0
 695 0034 0FD1     		bne	.L25
 696              		.loc 1 381 3 is_stmt 0 discriminator 1
 697 0036 7B68     		ldr	r3, [r7, #4]
 698 0038 1B68     		ldr	r3, [r3]
 699 003a 1A6A     		ldr	r2, [r3, #32]
 700 003c 40F24443 		movw	r3, #1092
 701 0040 1340     		ands	r3, r3, r2
 702 0042 002B     		cmp	r3, #0
 703 0044 07D1     		bne	.L25
 704              		.loc 1 381 3 discriminator 2
 705 0046 7B68     		ldr	r3, [r7, #4]
 706 0048 1B68     		ldr	r3, [r3]
 707 004a 1A68     		ldr	r2, [r3]
 708 004c 7B68     		ldr	r3, [r7, #4]
 709 004e 1B68     		ldr	r3, [r3]
 710 0050 22F00102 		bic	r2, r2, #1
 711 0054 1A60     		str	r2, [r3]
 712              	.L25:
 382:Drivers/STM32L4xx_HAL_Driver/Src/stm32l4xx_hal_tim_ex.c **** 
 383:Drivers/STM32L4xx_HAL_Driver/Src/stm32l4xx_hal_tim_ex.c ****   /* Return function status */
 384:Drivers/STM32L4xx_HAL_Driver/Src/stm32l4xx_hal_tim_ex.c ****   return HAL_OK;
 713              		.loc 1 384 10 is_stmt 1
 714 0056 0023     		movs	r3, #0
ARM GAS  /tmp/cc9IMTcg.s 			page 20


 385:Drivers/STM32L4xx_HAL_Driver/Src/stm32l4xx_hal_tim_ex.c **** }
 715              		.loc 1 385 1
 716 0058 1846     		mov	r0, r3
 717 005a 0837     		adds	r7, r7, #8
 718              	.LCFI40:
 719              		.cfi_def_cfa_offset 8
 720 005c BD46     		mov	sp, r7
 721              	.LCFI41:
 722              		.cfi_def_cfa_register 13
 723              		@ sp needed
 724 005e 80BD     		pop	{r7, pc}
 725              		.cfi_endproc
 726              	.LFE137:
 728              		.section	.text.HAL_TIMEx_HallSensor_Start_DMA,"ax",%progbits
 729              		.align	1
 730              		.global	HAL_TIMEx_HallSensor_Start_DMA
 731              		.syntax unified
 732              		.thumb
 733              		.thumb_func
 734              		.fpu fpv4-sp-d16
 736              	HAL_TIMEx_HallSensor_Start_DMA:
 737              	.LFB138:
 386:Drivers/STM32L4xx_HAL_Driver/Src/stm32l4xx_hal_tim_ex.c **** 
 387:Drivers/STM32L4xx_HAL_Driver/Src/stm32l4xx_hal_tim_ex.c **** /**
 388:Drivers/STM32L4xx_HAL_Driver/Src/stm32l4xx_hal_tim_ex.c ****   * @brief  Starts the TIM Hall Sensor Interface in DMA mode.
 389:Drivers/STM32L4xx_HAL_Driver/Src/stm32l4xx_hal_tim_ex.c ****   * @param  htim TIM Hall Sensor Interface handle
 390:Drivers/STM32L4xx_HAL_Driver/Src/stm32l4xx_hal_tim_ex.c ****   * @param  pData The destination Buffer address.
 391:Drivers/STM32L4xx_HAL_Driver/Src/stm32l4xx_hal_tim_ex.c ****   * @param  Length The length of data to be transferred from TIM peripheral to memory.
 392:Drivers/STM32L4xx_HAL_Driver/Src/stm32l4xx_hal_tim_ex.c ****   * @retval HAL status
 393:Drivers/STM32L4xx_HAL_Driver/Src/stm32l4xx_hal_tim_ex.c ****   */
 394:Drivers/STM32L4xx_HAL_Driver/Src/stm32l4xx_hal_tim_ex.c **** HAL_StatusTypeDef HAL_TIMEx_HallSensor_Start_DMA(TIM_HandleTypeDef *htim, uint32_t *pData, uint16_t
 395:Drivers/STM32L4xx_HAL_Driver/Src/stm32l4xx_hal_tim_ex.c **** {
 738              		.loc 1 395 1
 739              		.cfi_startproc
 740              		@ args = 0, pretend = 0, frame = 24
 741              		@ frame_needed = 1, uses_anonymous_args = 0
 742 0000 80B5     		push	{r7, lr}
 743              	.LCFI42:
 744              		.cfi_def_cfa_offset 8
 745              		.cfi_offset 7, -8
 746              		.cfi_offset 14, -4
 747 0002 86B0     		sub	sp, sp, #24
 748              	.LCFI43:
 749              		.cfi_def_cfa_offset 32
 750 0004 00AF     		add	r7, sp, #0
 751              	.LCFI44:
 752              		.cfi_def_cfa_register 7
 753 0006 F860     		str	r0, [r7, #12]
 754 0008 B960     		str	r1, [r7, #8]
 755 000a 1346     		mov	r3, r2
 756 000c FB80     		strh	r3, [r7, #6]	@ movhi
 396:Drivers/STM32L4xx_HAL_Driver/Src/stm32l4xx_hal_tim_ex.c ****   uint32_t tmpsmcr;
 397:Drivers/STM32L4xx_HAL_Driver/Src/stm32l4xx_hal_tim_ex.c **** 
 398:Drivers/STM32L4xx_HAL_Driver/Src/stm32l4xx_hal_tim_ex.c ****   /* Check the parameters */
 399:Drivers/STM32L4xx_HAL_Driver/Src/stm32l4xx_hal_tim_ex.c ****   assert_param(IS_TIM_HALL_SENSOR_INTERFACE_INSTANCE(htim->Instance));
 400:Drivers/STM32L4xx_HAL_Driver/Src/stm32l4xx_hal_tim_ex.c **** 
 401:Drivers/STM32L4xx_HAL_Driver/Src/stm32l4xx_hal_tim_ex.c ****   if (htim->State == HAL_TIM_STATE_BUSY)
ARM GAS  /tmp/cc9IMTcg.s 			page 21


 757              		.loc 1 401 11
 758 000e FB68     		ldr	r3, [r7, #12]
 759 0010 93F83D30 		ldrb	r3, [r3, #61]
 760 0014 DBB2     		uxtb	r3, r3
 761              		.loc 1 401 6
 762 0016 022B     		cmp	r3, #2
 763 0018 01D1     		bne	.L28
 402:Drivers/STM32L4xx_HAL_Driver/Src/stm32l4xx_hal_tim_ex.c ****   {
 403:Drivers/STM32L4xx_HAL_Driver/Src/stm32l4xx_hal_tim_ex.c ****     return HAL_BUSY;
 764              		.loc 1 403 12
 765 001a 0223     		movs	r3, #2
 766 001c 51E0     		b	.L29
 767              	.L28:
 404:Drivers/STM32L4xx_HAL_Driver/Src/stm32l4xx_hal_tim_ex.c ****   }
 405:Drivers/STM32L4xx_HAL_Driver/Src/stm32l4xx_hal_tim_ex.c ****   else if (htim->State == HAL_TIM_STATE_READY)
 768              		.loc 1 405 16
 769 001e FB68     		ldr	r3, [r7, #12]
 770 0020 93F83D30 		ldrb	r3, [r3, #61]
 771 0024 DBB2     		uxtb	r3, r3
 772              		.loc 1 405 11
 773 0026 012B     		cmp	r3, #1
 774 0028 0BD1     		bne	.L30
 406:Drivers/STM32L4xx_HAL_Driver/Src/stm32l4xx_hal_tim_ex.c ****   {
 407:Drivers/STM32L4xx_HAL_Driver/Src/stm32l4xx_hal_tim_ex.c ****     if (((uint32_t)pData == 0U) && (Length > 0U))
 775              		.loc 1 407 8
 776 002a BB68     		ldr	r3, [r7, #8]
 777 002c 002B     		cmp	r3, #0
 778 002e 04D1     		bne	.L31
 779              		.loc 1 407 33 discriminator 1
 780 0030 FB88     		ldrh	r3, [r7, #6]
 781 0032 002B     		cmp	r3, #0
 782 0034 01D0     		beq	.L31
 408:Drivers/STM32L4xx_HAL_Driver/Src/stm32l4xx_hal_tim_ex.c ****     {
 409:Drivers/STM32L4xx_HAL_Driver/Src/stm32l4xx_hal_tim_ex.c ****       return HAL_ERROR;
 783              		.loc 1 409 14
 784 0036 0123     		movs	r3, #1
 785 0038 43E0     		b	.L29
 786              	.L31:
 410:Drivers/STM32L4xx_HAL_Driver/Src/stm32l4xx_hal_tim_ex.c ****     }
 411:Drivers/STM32L4xx_HAL_Driver/Src/stm32l4xx_hal_tim_ex.c ****     else
 412:Drivers/STM32L4xx_HAL_Driver/Src/stm32l4xx_hal_tim_ex.c ****     {
 413:Drivers/STM32L4xx_HAL_Driver/Src/stm32l4xx_hal_tim_ex.c ****       htim->State = HAL_TIM_STATE_BUSY;
 787              		.loc 1 413 19
 788 003a FB68     		ldr	r3, [r7, #12]
 789 003c 0222     		movs	r2, #2
 790 003e 83F83D20 		strb	r2, [r3, #61]
 791              	.L30:
 414:Drivers/STM32L4xx_HAL_Driver/Src/stm32l4xx_hal_tim_ex.c ****     }
 415:Drivers/STM32L4xx_HAL_Driver/Src/stm32l4xx_hal_tim_ex.c ****   }
 416:Drivers/STM32L4xx_HAL_Driver/Src/stm32l4xx_hal_tim_ex.c ****   else
 417:Drivers/STM32L4xx_HAL_Driver/Src/stm32l4xx_hal_tim_ex.c ****   {
 418:Drivers/STM32L4xx_HAL_Driver/Src/stm32l4xx_hal_tim_ex.c ****     /* nothing to do */
 419:Drivers/STM32L4xx_HAL_Driver/Src/stm32l4xx_hal_tim_ex.c ****   }
 420:Drivers/STM32L4xx_HAL_Driver/Src/stm32l4xx_hal_tim_ex.c ****   /* Enable the Input Capture channel 1
 421:Drivers/STM32L4xx_HAL_Driver/Src/stm32l4xx_hal_tim_ex.c ****     (in the Hall Sensor Interface the three possible channels that can be used are TIM_CHANNEL_1, T
 422:Drivers/STM32L4xx_HAL_Driver/Src/stm32l4xx_hal_tim_ex.c ****   TIM_CCxChannelCmd(htim->Instance, TIM_CHANNEL_1, TIM_CCx_ENABLE);
 792              		.loc 1 422 3
ARM GAS  /tmp/cc9IMTcg.s 			page 22


 793 0042 FB68     		ldr	r3, [r7, #12]
 794 0044 1B68     		ldr	r3, [r3]
 795 0046 0122     		movs	r2, #1
 796 0048 0021     		movs	r1, #0
 797 004a 1846     		mov	r0, r3
 798 004c FFF7FEFF 		bl	TIM_CCxChannelCmd
 423:Drivers/STM32L4xx_HAL_Driver/Src/stm32l4xx_hal_tim_ex.c **** 
 424:Drivers/STM32L4xx_HAL_Driver/Src/stm32l4xx_hal_tim_ex.c ****   /* Set the DMA Input Capture 1 Callbacks */
 425:Drivers/STM32L4xx_HAL_Driver/Src/stm32l4xx_hal_tim_ex.c ****   htim->hdma[TIM_DMA_ID_CC1]->XferCpltCallback = TIM_DMACaptureCplt;
 799              		.loc 1 425 13
 800 0050 FB68     		ldr	r3, [r7, #12]
 801 0052 5B6A     		ldr	r3, [r3, #36]
 802              		.loc 1 425 48
 803 0054 1D4A     		ldr	r2, .L34
 804 0056 DA62     		str	r2, [r3, #44]
 426:Drivers/STM32L4xx_HAL_Driver/Src/stm32l4xx_hal_tim_ex.c ****   htim->hdma[TIM_DMA_ID_CC1]->XferHalfCpltCallback = TIM_DMACaptureHalfCplt;
 805              		.loc 1 426 13
 806 0058 FB68     		ldr	r3, [r7, #12]
 807 005a 5B6A     		ldr	r3, [r3, #36]
 808              		.loc 1 426 52
 809 005c 1C4A     		ldr	r2, .L34+4
 810 005e 1A63     		str	r2, [r3, #48]
 427:Drivers/STM32L4xx_HAL_Driver/Src/stm32l4xx_hal_tim_ex.c ****   /* Set the DMA error callback */
 428:Drivers/STM32L4xx_HAL_Driver/Src/stm32l4xx_hal_tim_ex.c ****   htim->hdma[TIM_DMA_ID_CC1]->XferErrorCallback = TIM_DMAError ;
 811              		.loc 1 428 13
 812 0060 FB68     		ldr	r3, [r7, #12]
 813 0062 5B6A     		ldr	r3, [r3, #36]
 814              		.loc 1 428 49
 815 0064 1B4A     		ldr	r2, .L34+8
 816 0066 5A63     		str	r2, [r3, #52]
 429:Drivers/STM32L4xx_HAL_Driver/Src/stm32l4xx_hal_tim_ex.c **** 
 430:Drivers/STM32L4xx_HAL_Driver/Src/stm32l4xx_hal_tim_ex.c ****   /* Enable the DMA channel for Capture 1*/
 431:Drivers/STM32L4xx_HAL_Driver/Src/stm32l4xx_hal_tim_ex.c ****   if (HAL_DMA_Start_IT(htim->hdma[TIM_DMA_ID_CC1], (uint32_t)&htim->Instance->CCR1, (uint32_t)pData
 817              		.loc 1 431 7
 818 0068 FB68     		ldr	r3, [r7, #12]
 819 006a 586A     		ldr	r0, [r3, #36]
 820              		.loc 1 431 67
 821 006c FB68     		ldr	r3, [r7, #12]
 822 006e 1B68     		ldr	r3, [r3]
 823              		.loc 1 431 62
 824 0070 3433     		adds	r3, r3, #52
 825              		.loc 1 431 7
 826 0072 1946     		mov	r1, r3
 827 0074 BA68     		ldr	r2, [r7, #8]
 828 0076 FB88     		ldrh	r3, [r7, #6]
 829 0078 FFF7FEFF 		bl	HAL_DMA_Start_IT
 830 007c 0346     		mov	r3, r0
 831              		.loc 1 431 6
 832 007e 002B     		cmp	r3, #0
 833 0080 01D0     		beq	.L32
 432:Drivers/STM32L4xx_HAL_Driver/Src/stm32l4xx_hal_tim_ex.c ****   {
 433:Drivers/STM32L4xx_HAL_Driver/Src/stm32l4xx_hal_tim_ex.c ****     return HAL_ERROR;
 834              		.loc 1 433 12
 835 0082 0123     		movs	r3, #1
 836 0084 1DE0     		b	.L29
 837              	.L32:
 434:Drivers/STM32L4xx_HAL_Driver/Src/stm32l4xx_hal_tim_ex.c ****   }
ARM GAS  /tmp/cc9IMTcg.s 			page 23


 435:Drivers/STM32L4xx_HAL_Driver/Src/stm32l4xx_hal_tim_ex.c ****   /* Enable the capture compare 1 Interrupt */
 436:Drivers/STM32L4xx_HAL_Driver/Src/stm32l4xx_hal_tim_ex.c ****   __HAL_TIM_ENABLE_DMA(htim, TIM_DMA_CC1);
 838              		.loc 1 436 3
 839 0086 FB68     		ldr	r3, [r7, #12]
 840 0088 1B68     		ldr	r3, [r3]
 841 008a DA68     		ldr	r2, [r3, #12]
 842 008c FB68     		ldr	r3, [r7, #12]
 843 008e 1B68     		ldr	r3, [r3]
 844 0090 42F40072 		orr	r2, r2, #512
 845 0094 DA60     		str	r2, [r3, #12]
 437:Drivers/STM32L4xx_HAL_Driver/Src/stm32l4xx_hal_tim_ex.c **** 
 438:Drivers/STM32L4xx_HAL_Driver/Src/stm32l4xx_hal_tim_ex.c ****   /* Enable the Peripheral, except in trigger mode where enable is automatically done with trigger 
 439:Drivers/STM32L4xx_HAL_Driver/Src/stm32l4xx_hal_tim_ex.c ****   tmpsmcr = htim->Instance->SMCR & TIM_SMCR_SMS;
 846              		.loc 1 439 17
 847 0096 FB68     		ldr	r3, [r7, #12]
 848 0098 1B68     		ldr	r3, [r3]
 849              		.loc 1 439 27
 850 009a 9A68     		ldr	r2, [r3, #8]
 851              		.loc 1 439 11
 852 009c 0E4B     		ldr	r3, .L34+12
 853 009e 1340     		ands	r3, r3, r2
 854 00a0 7B61     		str	r3, [r7, #20]
 440:Drivers/STM32L4xx_HAL_Driver/Src/stm32l4xx_hal_tim_ex.c ****   if (!IS_TIM_SLAVEMODE_TRIGGER_ENABLED(tmpsmcr))
 855              		.loc 1 440 6
 856 00a2 7B69     		ldr	r3, [r7, #20]
 857 00a4 062B     		cmp	r3, #6
 858 00a6 0BD0     		beq	.L33
 859              		.loc 1 440 7 discriminator 1
 860 00a8 7B69     		ldr	r3, [r7, #20]
 861 00aa B3F5803F 		cmp	r3, #65536
 862 00ae 07D0     		beq	.L33
 441:Drivers/STM32L4xx_HAL_Driver/Src/stm32l4xx_hal_tim_ex.c ****   {
 442:Drivers/STM32L4xx_HAL_Driver/Src/stm32l4xx_hal_tim_ex.c ****     __HAL_TIM_ENABLE(htim);
 863              		.loc 1 442 5
 864 00b0 FB68     		ldr	r3, [r7, #12]
 865 00b2 1B68     		ldr	r3, [r3]
 866 00b4 1A68     		ldr	r2, [r3]
 867 00b6 FB68     		ldr	r3, [r7, #12]
 868 00b8 1B68     		ldr	r3, [r3]
 869 00ba 42F00102 		orr	r2, r2, #1
 870 00be 1A60     		str	r2, [r3]
 871              	.L33:
 443:Drivers/STM32L4xx_HAL_Driver/Src/stm32l4xx_hal_tim_ex.c ****   }
 444:Drivers/STM32L4xx_HAL_Driver/Src/stm32l4xx_hal_tim_ex.c **** 
 445:Drivers/STM32L4xx_HAL_Driver/Src/stm32l4xx_hal_tim_ex.c ****   /* Return function status */
 446:Drivers/STM32L4xx_HAL_Driver/Src/stm32l4xx_hal_tim_ex.c ****   return HAL_OK;
 872              		.loc 1 446 10
 873 00c0 0023     		movs	r3, #0
 874              	.L29:
 447:Drivers/STM32L4xx_HAL_Driver/Src/stm32l4xx_hal_tim_ex.c **** }
 875              		.loc 1 447 1
 876 00c2 1846     		mov	r0, r3
 877 00c4 1837     		adds	r7, r7, #24
 878              	.LCFI45:
 879              		.cfi_def_cfa_offset 8
 880 00c6 BD46     		mov	sp, r7
 881              	.LCFI46:
ARM GAS  /tmp/cc9IMTcg.s 			page 24


 882              		.cfi_def_cfa_register 13
 883              		@ sp needed
 884 00c8 80BD     		pop	{r7, pc}
 885              	.L35:
 886 00ca 00BF     		.align	2
 887              	.L34:
 888 00cc 00000000 		.word	TIM_DMACaptureCplt
 889 00d0 00000000 		.word	TIM_DMACaptureHalfCplt
 890 00d4 00000000 		.word	TIM_DMAError
 891 00d8 07000100 		.word	65543
 892              		.cfi_endproc
 893              	.LFE138:
 895              		.section	.text.HAL_TIMEx_HallSensor_Stop_DMA,"ax",%progbits
 896              		.align	1
 897              		.global	HAL_TIMEx_HallSensor_Stop_DMA
 898              		.syntax unified
 899              		.thumb
 900              		.thumb_func
 901              		.fpu fpv4-sp-d16
 903              	HAL_TIMEx_HallSensor_Stop_DMA:
 904              	.LFB139:
 448:Drivers/STM32L4xx_HAL_Driver/Src/stm32l4xx_hal_tim_ex.c **** 
 449:Drivers/STM32L4xx_HAL_Driver/Src/stm32l4xx_hal_tim_ex.c **** /**
 450:Drivers/STM32L4xx_HAL_Driver/Src/stm32l4xx_hal_tim_ex.c ****   * @brief  Stops the TIM Hall Sensor Interface in DMA mode.
 451:Drivers/STM32L4xx_HAL_Driver/Src/stm32l4xx_hal_tim_ex.c ****   * @param  htim TIM Hall Sensor Interface handle
 452:Drivers/STM32L4xx_HAL_Driver/Src/stm32l4xx_hal_tim_ex.c ****   * @retval HAL status
 453:Drivers/STM32L4xx_HAL_Driver/Src/stm32l4xx_hal_tim_ex.c ****   */
 454:Drivers/STM32L4xx_HAL_Driver/Src/stm32l4xx_hal_tim_ex.c **** HAL_StatusTypeDef HAL_TIMEx_HallSensor_Stop_DMA(TIM_HandleTypeDef *htim)
 455:Drivers/STM32L4xx_HAL_Driver/Src/stm32l4xx_hal_tim_ex.c **** {
 905              		.loc 1 455 1
 906              		.cfi_startproc
 907              		@ args = 0, pretend = 0, frame = 8
 908              		@ frame_needed = 1, uses_anonymous_args = 0
 909 0000 80B5     		push	{r7, lr}
 910              	.LCFI47:
 911              		.cfi_def_cfa_offset 8
 912              		.cfi_offset 7, -8
 913              		.cfi_offset 14, -4
 914 0002 82B0     		sub	sp, sp, #8
 915              	.LCFI48:
 916              		.cfi_def_cfa_offset 16
 917 0004 00AF     		add	r7, sp, #0
 918              	.LCFI49:
 919              		.cfi_def_cfa_register 7
 920 0006 7860     		str	r0, [r7, #4]
 456:Drivers/STM32L4xx_HAL_Driver/Src/stm32l4xx_hal_tim_ex.c ****   /* Check the parameters */
 457:Drivers/STM32L4xx_HAL_Driver/Src/stm32l4xx_hal_tim_ex.c ****   assert_param(IS_TIM_HALL_SENSOR_INTERFACE_INSTANCE(htim->Instance));
 458:Drivers/STM32L4xx_HAL_Driver/Src/stm32l4xx_hal_tim_ex.c **** 
 459:Drivers/STM32L4xx_HAL_Driver/Src/stm32l4xx_hal_tim_ex.c ****   /* Disable the Input Capture channel 1
 460:Drivers/STM32L4xx_HAL_Driver/Src/stm32l4xx_hal_tim_ex.c ****     (in the Hall Sensor Interface the three possible channels that can be used are TIM_CHANNEL_1, T
 461:Drivers/STM32L4xx_HAL_Driver/Src/stm32l4xx_hal_tim_ex.c ****   TIM_CCxChannelCmd(htim->Instance, TIM_CHANNEL_1, TIM_CCx_DISABLE);
 921              		.loc 1 461 3
 922 0008 7B68     		ldr	r3, [r7, #4]
 923 000a 1B68     		ldr	r3, [r3]
 924 000c 0022     		movs	r2, #0
 925 000e 0021     		movs	r1, #0
 926 0010 1846     		mov	r0, r3
ARM GAS  /tmp/cc9IMTcg.s 			page 25


 927 0012 FFF7FEFF 		bl	TIM_CCxChannelCmd
 462:Drivers/STM32L4xx_HAL_Driver/Src/stm32l4xx_hal_tim_ex.c **** 
 463:Drivers/STM32L4xx_HAL_Driver/Src/stm32l4xx_hal_tim_ex.c **** 
 464:Drivers/STM32L4xx_HAL_Driver/Src/stm32l4xx_hal_tim_ex.c ****   /* Disable the capture compare Interrupts 1 event */
 465:Drivers/STM32L4xx_HAL_Driver/Src/stm32l4xx_hal_tim_ex.c ****   __HAL_TIM_DISABLE_DMA(htim, TIM_DMA_CC1);
 928              		.loc 1 465 3
 929 0016 7B68     		ldr	r3, [r7, #4]
 930 0018 1B68     		ldr	r3, [r3]
 931 001a DA68     		ldr	r2, [r3, #12]
 932 001c 7B68     		ldr	r3, [r7, #4]
 933 001e 1B68     		ldr	r3, [r3]
 934 0020 22F40072 		bic	r2, r2, #512
 935 0024 DA60     		str	r2, [r3, #12]
 466:Drivers/STM32L4xx_HAL_Driver/Src/stm32l4xx_hal_tim_ex.c **** 
 467:Drivers/STM32L4xx_HAL_Driver/Src/stm32l4xx_hal_tim_ex.c ****   (void)HAL_DMA_Abort_IT(htim->hdma[TIM_DMA_ID_CC1]);
 936              		.loc 1 467 9
 937 0026 7B68     		ldr	r3, [r7, #4]
 938 0028 5B6A     		ldr	r3, [r3, #36]
 939 002a 1846     		mov	r0, r3
 940 002c FFF7FEFF 		bl	HAL_DMA_Abort_IT
 468:Drivers/STM32L4xx_HAL_Driver/Src/stm32l4xx_hal_tim_ex.c ****   /* Disable the Peripheral */
 469:Drivers/STM32L4xx_HAL_Driver/Src/stm32l4xx_hal_tim_ex.c ****   __HAL_TIM_DISABLE(htim);
 941              		.loc 1 469 3
 942 0030 7B68     		ldr	r3, [r7, #4]
 943 0032 1B68     		ldr	r3, [r3]
 944 0034 1A6A     		ldr	r2, [r3, #32]
 945 0036 41F21113 		movw	r3, #4369
 946 003a 1340     		ands	r3, r3, r2
 947 003c 002B     		cmp	r3, #0
 948 003e 0FD1     		bne	.L37
 949              		.loc 1 469 3 is_stmt 0 discriminator 1
 950 0040 7B68     		ldr	r3, [r7, #4]
 951 0042 1B68     		ldr	r3, [r3]
 952 0044 1A6A     		ldr	r2, [r3, #32]
 953 0046 40F24443 		movw	r3, #1092
 954 004a 1340     		ands	r3, r3, r2
 955 004c 002B     		cmp	r3, #0
 956 004e 07D1     		bne	.L37
 957              		.loc 1 469 3 discriminator 2
 958 0050 7B68     		ldr	r3, [r7, #4]
 959 0052 1B68     		ldr	r3, [r3]
 960 0054 1A68     		ldr	r2, [r3]
 961 0056 7B68     		ldr	r3, [r7, #4]
 962 0058 1B68     		ldr	r3, [r3]
 963 005a 22F00102 		bic	r2, r2, #1
 964 005e 1A60     		str	r2, [r3]
 965              	.L37:
 470:Drivers/STM32L4xx_HAL_Driver/Src/stm32l4xx_hal_tim_ex.c **** 
 471:Drivers/STM32L4xx_HAL_Driver/Src/stm32l4xx_hal_tim_ex.c ****   /* Return function status */
 472:Drivers/STM32L4xx_HAL_Driver/Src/stm32l4xx_hal_tim_ex.c ****   return HAL_OK;
 966              		.loc 1 472 10 is_stmt 1
 967 0060 0023     		movs	r3, #0
 473:Drivers/STM32L4xx_HAL_Driver/Src/stm32l4xx_hal_tim_ex.c **** }
 968              		.loc 1 473 1
 969 0062 1846     		mov	r0, r3
 970 0064 0837     		adds	r7, r7, #8
 971              	.LCFI50:
ARM GAS  /tmp/cc9IMTcg.s 			page 26


 972              		.cfi_def_cfa_offset 8
 973 0066 BD46     		mov	sp, r7
 974              	.LCFI51:
 975              		.cfi_def_cfa_register 13
 976              		@ sp needed
 977 0068 80BD     		pop	{r7, pc}
 978              		.cfi_endproc
 979              	.LFE139:
 981              		.section	.text.HAL_TIMEx_OCN_Start,"ax",%progbits
 982              		.align	1
 983              		.global	HAL_TIMEx_OCN_Start
 984              		.syntax unified
 985              		.thumb
 986              		.thumb_func
 987              		.fpu fpv4-sp-d16
 989              	HAL_TIMEx_OCN_Start:
 990              	.LFB140:
 474:Drivers/STM32L4xx_HAL_Driver/Src/stm32l4xx_hal_tim_ex.c **** 
 475:Drivers/STM32L4xx_HAL_Driver/Src/stm32l4xx_hal_tim_ex.c **** /**
 476:Drivers/STM32L4xx_HAL_Driver/Src/stm32l4xx_hal_tim_ex.c ****   * @}
 477:Drivers/STM32L4xx_HAL_Driver/Src/stm32l4xx_hal_tim_ex.c ****   */
 478:Drivers/STM32L4xx_HAL_Driver/Src/stm32l4xx_hal_tim_ex.c **** 
 479:Drivers/STM32L4xx_HAL_Driver/Src/stm32l4xx_hal_tim_ex.c **** /** @defgroup TIMEx_Exported_Functions_Group2 Extended Timer Complementary Output Compare functions
 480:Drivers/STM32L4xx_HAL_Driver/Src/stm32l4xx_hal_tim_ex.c ****   *  @brief   Timer Complementary Output Compare functions
 481:Drivers/STM32L4xx_HAL_Driver/Src/stm32l4xx_hal_tim_ex.c ****   *
 482:Drivers/STM32L4xx_HAL_Driver/Src/stm32l4xx_hal_tim_ex.c **** @verbatim
 483:Drivers/STM32L4xx_HAL_Driver/Src/stm32l4xx_hal_tim_ex.c ****   ==============================================================================
 484:Drivers/STM32L4xx_HAL_Driver/Src/stm32l4xx_hal_tim_ex.c ****               ##### Timer Complementary Output Compare functions #####
 485:Drivers/STM32L4xx_HAL_Driver/Src/stm32l4xx_hal_tim_ex.c ****   ==============================================================================
 486:Drivers/STM32L4xx_HAL_Driver/Src/stm32l4xx_hal_tim_ex.c ****   [..]
 487:Drivers/STM32L4xx_HAL_Driver/Src/stm32l4xx_hal_tim_ex.c ****     This section provides functions allowing to:
 488:Drivers/STM32L4xx_HAL_Driver/Src/stm32l4xx_hal_tim_ex.c ****     (+) Start the Complementary Output Compare/PWM.
 489:Drivers/STM32L4xx_HAL_Driver/Src/stm32l4xx_hal_tim_ex.c ****     (+) Stop the Complementary Output Compare/PWM.
 490:Drivers/STM32L4xx_HAL_Driver/Src/stm32l4xx_hal_tim_ex.c ****     (+) Start the Complementary Output Compare/PWM and enable interrupts.
 491:Drivers/STM32L4xx_HAL_Driver/Src/stm32l4xx_hal_tim_ex.c ****     (+) Stop the Complementary Output Compare/PWM and disable interrupts.
 492:Drivers/STM32L4xx_HAL_Driver/Src/stm32l4xx_hal_tim_ex.c ****     (+) Start the Complementary Output Compare/PWM and enable DMA transfers.
 493:Drivers/STM32L4xx_HAL_Driver/Src/stm32l4xx_hal_tim_ex.c ****     (+) Stop the Complementary Output Compare/PWM and disable DMA transfers.
 494:Drivers/STM32L4xx_HAL_Driver/Src/stm32l4xx_hal_tim_ex.c **** 
 495:Drivers/STM32L4xx_HAL_Driver/Src/stm32l4xx_hal_tim_ex.c **** @endverbatim
 496:Drivers/STM32L4xx_HAL_Driver/Src/stm32l4xx_hal_tim_ex.c ****   * @{
 497:Drivers/STM32L4xx_HAL_Driver/Src/stm32l4xx_hal_tim_ex.c ****   */
 498:Drivers/STM32L4xx_HAL_Driver/Src/stm32l4xx_hal_tim_ex.c **** 
 499:Drivers/STM32L4xx_HAL_Driver/Src/stm32l4xx_hal_tim_ex.c **** /**
 500:Drivers/STM32L4xx_HAL_Driver/Src/stm32l4xx_hal_tim_ex.c ****   * @brief  Starts the TIM Output Compare signal generation on the complementary
 501:Drivers/STM32L4xx_HAL_Driver/Src/stm32l4xx_hal_tim_ex.c ****   *         output.
 502:Drivers/STM32L4xx_HAL_Driver/Src/stm32l4xx_hal_tim_ex.c ****   * @param  htim TIM Output Compare handle
 503:Drivers/STM32L4xx_HAL_Driver/Src/stm32l4xx_hal_tim_ex.c ****   * @param  Channel TIM Channel to be enabled
 504:Drivers/STM32L4xx_HAL_Driver/Src/stm32l4xx_hal_tim_ex.c ****   *          This parameter can be one of the following values:
 505:Drivers/STM32L4xx_HAL_Driver/Src/stm32l4xx_hal_tim_ex.c ****   *            @arg TIM_CHANNEL_1: TIM Channel 1 selected
 506:Drivers/STM32L4xx_HAL_Driver/Src/stm32l4xx_hal_tim_ex.c ****   *            @arg TIM_CHANNEL_2: TIM Channel 2 selected
 507:Drivers/STM32L4xx_HAL_Driver/Src/stm32l4xx_hal_tim_ex.c ****   *            @arg TIM_CHANNEL_3: TIM Channel 3 selected
 508:Drivers/STM32L4xx_HAL_Driver/Src/stm32l4xx_hal_tim_ex.c ****   * @retval HAL status
 509:Drivers/STM32L4xx_HAL_Driver/Src/stm32l4xx_hal_tim_ex.c ****   */
 510:Drivers/STM32L4xx_HAL_Driver/Src/stm32l4xx_hal_tim_ex.c **** HAL_StatusTypeDef HAL_TIMEx_OCN_Start(TIM_HandleTypeDef *htim, uint32_t Channel)
 511:Drivers/STM32L4xx_HAL_Driver/Src/stm32l4xx_hal_tim_ex.c **** {
 991              		.loc 1 511 1
 992              		.cfi_startproc
ARM GAS  /tmp/cc9IMTcg.s 			page 27


 993              		@ args = 0, pretend = 0, frame = 16
 994              		@ frame_needed = 1, uses_anonymous_args = 0
 995 0000 80B5     		push	{r7, lr}
 996              	.LCFI52:
 997              		.cfi_def_cfa_offset 8
 998              		.cfi_offset 7, -8
 999              		.cfi_offset 14, -4
 1000 0002 84B0     		sub	sp, sp, #16
 1001              	.LCFI53:
 1002              		.cfi_def_cfa_offset 24
 1003 0004 00AF     		add	r7, sp, #0
 1004              	.LCFI54:
 1005              		.cfi_def_cfa_register 7
 1006 0006 7860     		str	r0, [r7, #4]
 1007 0008 3960     		str	r1, [r7]
 512:Drivers/STM32L4xx_HAL_Driver/Src/stm32l4xx_hal_tim_ex.c ****   uint32_t tmpsmcr;
 513:Drivers/STM32L4xx_HAL_Driver/Src/stm32l4xx_hal_tim_ex.c **** 
 514:Drivers/STM32L4xx_HAL_Driver/Src/stm32l4xx_hal_tim_ex.c ****   /* Check the parameters */
 515:Drivers/STM32L4xx_HAL_Driver/Src/stm32l4xx_hal_tim_ex.c ****   assert_param(IS_TIM_CCXN_INSTANCE(htim->Instance, Channel));
 516:Drivers/STM32L4xx_HAL_Driver/Src/stm32l4xx_hal_tim_ex.c **** 
 517:Drivers/STM32L4xx_HAL_Driver/Src/stm32l4xx_hal_tim_ex.c ****   /* Enable the Capture compare channel N */
 518:Drivers/STM32L4xx_HAL_Driver/Src/stm32l4xx_hal_tim_ex.c ****   TIM_CCxNChannelCmd(htim->Instance, Channel, TIM_CCxN_ENABLE);
 1008              		.loc 1 518 3
 1009 000a 7B68     		ldr	r3, [r7, #4]
 1010 000c 1B68     		ldr	r3, [r3]
 1011 000e 0422     		movs	r2, #4
 1012 0010 3968     		ldr	r1, [r7]
 1013 0012 1846     		mov	r0, r3
 1014 0014 FFF7FEFF 		bl	TIM_CCxNChannelCmd
 519:Drivers/STM32L4xx_HAL_Driver/Src/stm32l4xx_hal_tim_ex.c **** 
 520:Drivers/STM32L4xx_HAL_Driver/Src/stm32l4xx_hal_tim_ex.c ****   /* Enable the Main Output */
 521:Drivers/STM32L4xx_HAL_Driver/Src/stm32l4xx_hal_tim_ex.c ****   __HAL_TIM_MOE_ENABLE(htim);
 1015              		.loc 1 521 3
 1016 0018 7B68     		ldr	r3, [r7, #4]
 1017 001a 1B68     		ldr	r3, [r3]
 1018 001c 5A6C     		ldr	r2, [r3, #68]
 1019 001e 7B68     		ldr	r3, [r7, #4]
 1020 0020 1B68     		ldr	r3, [r3]
 1021 0022 42F40042 		orr	r2, r2, #32768
 1022 0026 5A64     		str	r2, [r3, #68]
 522:Drivers/STM32L4xx_HAL_Driver/Src/stm32l4xx_hal_tim_ex.c **** 
 523:Drivers/STM32L4xx_HAL_Driver/Src/stm32l4xx_hal_tim_ex.c ****   /* Enable the Peripheral, except in trigger mode where enable is automatically done with trigger 
 524:Drivers/STM32L4xx_HAL_Driver/Src/stm32l4xx_hal_tim_ex.c ****   tmpsmcr = htim->Instance->SMCR & TIM_SMCR_SMS;
 1023              		.loc 1 524 17
 1024 0028 7B68     		ldr	r3, [r7, #4]
 1025 002a 1B68     		ldr	r3, [r3]
 1026              		.loc 1 524 27
 1027 002c 9A68     		ldr	r2, [r3, #8]
 1028              		.loc 1 524 11
 1029 002e 0B4B     		ldr	r3, .L42
 1030 0030 1340     		ands	r3, r3, r2
 1031 0032 FB60     		str	r3, [r7, #12]
 525:Drivers/STM32L4xx_HAL_Driver/Src/stm32l4xx_hal_tim_ex.c ****   if (!IS_TIM_SLAVEMODE_TRIGGER_ENABLED(tmpsmcr))
 1032              		.loc 1 525 6
 1033 0034 FB68     		ldr	r3, [r7, #12]
 1034 0036 062B     		cmp	r3, #6
 1035 0038 0BD0     		beq	.L40
ARM GAS  /tmp/cc9IMTcg.s 			page 28


 1036              		.loc 1 525 7 discriminator 1
 1037 003a FB68     		ldr	r3, [r7, #12]
 1038 003c B3F5803F 		cmp	r3, #65536
 1039 0040 07D0     		beq	.L40
 526:Drivers/STM32L4xx_HAL_Driver/Src/stm32l4xx_hal_tim_ex.c ****   {
 527:Drivers/STM32L4xx_HAL_Driver/Src/stm32l4xx_hal_tim_ex.c ****     __HAL_TIM_ENABLE(htim);
 1040              		.loc 1 527 5
 1041 0042 7B68     		ldr	r3, [r7, #4]
 1042 0044 1B68     		ldr	r3, [r3]
 1043 0046 1A68     		ldr	r2, [r3]
 1044 0048 7B68     		ldr	r3, [r7, #4]
 1045 004a 1B68     		ldr	r3, [r3]
 1046 004c 42F00102 		orr	r2, r2, #1
 1047 0050 1A60     		str	r2, [r3]
 1048              	.L40:
 528:Drivers/STM32L4xx_HAL_Driver/Src/stm32l4xx_hal_tim_ex.c ****   }
 529:Drivers/STM32L4xx_HAL_Driver/Src/stm32l4xx_hal_tim_ex.c **** 
 530:Drivers/STM32L4xx_HAL_Driver/Src/stm32l4xx_hal_tim_ex.c ****   /* Return function status */
 531:Drivers/STM32L4xx_HAL_Driver/Src/stm32l4xx_hal_tim_ex.c ****   return HAL_OK;
 1049              		.loc 1 531 10
 1050 0052 0023     		movs	r3, #0
 532:Drivers/STM32L4xx_HAL_Driver/Src/stm32l4xx_hal_tim_ex.c **** }
 1051              		.loc 1 532 1
 1052 0054 1846     		mov	r0, r3
 1053 0056 1037     		adds	r7, r7, #16
 1054              	.LCFI55:
 1055              		.cfi_def_cfa_offset 8
 1056 0058 BD46     		mov	sp, r7
 1057              	.LCFI56:
 1058              		.cfi_def_cfa_register 13
 1059              		@ sp needed
 1060 005a 80BD     		pop	{r7, pc}
 1061              	.L43:
 1062              		.align	2
 1063              	.L42:
 1064 005c 07000100 		.word	65543
 1065              		.cfi_endproc
 1066              	.LFE140:
 1068              		.section	.text.HAL_TIMEx_OCN_Stop,"ax",%progbits
 1069              		.align	1
 1070              		.global	HAL_TIMEx_OCN_Stop
 1071              		.syntax unified
 1072              		.thumb
 1073              		.thumb_func
 1074              		.fpu fpv4-sp-d16
 1076              	HAL_TIMEx_OCN_Stop:
 1077              	.LFB141:
 533:Drivers/STM32L4xx_HAL_Driver/Src/stm32l4xx_hal_tim_ex.c **** 
 534:Drivers/STM32L4xx_HAL_Driver/Src/stm32l4xx_hal_tim_ex.c **** /**
 535:Drivers/STM32L4xx_HAL_Driver/Src/stm32l4xx_hal_tim_ex.c ****   * @brief  Stops the TIM Output Compare signal generation on the complementary
 536:Drivers/STM32L4xx_HAL_Driver/Src/stm32l4xx_hal_tim_ex.c ****   *         output.
 537:Drivers/STM32L4xx_HAL_Driver/Src/stm32l4xx_hal_tim_ex.c ****   * @param  htim TIM handle
 538:Drivers/STM32L4xx_HAL_Driver/Src/stm32l4xx_hal_tim_ex.c ****   * @param  Channel TIM Channel to be disabled
 539:Drivers/STM32L4xx_HAL_Driver/Src/stm32l4xx_hal_tim_ex.c ****   *          This parameter can be one of the following values:
 540:Drivers/STM32L4xx_HAL_Driver/Src/stm32l4xx_hal_tim_ex.c ****   *            @arg TIM_CHANNEL_1: TIM Channel 1 selected
 541:Drivers/STM32L4xx_HAL_Driver/Src/stm32l4xx_hal_tim_ex.c ****   *            @arg TIM_CHANNEL_2: TIM Channel 2 selected
 542:Drivers/STM32L4xx_HAL_Driver/Src/stm32l4xx_hal_tim_ex.c ****   *            @arg TIM_CHANNEL_3: TIM Channel 3 selected
ARM GAS  /tmp/cc9IMTcg.s 			page 29


 543:Drivers/STM32L4xx_HAL_Driver/Src/stm32l4xx_hal_tim_ex.c ****   * @retval HAL status
 544:Drivers/STM32L4xx_HAL_Driver/Src/stm32l4xx_hal_tim_ex.c ****   */
 545:Drivers/STM32L4xx_HAL_Driver/Src/stm32l4xx_hal_tim_ex.c **** HAL_StatusTypeDef HAL_TIMEx_OCN_Stop(TIM_HandleTypeDef *htim, uint32_t Channel)
 546:Drivers/STM32L4xx_HAL_Driver/Src/stm32l4xx_hal_tim_ex.c **** {
 1078              		.loc 1 546 1
 1079              		.cfi_startproc
 1080              		@ args = 0, pretend = 0, frame = 8
 1081              		@ frame_needed = 1, uses_anonymous_args = 0
 1082 0000 80B5     		push	{r7, lr}
 1083              	.LCFI57:
 1084              		.cfi_def_cfa_offset 8
 1085              		.cfi_offset 7, -8
 1086              		.cfi_offset 14, -4
 1087 0002 82B0     		sub	sp, sp, #8
 1088              	.LCFI58:
 1089              		.cfi_def_cfa_offset 16
 1090 0004 00AF     		add	r7, sp, #0
 1091              	.LCFI59:
 1092              		.cfi_def_cfa_register 7
 1093 0006 7860     		str	r0, [r7, #4]
 1094 0008 3960     		str	r1, [r7]
 547:Drivers/STM32L4xx_HAL_Driver/Src/stm32l4xx_hal_tim_ex.c ****   /* Check the parameters */
 548:Drivers/STM32L4xx_HAL_Driver/Src/stm32l4xx_hal_tim_ex.c ****   assert_param(IS_TIM_CCXN_INSTANCE(htim->Instance, Channel));
 549:Drivers/STM32L4xx_HAL_Driver/Src/stm32l4xx_hal_tim_ex.c **** 
 550:Drivers/STM32L4xx_HAL_Driver/Src/stm32l4xx_hal_tim_ex.c ****   /* Disable the Capture compare channel N */
 551:Drivers/STM32L4xx_HAL_Driver/Src/stm32l4xx_hal_tim_ex.c ****   TIM_CCxNChannelCmd(htim->Instance, Channel, TIM_CCxN_DISABLE);
 1095              		.loc 1 551 3
 1096 000a 7B68     		ldr	r3, [r7, #4]
 1097 000c 1B68     		ldr	r3, [r3]
 1098 000e 0022     		movs	r2, #0
 1099 0010 3968     		ldr	r1, [r7]
 1100 0012 1846     		mov	r0, r3
 1101 0014 FFF7FEFF 		bl	TIM_CCxNChannelCmd
 552:Drivers/STM32L4xx_HAL_Driver/Src/stm32l4xx_hal_tim_ex.c **** 
 553:Drivers/STM32L4xx_HAL_Driver/Src/stm32l4xx_hal_tim_ex.c ****   /* Disable the Main Output */
 554:Drivers/STM32L4xx_HAL_Driver/Src/stm32l4xx_hal_tim_ex.c ****   __HAL_TIM_MOE_DISABLE(htim);
 1102              		.loc 1 554 3
 1103 0018 7B68     		ldr	r3, [r7, #4]
 1104 001a 1B68     		ldr	r3, [r3]
 1105 001c 1A6A     		ldr	r2, [r3, #32]
 1106 001e 41F21113 		movw	r3, #4369
 1107 0022 1340     		ands	r3, r3, r2
 1108 0024 002B     		cmp	r3, #0
 1109 0026 0FD1     		bne	.L45
 1110              		.loc 1 554 3 is_stmt 0 discriminator 1
 1111 0028 7B68     		ldr	r3, [r7, #4]
 1112 002a 1B68     		ldr	r3, [r3]
 1113 002c 1A6A     		ldr	r2, [r3, #32]
 1114 002e 40F24443 		movw	r3, #1092
 1115 0032 1340     		ands	r3, r3, r2
 1116 0034 002B     		cmp	r3, #0
 1117 0036 07D1     		bne	.L45
 1118              		.loc 1 554 3 discriminator 2
 1119 0038 7B68     		ldr	r3, [r7, #4]
 1120 003a 1B68     		ldr	r3, [r3]
 1121 003c 5A6C     		ldr	r2, [r3, #68]
 1122 003e 7B68     		ldr	r3, [r7, #4]
ARM GAS  /tmp/cc9IMTcg.s 			page 30


 1123 0040 1B68     		ldr	r3, [r3]
 1124 0042 22F40042 		bic	r2, r2, #32768
 1125 0046 5A64     		str	r2, [r3, #68]
 1126              	.L45:
 555:Drivers/STM32L4xx_HAL_Driver/Src/stm32l4xx_hal_tim_ex.c **** 
 556:Drivers/STM32L4xx_HAL_Driver/Src/stm32l4xx_hal_tim_ex.c ****   /* Disable the Peripheral */
 557:Drivers/STM32L4xx_HAL_Driver/Src/stm32l4xx_hal_tim_ex.c ****   __HAL_TIM_DISABLE(htim);
 1127              		.loc 1 557 3 is_stmt 1
 1128 0048 7B68     		ldr	r3, [r7, #4]
 1129 004a 1B68     		ldr	r3, [r3]
 1130 004c 1A6A     		ldr	r2, [r3, #32]
 1131 004e 41F21113 		movw	r3, #4369
 1132 0052 1340     		ands	r3, r3, r2
 1133 0054 002B     		cmp	r3, #0
 1134 0056 0FD1     		bne	.L46
 1135              		.loc 1 557 3 is_stmt 0 discriminator 1
 1136 0058 7B68     		ldr	r3, [r7, #4]
 1137 005a 1B68     		ldr	r3, [r3]
 1138 005c 1A6A     		ldr	r2, [r3, #32]
 1139 005e 40F24443 		movw	r3, #1092
 1140 0062 1340     		ands	r3, r3, r2
 1141 0064 002B     		cmp	r3, #0
 1142 0066 07D1     		bne	.L46
 1143              		.loc 1 557 3 discriminator 2
 1144 0068 7B68     		ldr	r3, [r7, #4]
 1145 006a 1B68     		ldr	r3, [r3]
 1146 006c 1A68     		ldr	r2, [r3]
 1147 006e 7B68     		ldr	r3, [r7, #4]
 1148 0070 1B68     		ldr	r3, [r3]
 1149 0072 22F00102 		bic	r2, r2, #1
 1150 0076 1A60     		str	r2, [r3]
 1151              	.L46:
 558:Drivers/STM32L4xx_HAL_Driver/Src/stm32l4xx_hal_tim_ex.c **** 
 559:Drivers/STM32L4xx_HAL_Driver/Src/stm32l4xx_hal_tim_ex.c ****   /* Return function status */
 560:Drivers/STM32L4xx_HAL_Driver/Src/stm32l4xx_hal_tim_ex.c ****   return HAL_OK;
 1152              		.loc 1 560 10 is_stmt 1
 1153 0078 0023     		movs	r3, #0
 561:Drivers/STM32L4xx_HAL_Driver/Src/stm32l4xx_hal_tim_ex.c **** }
 1154              		.loc 1 561 1
 1155 007a 1846     		mov	r0, r3
 1156 007c 0837     		adds	r7, r7, #8
 1157              	.LCFI60:
 1158              		.cfi_def_cfa_offset 8
 1159 007e BD46     		mov	sp, r7
 1160              	.LCFI61:
 1161              		.cfi_def_cfa_register 13
 1162              		@ sp needed
 1163 0080 80BD     		pop	{r7, pc}
 1164              		.cfi_endproc
 1165              	.LFE141:
 1167              		.section	.text.HAL_TIMEx_OCN_Start_IT,"ax",%progbits
 1168              		.align	1
 1169              		.global	HAL_TIMEx_OCN_Start_IT
 1170              		.syntax unified
 1171              		.thumb
 1172              		.thumb_func
 1173              		.fpu fpv4-sp-d16
ARM GAS  /tmp/cc9IMTcg.s 			page 31


 1175              	HAL_TIMEx_OCN_Start_IT:
 1176              	.LFB142:
 562:Drivers/STM32L4xx_HAL_Driver/Src/stm32l4xx_hal_tim_ex.c **** 
 563:Drivers/STM32L4xx_HAL_Driver/Src/stm32l4xx_hal_tim_ex.c **** /**
 564:Drivers/STM32L4xx_HAL_Driver/Src/stm32l4xx_hal_tim_ex.c ****   * @brief  Starts the TIM Output Compare signal generation in interrupt mode
 565:Drivers/STM32L4xx_HAL_Driver/Src/stm32l4xx_hal_tim_ex.c ****   *         on the complementary output.
 566:Drivers/STM32L4xx_HAL_Driver/Src/stm32l4xx_hal_tim_ex.c ****   * @param  htim TIM OC handle
 567:Drivers/STM32L4xx_HAL_Driver/Src/stm32l4xx_hal_tim_ex.c ****   * @param  Channel TIM Channel to be enabled
 568:Drivers/STM32L4xx_HAL_Driver/Src/stm32l4xx_hal_tim_ex.c ****   *          This parameter can be one of the following values:
 569:Drivers/STM32L4xx_HAL_Driver/Src/stm32l4xx_hal_tim_ex.c ****   *            @arg TIM_CHANNEL_1: TIM Channel 1 selected
 570:Drivers/STM32L4xx_HAL_Driver/Src/stm32l4xx_hal_tim_ex.c ****   *            @arg TIM_CHANNEL_2: TIM Channel 2 selected
 571:Drivers/STM32L4xx_HAL_Driver/Src/stm32l4xx_hal_tim_ex.c ****   *            @arg TIM_CHANNEL_3: TIM Channel 3 selected
 572:Drivers/STM32L4xx_HAL_Driver/Src/stm32l4xx_hal_tim_ex.c ****   * @retval HAL status
 573:Drivers/STM32L4xx_HAL_Driver/Src/stm32l4xx_hal_tim_ex.c ****   */
 574:Drivers/STM32L4xx_HAL_Driver/Src/stm32l4xx_hal_tim_ex.c **** HAL_StatusTypeDef HAL_TIMEx_OCN_Start_IT(TIM_HandleTypeDef *htim, uint32_t Channel)
 575:Drivers/STM32L4xx_HAL_Driver/Src/stm32l4xx_hal_tim_ex.c **** {
 1177              		.loc 1 575 1
 1178              		.cfi_startproc
 1179              		@ args = 0, pretend = 0, frame = 16
 1180              		@ frame_needed = 1, uses_anonymous_args = 0
 1181 0000 80B5     		push	{r7, lr}
 1182              	.LCFI62:
 1183              		.cfi_def_cfa_offset 8
 1184              		.cfi_offset 7, -8
 1185              		.cfi_offset 14, -4
 1186 0002 84B0     		sub	sp, sp, #16
 1187              	.LCFI63:
 1188              		.cfi_def_cfa_offset 24
 1189 0004 00AF     		add	r7, sp, #0
 1190              	.LCFI64:
 1191              		.cfi_def_cfa_register 7
 1192 0006 7860     		str	r0, [r7, #4]
 1193 0008 3960     		str	r1, [r7]
 576:Drivers/STM32L4xx_HAL_Driver/Src/stm32l4xx_hal_tim_ex.c ****   uint32_t tmpsmcr;
 577:Drivers/STM32L4xx_HAL_Driver/Src/stm32l4xx_hal_tim_ex.c **** 
 578:Drivers/STM32L4xx_HAL_Driver/Src/stm32l4xx_hal_tim_ex.c ****   /* Check the parameters */
 579:Drivers/STM32L4xx_HAL_Driver/Src/stm32l4xx_hal_tim_ex.c ****   assert_param(IS_TIM_CCXN_INSTANCE(htim->Instance, Channel));
 580:Drivers/STM32L4xx_HAL_Driver/Src/stm32l4xx_hal_tim_ex.c **** 
 581:Drivers/STM32L4xx_HAL_Driver/Src/stm32l4xx_hal_tim_ex.c ****   switch (Channel)
 1194              		.loc 1 581 3
 1195 000a 3B68     		ldr	r3, [r7]
 1196 000c 082B     		cmp	r3, #8
 1197 000e 1BD0     		beq	.L49
 1198 0010 3B68     		ldr	r3, [r7]
 1199 0012 082B     		cmp	r3, #8
 1200 0014 21D8     		bhi	.L56
 1201 0016 3B68     		ldr	r3, [r7]
 1202 0018 002B     		cmp	r3, #0
 1203 001a 03D0     		beq	.L51
 1204 001c 3B68     		ldr	r3, [r7]
 1205 001e 042B     		cmp	r3, #4
 1206 0020 09D0     		beq	.L52
 582:Drivers/STM32L4xx_HAL_Driver/Src/stm32l4xx_hal_tim_ex.c ****   {
 583:Drivers/STM32L4xx_HAL_Driver/Src/stm32l4xx_hal_tim_ex.c ****     case TIM_CHANNEL_1:
 584:Drivers/STM32L4xx_HAL_Driver/Src/stm32l4xx_hal_tim_ex.c ****     {
 585:Drivers/STM32L4xx_HAL_Driver/Src/stm32l4xx_hal_tim_ex.c ****       /* Enable the TIM Output Compare interrupt */
 586:Drivers/STM32L4xx_HAL_Driver/Src/stm32l4xx_hal_tim_ex.c ****       __HAL_TIM_ENABLE_IT(htim, TIM_IT_CC1);
ARM GAS  /tmp/cc9IMTcg.s 			page 32


 587:Drivers/STM32L4xx_HAL_Driver/Src/stm32l4xx_hal_tim_ex.c ****       break;
 588:Drivers/STM32L4xx_HAL_Driver/Src/stm32l4xx_hal_tim_ex.c ****     }
 589:Drivers/STM32L4xx_HAL_Driver/Src/stm32l4xx_hal_tim_ex.c **** 
 590:Drivers/STM32L4xx_HAL_Driver/Src/stm32l4xx_hal_tim_ex.c ****     case TIM_CHANNEL_2:
 591:Drivers/STM32L4xx_HAL_Driver/Src/stm32l4xx_hal_tim_ex.c ****     {
 592:Drivers/STM32L4xx_HAL_Driver/Src/stm32l4xx_hal_tim_ex.c ****       /* Enable the TIM Output Compare interrupt */
 593:Drivers/STM32L4xx_HAL_Driver/Src/stm32l4xx_hal_tim_ex.c ****       __HAL_TIM_ENABLE_IT(htim, TIM_IT_CC2);
 594:Drivers/STM32L4xx_HAL_Driver/Src/stm32l4xx_hal_tim_ex.c ****       break;
 595:Drivers/STM32L4xx_HAL_Driver/Src/stm32l4xx_hal_tim_ex.c ****     }
 596:Drivers/STM32L4xx_HAL_Driver/Src/stm32l4xx_hal_tim_ex.c **** 
 597:Drivers/STM32L4xx_HAL_Driver/Src/stm32l4xx_hal_tim_ex.c ****     case TIM_CHANNEL_3:
 598:Drivers/STM32L4xx_HAL_Driver/Src/stm32l4xx_hal_tim_ex.c ****     {
 599:Drivers/STM32L4xx_HAL_Driver/Src/stm32l4xx_hal_tim_ex.c ****       /* Enable the TIM Output Compare interrupt */
 600:Drivers/STM32L4xx_HAL_Driver/Src/stm32l4xx_hal_tim_ex.c ****       __HAL_TIM_ENABLE_IT(htim, TIM_IT_CC3);
 601:Drivers/STM32L4xx_HAL_Driver/Src/stm32l4xx_hal_tim_ex.c ****       break;
 602:Drivers/STM32L4xx_HAL_Driver/Src/stm32l4xx_hal_tim_ex.c ****     }
 603:Drivers/STM32L4xx_HAL_Driver/Src/stm32l4xx_hal_tim_ex.c **** 
 604:Drivers/STM32L4xx_HAL_Driver/Src/stm32l4xx_hal_tim_ex.c **** 
 605:Drivers/STM32L4xx_HAL_Driver/Src/stm32l4xx_hal_tim_ex.c ****     default:
 606:Drivers/STM32L4xx_HAL_Driver/Src/stm32l4xx_hal_tim_ex.c ****       break;
 1207              		.loc 1 606 7
 1208 0022 1AE0     		b	.L56
 1209              	.L51:
 586:Drivers/STM32L4xx_HAL_Driver/Src/stm32l4xx_hal_tim_ex.c ****       break;
 1210              		.loc 1 586 7
 1211 0024 7B68     		ldr	r3, [r7, #4]
 1212 0026 1B68     		ldr	r3, [r3]
 1213 0028 DA68     		ldr	r2, [r3, #12]
 1214 002a 7B68     		ldr	r3, [r7, #4]
 1215 002c 1B68     		ldr	r3, [r3]
 1216 002e 42F00202 		orr	r2, r2, #2
 1217 0032 DA60     		str	r2, [r3, #12]
 587:Drivers/STM32L4xx_HAL_Driver/Src/stm32l4xx_hal_tim_ex.c ****     }
 1218              		.loc 1 587 7
 1219 0034 12E0     		b	.L53
 1220              	.L52:
 593:Drivers/STM32L4xx_HAL_Driver/Src/stm32l4xx_hal_tim_ex.c ****       break;
 1221              		.loc 1 593 7
 1222 0036 7B68     		ldr	r3, [r7, #4]
 1223 0038 1B68     		ldr	r3, [r3]
 1224 003a DA68     		ldr	r2, [r3, #12]
 1225 003c 7B68     		ldr	r3, [r7, #4]
 1226 003e 1B68     		ldr	r3, [r3]
 1227 0040 42F00402 		orr	r2, r2, #4
 1228 0044 DA60     		str	r2, [r3, #12]
 594:Drivers/STM32L4xx_HAL_Driver/Src/stm32l4xx_hal_tim_ex.c ****     }
 1229              		.loc 1 594 7
 1230 0046 09E0     		b	.L53
 1231              	.L49:
 600:Drivers/STM32L4xx_HAL_Driver/Src/stm32l4xx_hal_tim_ex.c ****       break;
 1232              		.loc 1 600 7
 1233 0048 7B68     		ldr	r3, [r7, #4]
 1234 004a 1B68     		ldr	r3, [r3]
 1235 004c DA68     		ldr	r2, [r3, #12]
 1236 004e 7B68     		ldr	r3, [r7, #4]
 1237 0050 1B68     		ldr	r3, [r3]
 1238 0052 42F00802 		orr	r2, r2, #8
ARM GAS  /tmp/cc9IMTcg.s 			page 33


 1239 0056 DA60     		str	r2, [r3, #12]
 601:Drivers/STM32L4xx_HAL_Driver/Src/stm32l4xx_hal_tim_ex.c ****     }
 1240              		.loc 1 601 7
 1241 0058 00E0     		b	.L53
 1242              	.L56:
 1243              		.loc 1 606 7
 1244 005a 00BF     		nop
 1245              	.L53:
 607:Drivers/STM32L4xx_HAL_Driver/Src/stm32l4xx_hal_tim_ex.c ****   }
 608:Drivers/STM32L4xx_HAL_Driver/Src/stm32l4xx_hal_tim_ex.c **** 
 609:Drivers/STM32L4xx_HAL_Driver/Src/stm32l4xx_hal_tim_ex.c ****   /* Enable the TIM Break interrupt */
 610:Drivers/STM32L4xx_HAL_Driver/Src/stm32l4xx_hal_tim_ex.c ****   __HAL_TIM_ENABLE_IT(htim, TIM_IT_BREAK);
 1246              		.loc 1 610 3
 1247 005c 7B68     		ldr	r3, [r7, #4]
 1248 005e 1B68     		ldr	r3, [r3]
 1249 0060 DA68     		ldr	r2, [r3, #12]
 1250 0062 7B68     		ldr	r3, [r7, #4]
 1251 0064 1B68     		ldr	r3, [r3]
 1252 0066 42F08002 		orr	r2, r2, #128
 1253 006a DA60     		str	r2, [r3, #12]
 611:Drivers/STM32L4xx_HAL_Driver/Src/stm32l4xx_hal_tim_ex.c **** 
 612:Drivers/STM32L4xx_HAL_Driver/Src/stm32l4xx_hal_tim_ex.c ****   /* Enable the Capture compare channel N */
 613:Drivers/STM32L4xx_HAL_Driver/Src/stm32l4xx_hal_tim_ex.c ****   TIM_CCxNChannelCmd(htim->Instance, Channel, TIM_CCxN_ENABLE);
 1254              		.loc 1 613 3
 1255 006c 7B68     		ldr	r3, [r7, #4]
 1256 006e 1B68     		ldr	r3, [r3]
 1257 0070 0422     		movs	r2, #4
 1258 0072 3968     		ldr	r1, [r7]
 1259 0074 1846     		mov	r0, r3
 1260 0076 FFF7FEFF 		bl	TIM_CCxNChannelCmd
 614:Drivers/STM32L4xx_HAL_Driver/Src/stm32l4xx_hal_tim_ex.c **** 
 615:Drivers/STM32L4xx_HAL_Driver/Src/stm32l4xx_hal_tim_ex.c ****   /* Enable the Main Output */
 616:Drivers/STM32L4xx_HAL_Driver/Src/stm32l4xx_hal_tim_ex.c ****   __HAL_TIM_MOE_ENABLE(htim);
 1261              		.loc 1 616 3
 1262 007a 7B68     		ldr	r3, [r7, #4]
 1263 007c 1B68     		ldr	r3, [r3]
 1264 007e 5A6C     		ldr	r2, [r3, #68]
 1265 0080 7B68     		ldr	r3, [r7, #4]
 1266 0082 1B68     		ldr	r3, [r3]
 1267 0084 42F40042 		orr	r2, r2, #32768
 1268 0088 5A64     		str	r2, [r3, #68]
 617:Drivers/STM32L4xx_HAL_Driver/Src/stm32l4xx_hal_tim_ex.c **** 
 618:Drivers/STM32L4xx_HAL_Driver/Src/stm32l4xx_hal_tim_ex.c ****   /* Enable the Peripheral, except in trigger mode where enable is automatically done with trigger 
 619:Drivers/STM32L4xx_HAL_Driver/Src/stm32l4xx_hal_tim_ex.c ****   tmpsmcr = htim->Instance->SMCR & TIM_SMCR_SMS;
 1269              		.loc 1 619 17
 1270 008a 7B68     		ldr	r3, [r7, #4]
 1271 008c 1B68     		ldr	r3, [r3]
 1272              		.loc 1 619 27
 1273 008e 9A68     		ldr	r2, [r3, #8]
 1274              		.loc 1 619 11
 1275 0090 0B4B     		ldr	r3, .L57
 1276 0092 1340     		ands	r3, r3, r2
 1277 0094 FB60     		str	r3, [r7, #12]
 620:Drivers/STM32L4xx_HAL_Driver/Src/stm32l4xx_hal_tim_ex.c ****   if (!IS_TIM_SLAVEMODE_TRIGGER_ENABLED(tmpsmcr))
 1278              		.loc 1 620 6
 1279 0096 FB68     		ldr	r3, [r7, #12]
 1280 0098 062B     		cmp	r3, #6
ARM GAS  /tmp/cc9IMTcg.s 			page 34


 1281 009a 0BD0     		beq	.L54
 1282              		.loc 1 620 7 discriminator 1
 1283 009c FB68     		ldr	r3, [r7, #12]
 1284 009e B3F5803F 		cmp	r3, #65536
 1285 00a2 07D0     		beq	.L54
 621:Drivers/STM32L4xx_HAL_Driver/Src/stm32l4xx_hal_tim_ex.c ****   {
 622:Drivers/STM32L4xx_HAL_Driver/Src/stm32l4xx_hal_tim_ex.c ****     __HAL_TIM_ENABLE(htim);
 1286              		.loc 1 622 5
 1287 00a4 7B68     		ldr	r3, [r7, #4]
 1288 00a6 1B68     		ldr	r3, [r3]
 1289 00a8 1A68     		ldr	r2, [r3]
 1290 00aa 7B68     		ldr	r3, [r7, #4]
 1291 00ac 1B68     		ldr	r3, [r3]
 1292 00ae 42F00102 		orr	r2, r2, #1
 1293 00b2 1A60     		str	r2, [r3]
 1294              	.L54:
 623:Drivers/STM32L4xx_HAL_Driver/Src/stm32l4xx_hal_tim_ex.c ****   }
 624:Drivers/STM32L4xx_HAL_Driver/Src/stm32l4xx_hal_tim_ex.c **** 
 625:Drivers/STM32L4xx_HAL_Driver/Src/stm32l4xx_hal_tim_ex.c ****   /* Return function status */
 626:Drivers/STM32L4xx_HAL_Driver/Src/stm32l4xx_hal_tim_ex.c ****   return HAL_OK;
 1295              		.loc 1 626 10
 1296 00b4 0023     		movs	r3, #0
 627:Drivers/STM32L4xx_HAL_Driver/Src/stm32l4xx_hal_tim_ex.c **** }
 1297              		.loc 1 627 1
 1298 00b6 1846     		mov	r0, r3
 1299 00b8 1037     		adds	r7, r7, #16
 1300              	.LCFI65:
 1301              		.cfi_def_cfa_offset 8
 1302 00ba BD46     		mov	sp, r7
 1303              	.LCFI66:
 1304              		.cfi_def_cfa_register 13
 1305              		@ sp needed
 1306 00bc 80BD     		pop	{r7, pc}
 1307              	.L58:
 1308 00be 00BF     		.align	2
 1309              	.L57:
 1310 00c0 07000100 		.word	65543
 1311              		.cfi_endproc
 1312              	.LFE142:
 1314              		.section	.text.HAL_TIMEx_OCN_Stop_IT,"ax",%progbits
 1315              		.align	1
 1316              		.global	HAL_TIMEx_OCN_Stop_IT
 1317              		.syntax unified
 1318              		.thumb
 1319              		.thumb_func
 1320              		.fpu fpv4-sp-d16
 1322              	HAL_TIMEx_OCN_Stop_IT:
 1323              	.LFB143:
 628:Drivers/STM32L4xx_HAL_Driver/Src/stm32l4xx_hal_tim_ex.c **** 
 629:Drivers/STM32L4xx_HAL_Driver/Src/stm32l4xx_hal_tim_ex.c **** /**
 630:Drivers/STM32L4xx_HAL_Driver/Src/stm32l4xx_hal_tim_ex.c ****   * @brief  Stops the TIM Output Compare signal generation in interrupt mode
 631:Drivers/STM32L4xx_HAL_Driver/Src/stm32l4xx_hal_tim_ex.c ****   *         on the complementary output.
 632:Drivers/STM32L4xx_HAL_Driver/Src/stm32l4xx_hal_tim_ex.c ****   * @param  htim TIM Output Compare handle
 633:Drivers/STM32L4xx_HAL_Driver/Src/stm32l4xx_hal_tim_ex.c ****   * @param  Channel TIM Channel to be disabled
 634:Drivers/STM32L4xx_HAL_Driver/Src/stm32l4xx_hal_tim_ex.c ****   *          This parameter can be one of the following values:
 635:Drivers/STM32L4xx_HAL_Driver/Src/stm32l4xx_hal_tim_ex.c ****   *            @arg TIM_CHANNEL_1: TIM Channel 1 selected
 636:Drivers/STM32L4xx_HAL_Driver/Src/stm32l4xx_hal_tim_ex.c ****   *            @arg TIM_CHANNEL_2: TIM Channel 2 selected
ARM GAS  /tmp/cc9IMTcg.s 			page 35


 637:Drivers/STM32L4xx_HAL_Driver/Src/stm32l4xx_hal_tim_ex.c ****   *            @arg TIM_CHANNEL_3: TIM Channel 3 selected
 638:Drivers/STM32L4xx_HAL_Driver/Src/stm32l4xx_hal_tim_ex.c ****   * @retval HAL status
 639:Drivers/STM32L4xx_HAL_Driver/Src/stm32l4xx_hal_tim_ex.c ****   */
 640:Drivers/STM32L4xx_HAL_Driver/Src/stm32l4xx_hal_tim_ex.c **** HAL_StatusTypeDef HAL_TIMEx_OCN_Stop_IT(TIM_HandleTypeDef *htim, uint32_t Channel)
 641:Drivers/STM32L4xx_HAL_Driver/Src/stm32l4xx_hal_tim_ex.c **** {
 1324              		.loc 1 641 1
 1325              		.cfi_startproc
 1326              		@ args = 0, pretend = 0, frame = 16
 1327              		@ frame_needed = 1, uses_anonymous_args = 0
 1328 0000 80B5     		push	{r7, lr}
 1329              	.LCFI67:
 1330              		.cfi_def_cfa_offset 8
 1331              		.cfi_offset 7, -8
 1332              		.cfi_offset 14, -4
 1333 0002 84B0     		sub	sp, sp, #16
 1334              	.LCFI68:
 1335              		.cfi_def_cfa_offset 24
 1336 0004 00AF     		add	r7, sp, #0
 1337              	.LCFI69:
 1338              		.cfi_def_cfa_register 7
 1339 0006 7860     		str	r0, [r7, #4]
 1340 0008 3960     		str	r1, [r7]
 642:Drivers/STM32L4xx_HAL_Driver/Src/stm32l4xx_hal_tim_ex.c ****   uint32_t tmpccer;
 643:Drivers/STM32L4xx_HAL_Driver/Src/stm32l4xx_hal_tim_ex.c ****   /* Check the parameters */
 644:Drivers/STM32L4xx_HAL_Driver/Src/stm32l4xx_hal_tim_ex.c ****   assert_param(IS_TIM_CCXN_INSTANCE(htim->Instance, Channel));
 645:Drivers/STM32L4xx_HAL_Driver/Src/stm32l4xx_hal_tim_ex.c **** 
 646:Drivers/STM32L4xx_HAL_Driver/Src/stm32l4xx_hal_tim_ex.c ****   switch (Channel)
 1341              		.loc 1 646 3
 1342 000a 3B68     		ldr	r3, [r7]
 1343 000c 082B     		cmp	r3, #8
 1344 000e 1BD0     		beq	.L60
 1345 0010 3B68     		ldr	r3, [r7]
 1346 0012 082B     		cmp	r3, #8
 1347 0014 21D8     		bhi	.L69
 1348 0016 3B68     		ldr	r3, [r7]
 1349 0018 002B     		cmp	r3, #0
 1350 001a 03D0     		beq	.L62
 1351 001c 3B68     		ldr	r3, [r7]
 1352 001e 042B     		cmp	r3, #4
 1353 0020 09D0     		beq	.L63
 647:Drivers/STM32L4xx_HAL_Driver/Src/stm32l4xx_hal_tim_ex.c ****   {
 648:Drivers/STM32L4xx_HAL_Driver/Src/stm32l4xx_hal_tim_ex.c ****     case TIM_CHANNEL_1:
 649:Drivers/STM32L4xx_HAL_Driver/Src/stm32l4xx_hal_tim_ex.c ****     {
 650:Drivers/STM32L4xx_HAL_Driver/Src/stm32l4xx_hal_tim_ex.c ****       /* Disable the TIM Output Compare interrupt */
 651:Drivers/STM32L4xx_HAL_Driver/Src/stm32l4xx_hal_tim_ex.c ****       __HAL_TIM_DISABLE_IT(htim, TIM_IT_CC1);
 652:Drivers/STM32L4xx_HAL_Driver/Src/stm32l4xx_hal_tim_ex.c ****       break;
 653:Drivers/STM32L4xx_HAL_Driver/Src/stm32l4xx_hal_tim_ex.c ****     }
 654:Drivers/STM32L4xx_HAL_Driver/Src/stm32l4xx_hal_tim_ex.c **** 
 655:Drivers/STM32L4xx_HAL_Driver/Src/stm32l4xx_hal_tim_ex.c ****     case TIM_CHANNEL_2:
 656:Drivers/STM32L4xx_HAL_Driver/Src/stm32l4xx_hal_tim_ex.c ****     {
 657:Drivers/STM32L4xx_HAL_Driver/Src/stm32l4xx_hal_tim_ex.c ****       /* Disable the TIM Output Compare interrupt */
 658:Drivers/STM32L4xx_HAL_Driver/Src/stm32l4xx_hal_tim_ex.c ****       __HAL_TIM_DISABLE_IT(htim, TIM_IT_CC2);
 659:Drivers/STM32L4xx_HAL_Driver/Src/stm32l4xx_hal_tim_ex.c ****       break;
 660:Drivers/STM32L4xx_HAL_Driver/Src/stm32l4xx_hal_tim_ex.c ****     }
 661:Drivers/STM32L4xx_HAL_Driver/Src/stm32l4xx_hal_tim_ex.c **** 
 662:Drivers/STM32L4xx_HAL_Driver/Src/stm32l4xx_hal_tim_ex.c ****     case TIM_CHANNEL_3:
 663:Drivers/STM32L4xx_HAL_Driver/Src/stm32l4xx_hal_tim_ex.c ****     {
ARM GAS  /tmp/cc9IMTcg.s 			page 36


 664:Drivers/STM32L4xx_HAL_Driver/Src/stm32l4xx_hal_tim_ex.c ****       /* Disable the TIM Output Compare interrupt */
 665:Drivers/STM32L4xx_HAL_Driver/Src/stm32l4xx_hal_tim_ex.c ****       __HAL_TIM_DISABLE_IT(htim, TIM_IT_CC3);
 666:Drivers/STM32L4xx_HAL_Driver/Src/stm32l4xx_hal_tim_ex.c ****       break;
 667:Drivers/STM32L4xx_HAL_Driver/Src/stm32l4xx_hal_tim_ex.c ****     }
 668:Drivers/STM32L4xx_HAL_Driver/Src/stm32l4xx_hal_tim_ex.c **** 
 669:Drivers/STM32L4xx_HAL_Driver/Src/stm32l4xx_hal_tim_ex.c ****     default:
 670:Drivers/STM32L4xx_HAL_Driver/Src/stm32l4xx_hal_tim_ex.c ****       break;
 1354              		.loc 1 670 7
 1355 0022 1AE0     		b	.L69
 1356              	.L62:
 651:Drivers/STM32L4xx_HAL_Driver/Src/stm32l4xx_hal_tim_ex.c ****       break;
 1357              		.loc 1 651 7
 1358 0024 7B68     		ldr	r3, [r7, #4]
 1359 0026 1B68     		ldr	r3, [r3]
 1360 0028 DA68     		ldr	r2, [r3, #12]
 1361 002a 7B68     		ldr	r3, [r7, #4]
 1362 002c 1B68     		ldr	r3, [r3]
 1363 002e 22F00202 		bic	r2, r2, #2
 1364 0032 DA60     		str	r2, [r3, #12]
 652:Drivers/STM32L4xx_HAL_Driver/Src/stm32l4xx_hal_tim_ex.c ****     }
 1365              		.loc 1 652 7
 1366 0034 12E0     		b	.L64
 1367              	.L63:
 658:Drivers/STM32L4xx_HAL_Driver/Src/stm32l4xx_hal_tim_ex.c ****       break;
 1368              		.loc 1 658 7
 1369 0036 7B68     		ldr	r3, [r7, #4]
 1370 0038 1B68     		ldr	r3, [r3]
 1371 003a DA68     		ldr	r2, [r3, #12]
 1372 003c 7B68     		ldr	r3, [r7, #4]
 1373 003e 1B68     		ldr	r3, [r3]
 1374 0040 22F00402 		bic	r2, r2, #4
 1375 0044 DA60     		str	r2, [r3, #12]
 659:Drivers/STM32L4xx_HAL_Driver/Src/stm32l4xx_hal_tim_ex.c ****     }
 1376              		.loc 1 659 7
 1377 0046 09E0     		b	.L64
 1378              	.L60:
 665:Drivers/STM32L4xx_HAL_Driver/Src/stm32l4xx_hal_tim_ex.c ****       break;
 1379              		.loc 1 665 7
 1380 0048 7B68     		ldr	r3, [r7, #4]
 1381 004a 1B68     		ldr	r3, [r3]
 1382 004c DA68     		ldr	r2, [r3, #12]
 1383 004e 7B68     		ldr	r3, [r7, #4]
 1384 0050 1B68     		ldr	r3, [r3]
 1385 0052 22F00802 		bic	r2, r2, #8
 1386 0056 DA60     		str	r2, [r3, #12]
 666:Drivers/STM32L4xx_HAL_Driver/Src/stm32l4xx_hal_tim_ex.c ****     }
 1387              		.loc 1 666 7
 1388 0058 00E0     		b	.L64
 1389              	.L69:
 1390              		.loc 1 670 7
 1391 005a 00BF     		nop
 1392              	.L64:
 671:Drivers/STM32L4xx_HAL_Driver/Src/stm32l4xx_hal_tim_ex.c ****   }
 672:Drivers/STM32L4xx_HAL_Driver/Src/stm32l4xx_hal_tim_ex.c **** 
 673:Drivers/STM32L4xx_HAL_Driver/Src/stm32l4xx_hal_tim_ex.c ****   /* Disable the Capture compare channel N */
 674:Drivers/STM32L4xx_HAL_Driver/Src/stm32l4xx_hal_tim_ex.c ****   TIM_CCxNChannelCmd(htim->Instance, Channel, TIM_CCxN_DISABLE);
 1393              		.loc 1 674 3
ARM GAS  /tmp/cc9IMTcg.s 			page 37


 1394 005c 7B68     		ldr	r3, [r7, #4]
 1395 005e 1B68     		ldr	r3, [r3]
 1396 0060 0022     		movs	r2, #0
 1397 0062 3968     		ldr	r1, [r7]
 1398 0064 1846     		mov	r0, r3
 1399 0066 FFF7FEFF 		bl	TIM_CCxNChannelCmd
 675:Drivers/STM32L4xx_HAL_Driver/Src/stm32l4xx_hal_tim_ex.c **** 
 676:Drivers/STM32L4xx_HAL_Driver/Src/stm32l4xx_hal_tim_ex.c ****   /* Disable the TIM Break interrupt (only if no more channel is active) */
 677:Drivers/STM32L4xx_HAL_Driver/Src/stm32l4xx_hal_tim_ex.c ****   tmpccer = htim->Instance->CCER;
 1400              		.loc 1 677 17
 1401 006a 7B68     		ldr	r3, [r7, #4]
 1402 006c 1B68     		ldr	r3, [r3]
 1403              		.loc 1 677 11
 1404 006e 1B6A     		ldr	r3, [r3, #32]
 1405 0070 FB60     		str	r3, [r7, #12]
 678:Drivers/STM32L4xx_HAL_Driver/Src/stm32l4xx_hal_tim_ex.c ****   if ((tmpccer & (TIM_CCER_CC1NE | TIM_CCER_CC2NE | TIM_CCER_CC3NE)) == (uint32_t)RESET)
 1406              		.loc 1 678 16
 1407 0072 FA68     		ldr	r2, [r7, #12]
 1408 0074 40F24443 		movw	r3, #1092
 1409 0078 1340     		ands	r3, r3, r2
 1410              		.loc 1 678 6
 1411 007a 002B     		cmp	r3, #0
 1412 007c 07D1     		bne	.L65
 679:Drivers/STM32L4xx_HAL_Driver/Src/stm32l4xx_hal_tim_ex.c ****   {
 680:Drivers/STM32L4xx_HAL_Driver/Src/stm32l4xx_hal_tim_ex.c ****     __HAL_TIM_DISABLE_IT(htim, TIM_IT_BREAK);
 1413              		.loc 1 680 5
 1414 007e 7B68     		ldr	r3, [r7, #4]
 1415 0080 1B68     		ldr	r3, [r3]
 1416 0082 DA68     		ldr	r2, [r3, #12]
 1417 0084 7B68     		ldr	r3, [r7, #4]
 1418 0086 1B68     		ldr	r3, [r3]
 1419 0088 22F08002 		bic	r2, r2, #128
 1420 008c DA60     		str	r2, [r3, #12]
 1421              	.L65:
 681:Drivers/STM32L4xx_HAL_Driver/Src/stm32l4xx_hal_tim_ex.c ****   }
 682:Drivers/STM32L4xx_HAL_Driver/Src/stm32l4xx_hal_tim_ex.c **** 
 683:Drivers/STM32L4xx_HAL_Driver/Src/stm32l4xx_hal_tim_ex.c ****   /* Disable the Main Output */
 684:Drivers/STM32L4xx_HAL_Driver/Src/stm32l4xx_hal_tim_ex.c ****   __HAL_TIM_MOE_DISABLE(htim);
 1422              		.loc 1 684 3
 1423 008e 7B68     		ldr	r3, [r7, #4]
 1424 0090 1B68     		ldr	r3, [r3]
 1425 0092 1A6A     		ldr	r2, [r3, #32]
 1426 0094 41F21113 		movw	r3, #4369
 1427 0098 1340     		ands	r3, r3, r2
 1428 009a 002B     		cmp	r3, #0
 1429 009c 0FD1     		bne	.L66
 1430              		.loc 1 684 3 is_stmt 0 discriminator 1
 1431 009e 7B68     		ldr	r3, [r7, #4]
 1432 00a0 1B68     		ldr	r3, [r3]
 1433 00a2 1A6A     		ldr	r2, [r3, #32]
 1434 00a4 40F24443 		movw	r3, #1092
 1435 00a8 1340     		ands	r3, r3, r2
 1436 00aa 002B     		cmp	r3, #0
 1437 00ac 07D1     		bne	.L66
 1438              		.loc 1 684 3 discriminator 2
 1439 00ae 7B68     		ldr	r3, [r7, #4]
 1440 00b0 1B68     		ldr	r3, [r3]
ARM GAS  /tmp/cc9IMTcg.s 			page 38


 1441 00b2 5A6C     		ldr	r2, [r3, #68]
 1442 00b4 7B68     		ldr	r3, [r7, #4]
 1443 00b6 1B68     		ldr	r3, [r3]
 1444 00b8 22F40042 		bic	r2, r2, #32768
 1445 00bc 5A64     		str	r2, [r3, #68]
 1446              	.L66:
 685:Drivers/STM32L4xx_HAL_Driver/Src/stm32l4xx_hal_tim_ex.c **** 
 686:Drivers/STM32L4xx_HAL_Driver/Src/stm32l4xx_hal_tim_ex.c ****   /* Disable the Peripheral */
 687:Drivers/STM32L4xx_HAL_Driver/Src/stm32l4xx_hal_tim_ex.c ****   __HAL_TIM_DISABLE(htim);
 1447              		.loc 1 687 3 is_stmt 1
 1448 00be 7B68     		ldr	r3, [r7, #4]
 1449 00c0 1B68     		ldr	r3, [r3]
 1450 00c2 1A6A     		ldr	r2, [r3, #32]
 1451 00c4 41F21113 		movw	r3, #4369
 1452 00c8 1340     		ands	r3, r3, r2
 1453 00ca 002B     		cmp	r3, #0
 1454 00cc 0FD1     		bne	.L67
 1455              		.loc 1 687 3 is_stmt 0 discriminator 1
 1456 00ce 7B68     		ldr	r3, [r7, #4]
 1457 00d0 1B68     		ldr	r3, [r3]
 1458 00d2 1A6A     		ldr	r2, [r3, #32]
 1459 00d4 40F24443 		movw	r3, #1092
 1460 00d8 1340     		ands	r3, r3, r2
 1461 00da 002B     		cmp	r3, #0
 1462 00dc 07D1     		bne	.L67
 1463              		.loc 1 687 3 discriminator 2
 1464 00de 7B68     		ldr	r3, [r7, #4]
 1465 00e0 1B68     		ldr	r3, [r3]
 1466 00e2 1A68     		ldr	r2, [r3]
 1467 00e4 7B68     		ldr	r3, [r7, #4]
 1468 00e6 1B68     		ldr	r3, [r3]
 1469 00e8 22F00102 		bic	r2, r2, #1
 1470 00ec 1A60     		str	r2, [r3]
 1471              	.L67:
 688:Drivers/STM32L4xx_HAL_Driver/Src/stm32l4xx_hal_tim_ex.c **** 
 689:Drivers/STM32L4xx_HAL_Driver/Src/stm32l4xx_hal_tim_ex.c ****   /* Return function status */
 690:Drivers/STM32L4xx_HAL_Driver/Src/stm32l4xx_hal_tim_ex.c ****   return HAL_OK;
 1472              		.loc 1 690 10 is_stmt 1
 1473 00ee 0023     		movs	r3, #0
 691:Drivers/STM32L4xx_HAL_Driver/Src/stm32l4xx_hal_tim_ex.c **** }
 1474              		.loc 1 691 1
 1475 00f0 1846     		mov	r0, r3
 1476 00f2 1037     		adds	r7, r7, #16
 1477              	.LCFI70:
 1478              		.cfi_def_cfa_offset 8
 1479 00f4 BD46     		mov	sp, r7
 1480              	.LCFI71:
 1481              		.cfi_def_cfa_register 13
 1482              		@ sp needed
 1483 00f6 80BD     		pop	{r7, pc}
 1484              		.cfi_endproc
 1485              	.LFE143:
 1487              		.section	.text.HAL_TIMEx_OCN_Start_DMA,"ax",%progbits
 1488              		.align	1
 1489              		.global	HAL_TIMEx_OCN_Start_DMA
 1490              		.syntax unified
 1491              		.thumb
ARM GAS  /tmp/cc9IMTcg.s 			page 39


 1492              		.thumb_func
 1493              		.fpu fpv4-sp-d16
 1495              	HAL_TIMEx_OCN_Start_DMA:
 1496              	.LFB144:
 692:Drivers/STM32L4xx_HAL_Driver/Src/stm32l4xx_hal_tim_ex.c **** 
 693:Drivers/STM32L4xx_HAL_Driver/Src/stm32l4xx_hal_tim_ex.c **** /**
 694:Drivers/STM32L4xx_HAL_Driver/Src/stm32l4xx_hal_tim_ex.c ****   * @brief  Starts the TIM Output Compare signal generation in DMA mode
 695:Drivers/STM32L4xx_HAL_Driver/Src/stm32l4xx_hal_tim_ex.c ****   *         on the complementary output.
 696:Drivers/STM32L4xx_HAL_Driver/Src/stm32l4xx_hal_tim_ex.c ****   * @param  htim TIM Output Compare handle
 697:Drivers/STM32L4xx_HAL_Driver/Src/stm32l4xx_hal_tim_ex.c ****   * @param  Channel TIM Channel to be enabled
 698:Drivers/STM32L4xx_HAL_Driver/Src/stm32l4xx_hal_tim_ex.c ****   *          This parameter can be one of the following values:
 699:Drivers/STM32L4xx_HAL_Driver/Src/stm32l4xx_hal_tim_ex.c ****   *            @arg TIM_CHANNEL_1: TIM Channel 1 selected
 700:Drivers/STM32L4xx_HAL_Driver/Src/stm32l4xx_hal_tim_ex.c ****   *            @arg TIM_CHANNEL_2: TIM Channel 2 selected
 701:Drivers/STM32L4xx_HAL_Driver/Src/stm32l4xx_hal_tim_ex.c ****   *            @arg TIM_CHANNEL_3: TIM Channel 3 selected
 702:Drivers/STM32L4xx_HAL_Driver/Src/stm32l4xx_hal_tim_ex.c ****   * @param  pData The source Buffer address.
 703:Drivers/STM32L4xx_HAL_Driver/Src/stm32l4xx_hal_tim_ex.c ****   * @param  Length The length of data to be transferred from memory to TIM peripheral
 704:Drivers/STM32L4xx_HAL_Driver/Src/stm32l4xx_hal_tim_ex.c ****   * @retval HAL status
 705:Drivers/STM32L4xx_HAL_Driver/Src/stm32l4xx_hal_tim_ex.c ****   */
 706:Drivers/STM32L4xx_HAL_Driver/Src/stm32l4xx_hal_tim_ex.c **** HAL_StatusTypeDef HAL_TIMEx_OCN_Start_DMA(TIM_HandleTypeDef *htim, uint32_t Channel, uint32_t *pDat
 707:Drivers/STM32L4xx_HAL_Driver/Src/stm32l4xx_hal_tim_ex.c **** {
 1497              		.loc 1 707 1
 1498              		.cfi_startproc
 1499              		@ args = 0, pretend = 0, frame = 24
 1500              		@ frame_needed = 1, uses_anonymous_args = 0
 1501 0000 80B5     		push	{r7, lr}
 1502              	.LCFI72:
 1503              		.cfi_def_cfa_offset 8
 1504              		.cfi_offset 7, -8
 1505              		.cfi_offset 14, -4
 1506 0002 86B0     		sub	sp, sp, #24
 1507              	.LCFI73:
 1508              		.cfi_def_cfa_offset 32
 1509 0004 00AF     		add	r7, sp, #0
 1510              	.LCFI74:
 1511              		.cfi_def_cfa_register 7
 1512 0006 F860     		str	r0, [r7, #12]
 1513 0008 B960     		str	r1, [r7, #8]
 1514 000a 7A60     		str	r2, [r7, #4]
 1515 000c 7B80     		strh	r3, [r7, #2]	@ movhi
 708:Drivers/STM32L4xx_HAL_Driver/Src/stm32l4xx_hal_tim_ex.c ****   uint32_t tmpsmcr;
 709:Drivers/STM32L4xx_HAL_Driver/Src/stm32l4xx_hal_tim_ex.c **** 
 710:Drivers/STM32L4xx_HAL_Driver/Src/stm32l4xx_hal_tim_ex.c ****   /* Check the parameters */
 711:Drivers/STM32L4xx_HAL_Driver/Src/stm32l4xx_hal_tim_ex.c ****   assert_param(IS_TIM_CCXN_INSTANCE(htim->Instance, Channel));
 712:Drivers/STM32L4xx_HAL_Driver/Src/stm32l4xx_hal_tim_ex.c **** 
 713:Drivers/STM32L4xx_HAL_Driver/Src/stm32l4xx_hal_tim_ex.c ****   if (htim->State == HAL_TIM_STATE_BUSY)
 1516              		.loc 1 713 11
 1517 000e FB68     		ldr	r3, [r7, #12]
 1518 0010 93F83D30 		ldrb	r3, [r3, #61]
 1519 0014 DBB2     		uxtb	r3, r3
 1520              		.loc 1 713 6
 1521 0016 022B     		cmp	r3, #2
 1522 0018 01D1     		bne	.L71
 714:Drivers/STM32L4xx_HAL_Driver/Src/stm32l4xx_hal_tim_ex.c ****   {
 715:Drivers/STM32L4xx_HAL_Driver/Src/stm32l4xx_hal_tim_ex.c ****     return HAL_BUSY;
 1523              		.loc 1 715 12
 1524 001a 0223     		movs	r3, #2
 1525 001c B0E0     		b	.L72
ARM GAS  /tmp/cc9IMTcg.s 			page 40


 1526              	.L71:
 716:Drivers/STM32L4xx_HAL_Driver/Src/stm32l4xx_hal_tim_ex.c ****   }
 717:Drivers/STM32L4xx_HAL_Driver/Src/stm32l4xx_hal_tim_ex.c ****   else if (htim->State == HAL_TIM_STATE_READY)
 1527              		.loc 1 717 16
 1528 001e FB68     		ldr	r3, [r7, #12]
 1529 0020 93F83D30 		ldrb	r3, [r3, #61]
 1530 0024 DBB2     		uxtb	r3, r3
 1531              		.loc 1 717 11
 1532 0026 012B     		cmp	r3, #1
 1533 0028 0BD1     		bne	.L73
 718:Drivers/STM32L4xx_HAL_Driver/Src/stm32l4xx_hal_tim_ex.c ****   {
 719:Drivers/STM32L4xx_HAL_Driver/Src/stm32l4xx_hal_tim_ex.c ****     if (((uint32_t)pData == 0U) && (Length > 0U))
 1534              		.loc 1 719 8
 1535 002a 7B68     		ldr	r3, [r7, #4]
 1536 002c 002B     		cmp	r3, #0
 1537 002e 04D1     		bne	.L74
 1538              		.loc 1 719 33 discriminator 1
 1539 0030 7B88     		ldrh	r3, [r7, #2]
 1540 0032 002B     		cmp	r3, #0
 1541 0034 01D0     		beq	.L74
 720:Drivers/STM32L4xx_HAL_Driver/Src/stm32l4xx_hal_tim_ex.c ****     {
 721:Drivers/STM32L4xx_HAL_Driver/Src/stm32l4xx_hal_tim_ex.c ****       return HAL_ERROR;
 1542              		.loc 1 721 14
 1543 0036 0123     		movs	r3, #1
 1544 0038 A2E0     		b	.L72
 1545              	.L74:
 722:Drivers/STM32L4xx_HAL_Driver/Src/stm32l4xx_hal_tim_ex.c ****     }
 723:Drivers/STM32L4xx_HAL_Driver/Src/stm32l4xx_hal_tim_ex.c ****     else
 724:Drivers/STM32L4xx_HAL_Driver/Src/stm32l4xx_hal_tim_ex.c ****     {
 725:Drivers/STM32L4xx_HAL_Driver/Src/stm32l4xx_hal_tim_ex.c ****       htim->State = HAL_TIM_STATE_BUSY;
 1546              		.loc 1 725 19
 1547 003a FB68     		ldr	r3, [r7, #12]
 1548 003c 0222     		movs	r2, #2
 1549 003e 83F83D20 		strb	r2, [r3, #61]
 1550              	.L73:
 726:Drivers/STM32L4xx_HAL_Driver/Src/stm32l4xx_hal_tim_ex.c ****     }
 727:Drivers/STM32L4xx_HAL_Driver/Src/stm32l4xx_hal_tim_ex.c ****   }
 728:Drivers/STM32L4xx_HAL_Driver/Src/stm32l4xx_hal_tim_ex.c ****   else
 729:Drivers/STM32L4xx_HAL_Driver/Src/stm32l4xx_hal_tim_ex.c ****   {
 730:Drivers/STM32L4xx_HAL_Driver/Src/stm32l4xx_hal_tim_ex.c ****     /* nothing to do  */
 731:Drivers/STM32L4xx_HAL_Driver/Src/stm32l4xx_hal_tim_ex.c ****   }
 732:Drivers/STM32L4xx_HAL_Driver/Src/stm32l4xx_hal_tim_ex.c **** 
 733:Drivers/STM32L4xx_HAL_Driver/Src/stm32l4xx_hal_tim_ex.c ****   switch (Channel)
 1551              		.loc 1 733 3
 1552 0042 BB68     		ldr	r3, [r7, #8]
 1553 0044 082B     		cmp	r3, #8
 1554 0046 51D0     		beq	.L75
 1555 0048 BB68     		ldr	r3, [r7, #8]
 1556 004a 082B     		cmp	r3, #8
 1557 004c 72D8     		bhi	.L84
 1558 004e BB68     		ldr	r3, [r7, #8]
 1559 0050 002B     		cmp	r3, #0
 1560 0052 03D0     		beq	.L77
 1561 0054 BB68     		ldr	r3, [r7, #8]
 1562 0056 042B     		cmp	r3, #4
 1563 0058 24D0     		beq	.L78
 734:Drivers/STM32L4xx_HAL_Driver/Src/stm32l4xx_hal_tim_ex.c ****   {
ARM GAS  /tmp/cc9IMTcg.s 			page 41


 735:Drivers/STM32L4xx_HAL_Driver/Src/stm32l4xx_hal_tim_ex.c ****     case TIM_CHANNEL_1:
 736:Drivers/STM32L4xx_HAL_Driver/Src/stm32l4xx_hal_tim_ex.c ****     {
 737:Drivers/STM32L4xx_HAL_Driver/Src/stm32l4xx_hal_tim_ex.c ****       /* Set the DMA compare callbacks */
 738:Drivers/STM32L4xx_HAL_Driver/Src/stm32l4xx_hal_tim_ex.c ****       htim->hdma[TIM_DMA_ID_CC1]->XferCpltCallback = TIM_DMADelayPulseCplt;
 739:Drivers/STM32L4xx_HAL_Driver/Src/stm32l4xx_hal_tim_ex.c ****       htim->hdma[TIM_DMA_ID_CC1]->XferHalfCpltCallback = TIM_DMADelayPulseHalfCplt;
 740:Drivers/STM32L4xx_HAL_Driver/Src/stm32l4xx_hal_tim_ex.c **** 
 741:Drivers/STM32L4xx_HAL_Driver/Src/stm32l4xx_hal_tim_ex.c ****       /* Set the DMA error callback */
 742:Drivers/STM32L4xx_HAL_Driver/Src/stm32l4xx_hal_tim_ex.c ****       htim->hdma[TIM_DMA_ID_CC1]->XferErrorCallback = TIM_DMAError ;
 743:Drivers/STM32L4xx_HAL_Driver/Src/stm32l4xx_hal_tim_ex.c **** 
 744:Drivers/STM32L4xx_HAL_Driver/Src/stm32l4xx_hal_tim_ex.c ****       /* Enable the DMA channel */
 745:Drivers/STM32L4xx_HAL_Driver/Src/stm32l4xx_hal_tim_ex.c ****       if (HAL_DMA_Start_IT(htim->hdma[TIM_DMA_ID_CC1], (uint32_t)pData, (uint32_t)&htim->Instance->
 746:Drivers/STM32L4xx_HAL_Driver/Src/stm32l4xx_hal_tim_ex.c ****       {
 747:Drivers/STM32L4xx_HAL_Driver/Src/stm32l4xx_hal_tim_ex.c ****         return HAL_ERROR;
 748:Drivers/STM32L4xx_HAL_Driver/Src/stm32l4xx_hal_tim_ex.c ****       }
 749:Drivers/STM32L4xx_HAL_Driver/Src/stm32l4xx_hal_tim_ex.c ****       /* Enable the TIM Output Compare DMA request */
 750:Drivers/STM32L4xx_HAL_Driver/Src/stm32l4xx_hal_tim_ex.c ****       __HAL_TIM_ENABLE_DMA(htim, TIM_DMA_CC1);
 751:Drivers/STM32L4xx_HAL_Driver/Src/stm32l4xx_hal_tim_ex.c ****       break;
 752:Drivers/STM32L4xx_HAL_Driver/Src/stm32l4xx_hal_tim_ex.c ****     }
 753:Drivers/STM32L4xx_HAL_Driver/Src/stm32l4xx_hal_tim_ex.c **** 
 754:Drivers/STM32L4xx_HAL_Driver/Src/stm32l4xx_hal_tim_ex.c ****     case TIM_CHANNEL_2:
 755:Drivers/STM32L4xx_HAL_Driver/Src/stm32l4xx_hal_tim_ex.c ****     {
 756:Drivers/STM32L4xx_HAL_Driver/Src/stm32l4xx_hal_tim_ex.c ****       /* Set the DMA compare callbacks */
 757:Drivers/STM32L4xx_HAL_Driver/Src/stm32l4xx_hal_tim_ex.c ****       htim->hdma[TIM_DMA_ID_CC2]->XferCpltCallback = TIM_DMADelayPulseCplt;
 758:Drivers/STM32L4xx_HAL_Driver/Src/stm32l4xx_hal_tim_ex.c ****       htim->hdma[TIM_DMA_ID_CC2]->XferHalfCpltCallback = TIM_DMADelayPulseHalfCplt;
 759:Drivers/STM32L4xx_HAL_Driver/Src/stm32l4xx_hal_tim_ex.c **** 
 760:Drivers/STM32L4xx_HAL_Driver/Src/stm32l4xx_hal_tim_ex.c ****       /* Set the DMA error callback */
 761:Drivers/STM32L4xx_HAL_Driver/Src/stm32l4xx_hal_tim_ex.c ****       htim->hdma[TIM_DMA_ID_CC2]->XferErrorCallback = TIM_DMAError ;
 762:Drivers/STM32L4xx_HAL_Driver/Src/stm32l4xx_hal_tim_ex.c **** 
 763:Drivers/STM32L4xx_HAL_Driver/Src/stm32l4xx_hal_tim_ex.c ****       /* Enable the DMA channel */
 764:Drivers/STM32L4xx_HAL_Driver/Src/stm32l4xx_hal_tim_ex.c ****       if (HAL_DMA_Start_IT(htim->hdma[TIM_DMA_ID_CC2], (uint32_t)pData, (uint32_t)&htim->Instance->
 765:Drivers/STM32L4xx_HAL_Driver/Src/stm32l4xx_hal_tim_ex.c ****       {
 766:Drivers/STM32L4xx_HAL_Driver/Src/stm32l4xx_hal_tim_ex.c ****         return HAL_ERROR;
 767:Drivers/STM32L4xx_HAL_Driver/Src/stm32l4xx_hal_tim_ex.c ****       }
 768:Drivers/STM32L4xx_HAL_Driver/Src/stm32l4xx_hal_tim_ex.c ****       /* Enable the TIM Output Compare DMA request */
 769:Drivers/STM32L4xx_HAL_Driver/Src/stm32l4xx_hal_tim_ex.c ****       __HAL_TIM_ENABLE_DMA(htim, TIM_DMA_CC2);
 770:Drivers/STM32L4xx_HAL_Driver/Src/stm32l4xx_hal_tim_ex.c ****       break;
 771:Drivers/STM32L4xx_HAL_Driver/Src/stm32l4xx_hal_tim_ex.c ****     }
 772:Drivers/STM32L4xx_HAL_Driver/Src/stm32l4xx_hal_tim_ex.c **** 
 773:Drivers/STM32L4xx_HAL_Driver/Src/stm32l4xx_hal_tim_ex.c ****     case TIM_CHANNEL_3:
 774:Drivers/STM32L4xx_HAL_Driver/Src/stm32l4xx_hal_tim_ex.c ****     {
 775:Drivers/STM32L4xx_HAL_Driver/Src/stm32l4xx_hal_tim_ex.c ****       /* Set the DMA compare callbacks */
 776:Drivers/STM32L4xx_HAL_Driver/Src/stm32l4xx_hal_tim_ex.c ****       htim->hdma[TIM_DMA_ID_CC3]->XferCpltCallback = TIM_DMADelayPulseCplt;
 777:Drivers/STM32L4xx_HAL_Driver/Src/stm32l4xx_hal_tim_ex.c ****       htim->hdma[TIM_DMA_ID_CC3]->XferHalfCpltCallback = TIM_DMADelayPulseHalfCplt;
 778:Drivers/STM32L4xx_HAL_Driver/Src/stm32l4xx_hal_tim_ex.c **** 
 779:Drivers/STM32L4xx_HAL_Driver/Src/stm32l4xx_hal_tim_ex.c ****       /* Set the DMA error callback */
 780:Drivers/STM32L4xx_HAL_Driver/Src/stm32l4xx_hal_tim_ex.c ****       htim->hdma[TIM_DMA_ID_CC3]->XferErrorCallback = TIM_DMAError ;
 781:Drivers/STM32L4xx_HAL_Driver/Src/stm32l4xx_hal_tim_ex.c **** 
 782:Drivers/STM32L4xx_HAL_Driver/Src/stm32l4xx_hal_tim_ex.c ****       /* Enable the DMA channel */
 783:Drivers/STM32L4xx_HAL_Driver/Src/stm32l4xx_hal_tim_ex.c ****       if (HAL_DMA_Start_IT(htim->hdma[TIM_DMA_ID_CC3], (uint32_t)pData, (uint32_t)&htim->Instance->
 784:Drivers/STM32L4xx_HAL_Driver/Src/stm32l4xx_hal_tim_ex.c ****       {
 785:Drivers/STM32L4xx_HAL_Driver/Src/stm32l4xx_hal_tim_ex.c ****         return HAL_ERROR;
 786:Drivers/STM32L4xx_HAL_Driver/Src/stm32l4xx_hal_tim_ex.c ****       }
 787:Drivers/STM32L4xx_HAL_Driver/Src/stm32l4xx_hal_tim_ex.c ****       /* Enable the TIM Output Compare DMA request */
 788:Drivers/STM32L4xx_HAL_Driver/Src/stm32l4xx_hal_tim_ex.c ****       __HAL_TIM_ENABLE_DMA(htim, TIM_DMA_CC3);
 789:Drivers/STM32L4xx_HAL_Driver/Src/stm32l4xx_hal_tim_ex.c ****       break;
 790:Drivers/STM32L4xx_HAL_Driver/Src/stm32l4xx_hal_tim_ex.c ****     }
 791:Drivers/STM32L4xx_HAL_Driver/Src/stm32l4xx_hal_tim_ex.c **** 
ARM GAS  /tmp/cc9IMTcg.s 			page 42


 792:Drivers/STM32L4xx_HAL_Driver/Src/stm32l4xx_hal_tim_ex.c ****     default:
 793:Drivers/STM32L4xx_HAL_Driver/Src/stm32l4xx_hal_tim_ex.c ****       break;
 1564              		.loc 1 793 7
 1565 005a 6BE0     		b	.L84
 1566              	.L77:
 738:Drivers/STM32L4xx_HAL_Driver/Src/stm32l4xx_hal_tim_ex.c ****       htim->hdma[TIM_DMA_ID_CC1]->XferHalfCpltCallback = TIM_DMADelayPulseHalfCplt;
 1567              		.loc 1 738 17
 1568 005c FB68     		ldr	r3, [r7, #12]
 1569 005e 5B6A     		ldr	r3, [r3, #36]
 738:Drivers/STM32L4xx_HAL_Driver/Src/stm32l4xx_hal_tim_ex.c ****       htim->hdma[TIM_DMA_ID_CC1]->XferHalfCpltCallback = TIM_DMADelayPulseHalfCplt;
 1570              		.loc 1 738 52
 1571 0060 494A     		ldr	r2, .L85
 1572 0062 DA62     		str	r2, [r3, #44]
 739:Drivers/STM32L4xx_HAL_Driver/Src/stm32l4xx_hal_tim_ex.c **** 
 1573              		.loc 1 739 17
 1574 0064 FB68     		ldr	r3, [r7, #12]
 1575 0066 5B6A     		ldr	r3, [r3, #36]
 739:Drivers/STM32L4xx_HAL_Driver/Src/stm32l4xx_hal_tim_ex.c **** 
 1576              		.loc 1 739 56
 1577 0068 484A     		ldr	r2, .L85+4
 1578 006a 1A63     		str	r2, [r3, #48]
 742:Drivers/STM32L4xx_HAL_Driver/Src/stm32l4xx_hal_tim_ex.c **** 
 1579              		.loc 1 742 17
 1580 006c FB68     		ldr	r3, [r7, #12]
 1581 006e 5B6A     		ldr	r3, [r3, #36]
 742:Drivers/STM32L4xx_HAL_Driver/Src/stm32l4xx_hal_tim_ex.c **** 
 1582              		.loc 1 742 53
 1583 0070 474A     		ldr	r2, .L85+8
 1584 0072 5A63     		str	r2, [r3, #52]
 745:Drivers/STM32L4xx_HAL_Driver/Src/stm32l4xx_hal_tim_ex.c ****       {
 1585              		.loc 1 745 11
 1586 0074 FB68     		ldr	r3, [r7, #12]
 1587 0076 586A     		ldr	r0, [r3, #36]
 1588 0078 7968     		ldr	r1, [r7, #4]
 745:Drivers/STM32L4xx_HAL_Driver/Src/stm32l4xx_hal_tim_ex.c ****       {
 1589              		.loc 1 745 88
 1590 007a FB68     		ldr	r3, [r7, #12]
 1591 007c 1B68     		ldr	r3, [r3]
 745:Drivers/STM32L4xx_HAL_Driver/Src/stm32l4xx_hal_tim_ex.c ****       {
 1592              		.loc 1 745 83
 1593 007e 3433     		adds	r3, r3, #52
 745:Drivers/STM32L4xx_HAL_Driver/Src/stm32l4xx_hal_tim_ex.c ****       {
 1594              		.loc 1 745 11
 1595 0080 1A46     		mov	r2, r3
 1596 0082 7B88     		ldrh	r3, [r7, #2]
 1597 0084 FFF7FEFF 		bl	HAL_DMA_Start_IT
 1598 0088 0346     		mov	r3, r0
 745:Drivers/STM32L4xx_HAL_Driver/Src/stm32l4xx_hal_tim_ex.c ****       {
 1599              		.loc 1 745 10
 1600 008a 002B     		cmp	r3, #0
 1601 008c 01D0     		beq	.L79
 747:Drivers/STM32L4xx_HAL_Driver/Src/stm32l4xx_hal_tim_ex.c ****       }
 1602              		.loc 1 747 16
 1603 008e 0123     		movs	r3, #1
 1604 0090 76E0     		b	.L72
 1605              	.L79:
 750:Drivers/STM32L4xx_HAL_Driver/Src/stm32l4xx_hal_tim_ex.c ****       break;
ARM GAS  /tmp/cc9IMTcg.s 			page 43


 1606              		.loc 1 750 7
 1607 0092 FB68     		ldr	r3, [r7, #12]
 1608 0094 1B68     		ldr	r3, [r3]
 1609 0096 DA68     		ldr	r2, [r3, #12]
 1610 0098 FB68     		ldr	r3, [r7, #12]
 1611 009a 1B68     		ldr	r3, [r3]
 1612 009c 42F40072 		orr	r2, r2, #512
 1613 00a0 DA60     		str	r2, [r3, #12]
 751:Drivers/STM32L4xx_HAL_Driver/Src/stm32l4xx_hal_tim_ex.c ****     }
 1614              		.loc 1 751 7
 1615 00a2 48E0     		b	.L80
 1616              	.L78:
 757:Drivers/STM32L4xx_HAL_Driver/Src/stm32l4xx_hal_tim_ex.c ****       htim->hdma[TIM_DMA_ID_CC2]->XferHalfCpltCallback = TIM_DMADelayPulseHalfCplt;
 1617              		.loc 1 757 17
 1618 00a4 FB68     		ldr	r3, [r7, #12]
 1619 00a6 9B6A     		ldr	r3, [r3, #40]
 757:Drivers/STM32L4xx_HAL_Driver/Src/stm32l4xx_hal_tim_ex.c ****       htim->hdma[TIM_DMA_ID_CC2]->XferHalfCpltCallback = TIM_DMADelayPulseHalfCplt;
 1620              		.loc 1 757 52
 1621 00a8 374A     		ldr	r2, .L85
 1622 00aa DA62     		str	r2, [r3, #44]
 758:Drivers/STM32L4xx_HAL_Driver/Src/stm32l4xx_hal_tim_ex.c **** 
 1623              		.loc 1 758 17
 1624 00ac FB68     		ldr	r3, [r7, #12]
 1625 00ae 9B6A     		ldr	r3, [r3, #40]
 758:Drivers/STM32L4xx_HAL_Driver/Src/stm32l4xx_hal_tim_ex.c **** 
 1626              		.loc 1 758 56
 1627 00b0 364A     		ldr	r2, .L85+4
 1628 00b2 1A63     		str	r2, [r3, #48]
 761:Drivers/STM32L4xx_HAL_Driver/Src/stm32l4xx_hal_tim_ex.c **** 
 1629              		.loc 1 761 17
 1630 00b4 FB68     		ldr	r3, [r7, #12]
 1631 00b6 9B6A     		ldr	r3, [r3, #40]
 761:Drivers/STM32L4xx_HAL_Driver/Src/stm32l4xx_hal_tim_ex.c **** 
 1632              		.loc 1 761 53
 1633 00b8 354A     		ldr	r2, .L85+8
 1634 00ba 5A63     		str	r2, [r3, #52]
 764:Drivers/STM32L4xx_HAL_Driver/Src/stm32l4xx_hal_tim_ex.c ****       {
 1635              		.loc 1 764 11
 1636 00bc FB68     		ldr	r3, [r7, #12]
 1637 00be 986A     		ldr	r0, [r3, #40]
 1638 00c0 7968     		ldr	r1, [r7, #4]
 764:Drivers/STM32L4xx_HAL_Driver/Src/stm32l4xx_hal_tim_ex.c ****       {
 1639              		.loc 1 764 88
 1640 00c2 FB68     		ldr	r3, [r7, #12]
 1641 00c4 1B68     		ldr	r3, [r3]
 764:Drivers/STM32L4xx_HAL_Driver/Src/stm32l4xx_hal_tim_ex.c ****       {
 1642              		.loc 1 764 83
 1643 00c6 3833     		adds	r3, r3, #56
 764:Drivers/STM32L4xx_HAL_Driver/Src/stm32l4xx_hal_tim_ex.c ****       {
 1644              		.loc 1 764 11
 1645 00c8 1A46     		mov	r2, r3
 1646 00ca 7B88     		ldrh	r3, [r7, #2]
 1647 00cc FFF7FEFF 		bl	HAL_DMA_Start_IT
 1648 00d0 0346     		mov	r3, r0
 764:Drivers/STM32L4xx_HAL_Driver/Src/stm32l4xx_hal_tim_ex.c ****       {
 1649              		.loc 1 764 10
 1650 00d2 002B     		cmp	r3, #0
ARM GAS  /tmp/cc9IMTcg.s 			page 44


 1651 00d4 01D0     		beq	.L81
 766:Drivers/STM32L4xx_HAL_Driver/Src/stm32l4xx_hal_tim_ex.c ****       }
 1652              		.loc 1 766 16
 1653 00d6 0123     		movs	r3, #1
 1654 00d8 52E0     		b	.L72
 1655              	.L81:
 769:Drivers/STM32L4xx_HAL_Driver/Src/stm32l4xx_hal_tim_ex.c ****       break;
 1656              		.loc 1 769 7
 1657 00da FB68     		ldr	r3, [r7, #12]
 1658 00dc 1B68     		ldr	r3, [r3]
 1659 00de DA68     		ldr	r2, [r3, #12]
 1660 00e0 FB68     		ldr	r3, [r7, #12]
 1661 00e2 1B68     		ldr	r3, [r3]
 1662 00e4 42F48062 		orr	r2, r2, #1024
 1663 00e8 DA60     		str	r2, [r3, #12]
 770:Drivers/STM32L4xx_HAL_Driver/Src/stm32l4xx_hal_tim_ex.c ****     }
 1664              		.loc 1 770 7
 1665 00ea 24E0     		b	.L80
 1666              	.L75:
 776:Drivers/STM32L4xx_HAL_Driver/Src/stm32l4xx_hal_tim_ex.c ****       htim->hdma[TIM_DMA_ID_CC3]->XferHalfCpltCallback = TIM_DMADelayPulseHalfCplt;
 1667              		.loc 1 776 17
 1668 00ec FB68     		ldr	r3, [r7, #12]
 1669 00ee DB6A     		ldr	r3, [r3, #44]
 776:Drivers/STM32L4xx_HAL_Driver/Src/stm32l4xx_hal_tim_ex.c ****       htim->hdma[TIM_DMA_ID_CC3]->XferHalfCpltCallback = TIM_DMADelayPulseHalfCplt;
 1670              		.loc 1 776 52
 1671 00f0 254A     		ldr	r2, .L85
 1672 00f2 DA62     		str	r2, [r3, #44]
 777:Drivers/STM32L4xx_HAL_Driver/Src/stm32l4xx_hal_tim_ex.c **** 
 1673              		.loc 1 777 17
 1674 00f4 FB68     		ldr	r3, [r7, #12]
 1675 00f6 DB6A     		ldr	r3, [r3, #44]
 777:Drivers/STM32L4xx_HAL_Driver/Src/stm32l4xx_hal_tim_ex.c **** 
 1676              		.loc 1 777 56
 1677 00f8 244A     		ldr	r2, .L85+4
 1678 00fa 1A63     		str	r2, [r3, #48]
 780:Drivers/STM32L4xx_HAL_Driver/Src/stm32l4xx_hal_tim_ex.c **** 
 1679              		.loc 1 780 17
 1680 00fc FB68     		ldr	r3, [r7, #12]
 1681 00fe DB6A     		ldr	r3, [r3, #44]
 780:Drivers/STM32L4xx_HAL_Driver/Src/stm32l4xx_hal_tim_ex.c **** 
 1682              		.loc 1 780 53
 1683 0100 234A     		ldr	r2, .L85+8
 1684 0102 5A63     		str	r2, [r3, #52]
 783:Drivers/STM32L4xx_HAL_Driver/Src/stm32l4xx_hal_tim_ex.c ****       {
 1685              		.loc 1 783 11
 1686 0104 FB68     		ldr	r3, [r7, #12]
 1687 0106 D86A     		ldr	r0, [r3, #44]
 1688 0108 7968     		ldr	r1, [r7, #4]
 783:Drivers/STM32L4xx_HAL_Driver/Src/stm32l4xx_hal_tim_ex.c ****       {
 1689              		.loc 1 783 88
 1690 010a FB68     		ldr	r3, [r7, #12]
 1691 010c 1B68     		ldr	r3, [r3]
 783:Drivers/STM32L4xx_HAL_Driver/Src/stm32l4xx_hal_tim_ex.c ****       {
 1692              		.loc 1 783 83
 1693 010e 3C33     		adds	r3, r3, #60
 783:Drivers/STM32L4xx_HAL_Driver/Src/stm32l4xx_hal_tim_ex.c ****       {
 1694              		.loc 1 783 11
ARM GAS  /tmp/cc9IMTcg.s 			page 45


 1695 0110 1A46     		mov	r2, r3
 1696 0112 7B88     		ldrh	r3, [r7, #2]
 1697 0114 FFF7FEFF 		bl	HAL_DMA_Start_IT
 1698 0118 0346     		mov	r3, r0
 783:Drivers/STM32L4xx_HAL_Driver/Src/stm32l4xx_hal_tim_ex.c ****       {
 1699              		.loc 1 783 10
 1700 011a 002B     		cmp	r3, #0
 1701 011c 01D0     		beq	.L82
 785:Drivers/STM32L4xx_HAL_Driver/Src/stm32l4xx_hal_tim_ex.c ****       }
 1702              		.loc 1 785 16
 1703 011e 0123     		movs	r3, #1
 1704 0120 2EE0     		b	.L72
 1705              	.L82:
 788:Drivers/STM32L4xx_HAL_Driver/Src/stm32l4xx_hal_tim_ex.c ****       break;
 1706              		.loc 1 788 7
 1707 0122 FB68     		ldr	r3, [r7, #12]
 1708 0124 1B68     		ldr	r3, [r3]
 1709 0126 DA68     		ldr	r2, [r3, #12]
 1710 0128 FB68     		ldr	r3, [r7, #12]
 1711 012a 1B68     		ldr	r3, [r3]
 1712 012c 42F40062 		orr	r2, r2, #2048
 1713 0130 DA60     		str	r2, [r3, #12]
 789:Drivers/STM32L4xx_HAL_Driver/Src/stm32l4xx_hal_tim_ex.c ****     }
 1714              		.loc 1 789 7
 1715 0132 00E0     		b	.L80
 1716              	.L84:
 1717              		.loc 1 793 7
 1718 0134 00BF     		nop
 1719              	.L80:
 794:Drivers/STM32L4xx_HAL_Driver/Src/stm32l4xx_hal_tim_ex.c ****   }
 795:Drivers/STM32L4xx_HAL_Driver/Src/stm32l4xx_hal_tim_ex.c **** 
 796:Drivers/STM32L4xx_HAL_Driver/Src/stm32l4xx_hal_tim_ex.c ****   /* Enable the Capture compare channel N */
 797:Drivers/STM32L4xx_HAL_Driver/Src/stm32l4xx_hal_tim_ex.c ****   TIM_CCxNChannelCmd(htim->Instance, Channel, TIM_CCxN_ENABLE);
 1720              		.loc 1 797 3
 1721 0136 FB68     		ldr	r3, [r7, #12]
 1722 0138 1B68     		ldr	r3, [r3]
 1723 013a 0422     		movs	r2, #4
 1724 013c B968     		ldr	r1, [r7, #8]
 1725 013e 1846     		mov	r0, r3
 1726 0140 FFF7FEFF 		bl	TIM_CCxNChannelCmd
 798:Drivers/STM32L4xx_HAL_Driver/Src/stm32l4xx_hal_tim_ex.c **** 
 799:Drivers/STM32L4xx_HAL_Driver/Src/stm32l4xx_hal_tim_ex.c ****   /* Enable the Main Output */
 800:Drivers/STM32L4xx_HAL_Driver/Src/stm32l4xx_hal_tim_ex.c ****   __HAL_TIM_MOE_ENABLE(htim);
 1727              		.loc 1 800 3
 1728 0144 FB68     		ldr	r3, [r7, #12]
 1729 0146 1B68     		ldr	r3, [r3]
 1730 0148 5A6C     		ldr	r2, [r3, #68]
 1731 014a FB68     		ldr	r3, [r7, #12]
 1732 014c 1B68     		ldr	r3, [r3]
 1733 014e 42F40042 		orr	r2, r2, #32768
 1734 0152 5A64     		str	r2, [r3, #68]
 801:Drivers/STM32L4xx_HAL_Driver/Src/stm32l4xx_hal_tim_ex.c **** 
 802:Drivers/STM32L4xx_HAL_Driver/Src/stm32l4xx_hal_tim_ex.c ****   /* Enable the Peripheral, except in trigger mode where enable is automatically done with trigger 
 803:Drivers/STM32L4xx_HAL_Driver/Src/stm32l4xx_hal_tim_ex.c ****   tmpsmcr = htim->Instance->SMCR & TIM_SMCR_SMS;
 1735              		.loc 1 803 17
 1736 0154 FB68     		ldr	r3, [r7, #12]
 1737 0156 1B68     		ldr	r3, [r3]
ARM GAS  /tmp/cc9IMTcg.s 			page 46


 1738              		.loc 1 803 27
 1739 0158 9A68     		ldr	r2, [r3, #8]
 1740              		.loc 1 803 11
 1741 015a 0E4B     		ldr	r3, .L85+12
 1742 015c 1340     		ands	r3, r3, r2
 1743 015e 7B61     		str	r3, [r7, #20]
 804:Drivers/STM32L4xx_HAL_Driver/Src/stm32l4xx_hal_tim_ex.c ****   if (!IS_TIM_SLAVEMODE_TRIGGER_ENABLED(tmpsmcr))
 1744              		.loc 1 804 6
 1745 0160 7B69     		ldr	r3, [r7, #20]
 1746 0162 062B     		cmp	r3, #6
 1747 0164 0BD0     		beq	.L83
 1748              		.loc 1 804 7 discriminator 1
 1749 0166 7B69     		ldr	r3, [r7, #20]
 1750 0168 B3F5803F 		cmp	r3, #65536
 1751 016c 07D0     		beq	.L83
 805:Drivers/STM32L4xx_HAL_Driver/Src/stm32l4xx_hal_tim_ex.c ****   {
 806:Drivers/STM32L4xx_HAL_Driver/Src/stm32l4xx_hal_tim_ex.c ****     __HAL_TIM_ENABLE(htim);
 1752              		.loc 1 806 5
 1753 016e FB68     		ldr	r3, [r7, #12]
 1754 0170 1B68     		ldr	r3, [r3]
 1755 0172 1A68     		ldr	r2, [r3]
 1756 0174 FB68     		ldr	r3, [r7, #12]
 1757 0176 1B68     		ldr	r3, [r3]
 1758 0178 42F00102 		orr	r2, r2, #1
 1759 017c 1A60     		str	r2, [r3]
 1760              	.L83:
 807:Drivers/STM32L4xx_HAL_Driver/Src/stm32l4xx_hal_tim_ex.c ****   }
 808:Drivers/STM32L4xx_HAL_Driver/Src/stm32l4xx_hal_tim_ex.c **** 
 809:Drivers/STM32L4xx_HAL_Driver/Src/stm32l4xx_hal_tim_ex.c ****   /* Return function status */
 810:Drivers/STM32L4xx_HAL_Driver/Src/stm32l4xx_hal_tim_ex.c ****   return HAL_OK;
 1761              		.loc 1 810 10
 1762 017e 0023     		movs	r3, #0
 1763              	.L72:
 811:Drivers/STM32L4xx_HAL_Driver/Src/stm32l4xx_hal_tim_ex.c **** }
 1764              		.loc 1 811 1
 1765 0180 1846     		mov	r0, r3
 1766 0182 1837     		adds	r7, r7, #24
 1767              	.LCFI75:
 1768              		.cfi_def_cfa_offset 8
 1769 0184 BD46     		mov	sp, r7
 1770              	.LCFI76:
 1771              		.cfi_def_cfa_register 13
 1772              		@ sp needed
 1773 0186 80BD     		pop	{r7, pc}
 1774              	.L86:
 1775              		.align	2
 1776              	.L85:
 1777 0188 00000000 		.word	TIM_DMADelayPulseCplt
 1778 018c 00000000 		.word	TIM_DMADelayPulseHalfCplt
 1779 0190 00000000 		.word	TIM_DMAError
 1780 0194 07000100 		.word	65543
 1781              		.cfi_endproc
 1782              	.LFE144:
 1784              		.section	.text.HAL_TIMEx_OCN_Stop_DMA,"ax",%progbits
 1785              		.align	1
 1786              		.global	HAL_TIMEx_OCN_Stop_DMA
 1787              		.syntax unified
ARM GAS  /tmp/cc9IMTcg.s 			page 47


 1788              		.thumb
 1789              		.thumb_func
 1790              		.fpu fpv4-sp-d16
 1792              	HAL_TIMEx_OCN_Stop_DMA:
 1793              	.LFB145:
 812:Drivers/STM32L4xx_HAL_Driver/Src/stm32l4xx_hal_tim_ex.c **** 
 813:Drivers/STM32L4xx_HAL_Driver/Src/stm32l4xx_hal_tim_ex.c **** /**
 814:Drivers/STM32L4xx_HAL_Driver/Src/stm32l4xx_hal_tim_ex.c ****   * @brief  Stops the TIM Output Compare signal generation in DMA mode
 815:Drivers/STM32L4xx_HAL_Driver/Src/stm32l4xx_hal_tim_ex.c ****   *         on the complementary output.
 816:Drivers/STM32L4xx_HAL_Driver/Src/stm32l4xx_hal_tim_ex.c ****   * @param  htim TIM Output Compare handle
 817:Drivers/STM32L4xx_HAL_Driver/Src/stm32l4xx_hal_tim_ex.c ****   * @param  Channel TIM Channel to be disabled
 818:Drivers/STM32L4xx_HAL_Driver/Src/stm32l4xx_hal_tim_ex.c ****   *          This parameter can be one of the following values:
 819:Drivers/STM32L4xx_HAL_Driver/Src/stm32l4xx_hal_tim_ex.c ****   *            @arg TIM_CHANNEL_1: TIM Channel 1 selected
 820:Drivers/STM32L4xx_HAL_Driver/Src/stm32l4xx_hal_tim_ex.c ****   *            @arg TIM_CHANNEL_2: TIM Channel 2 selected
 821:Drivers/STM32L4xx_HAL_Driver/Src/stm32l4xx_hal_tim_ex.c ****   *            @arg TIM_CHANNEL_3: TIM Channel 3 selected
 822:Drivers/STM32L4xx_HAL_Driver/Src/stm32l4xx_hal_tim_ex.c ****   * @retval HAL status
 823:Drivers/STM32L4xx_HAL_Driver/Src/stm32l4xx_hal_tim_ex.c ****   */
 824:Drivers/STM32L4xx_HAL_Driver/Src/stm32l4xx_hal_tim_ex.c **** HAL_StatusTypeDef HAL_TIMEx_OCN_Stop_DMA(TIM_HandleTypeDef *htim, uint32_t Channel)
 825:Drivers/STM32L4xx_HAL_Driver/Src/stm32l4xx_hal_tim_ex.c **** {
 1794              		.loc 1 825 1
 1795              		.cfi_startproc
 1796              		@ args = 0, pretend = 0, frame = 8
 1797              		@ frame_needed = 1, uses_anonymous_args = 0
 1798 0000 80B5     		push	{r7, lr}
 1799              	.LCFI77:
 1800              		.cfi_def_cfa_offset 8
 1801              		.cfi_offset 7, -8
 1802              		.cfi_offset 14, -4
 1803 0002 82B0     		sub	sp, sp, #8
 1804              	.LCFI78:
 1805              		.cfi_def_cfa_offset 16
 1806 0004 00AF     		add	r7, sp, #0
 1807              	.LCFI79:
 1808              		.cfi_def_cfa_register 7
 1809 0006 7860     		str	r0, [r7, #4]
 1810 0008 3960     		str	r1, [r7]
 826:Drivers/STM32L4xx_HAL_Driver/Src/stm32l4xx_hal_tim_ex.c ****   /* Check the parameters */
 827:Drivers/STM32L4xx_HAL_Driver/Src/stm32l4xx_hal_tim_ex.c ****   assert_param(IS_TIM_CCXN_INSTANCE(htim->Instance, Channel));
 828:Drivers/STM32L4xx_HAL_Driver/Src/stm32l4xx_hal_tim_ex.c **** 
 829:Drivers/STM32L4xx_HAL_Driver/Src/stm32l4xx_hal_tim_ex.c ****   switch (Channel)
 1811              		.loc 1 829 3
 1812 000a 3B68     		ldr	r3, [r7]
 1813 000c 082B     		cmp	r3, #8
 1814 000e 25D0     		beq	.L88
 1815 0010 3B68     		ldr	r3, [r7]
 1816 0012 082B     		cmp	r3, #8
 1817 0014 30D8     		bhi	.L96
 1818 0016 3B68     		ldr	r3, [r7]
 1819 0018 002B     		cmp	r3, #0
 1820 001a 03D0     		beq	.L90
 1821 001c 3B68     		ldr	r3, [r7]
 1822 001e 042B     		cmp	r3, #4
 1823 0020 0ED0     		beq	.L91
 830:Drivers/STM32L4xx_HAL_Driver/Src/stm32l4xx_hal_tim_ex.c ****   {
 831:Drivers/STM32L4xx_HAL_Driver/Src/stm32l4xx_hal_tim_ex.c ****     case TIM_CHANNEL_1:
 832:Drivers/STM32L4xx_HAL_Driver/Src/stm32l4xx_hal_tim_ex.c ****     {
 833:Drivers/STM32L4xx_HAL_Driver/Src/stm32l4xx_hal_tim_ex.c ****       /* Disable the TIM Output Compare DMA request */
ARM GAS  /tmp/cc9IMTcg.s 			page 48


 834:Drivers/STM32L4xx_HAL_Driver/Src/stm32l4xx_hal_tim_ex.c ****       __HAL_TIM_DISABLE_DMA(htim, TIM_DMA_CC1);
 835:Drivers/STM32L4xx_HAL_Driver/Src/stm32l4xx_hal_tim_ex.c ****       (void)HAL_DMA_Abort_IT(htim->hdma[TIM_DMA_ID_CC1]);
 836:Drivers/STM32L4xx_HAL_Driver/Src/stm32l4xx_hal_tim_ex.c ****       break;
 837:Drivers/STM32L4xx_HAL_Driver/Src/stm32l4xx_hal_tim_ex.c ****     }
 838:Drivers/STM32L4xx_HAL_Driver/Src/stm32l4xx_hal_tim_ex.c **** 
 839:Drivers/STM32L4xx_HAL_Driver/Src/stm32l4xx_hal_tim_ex.c ****     case TIM_CHANNEL_2:
 840:Drivers/STM32L4xx_HAL_Driver/Src/stm32l4xx_hal_tim_ex.c ****     {
 841:Drivers/STM32L4xx_HAL_Driver/Src/stm32l4xx_hal_tim_ex.c ****       /* Disable the TIM Output Compare DMA request */
 842:Drivers/STM32L4xx_HAL_Driver/Src/stm32l4xx_hal_tim_ex.c ****       __HAL_TIM_DISABLE_DMA(htim, TIM_DMA_CC2);
 843:Drivers/STM32L4xx_HAL_Driver/Src/stm32l4xx_hal_tim_ex.c ****       (void)HAL_DMA_Abort_IT(htim->hdma[TIM_DMA_ID_CC2]);
 844:Drivers/STM32L4xx_HAL_Driver/Src/stm32l4xx_hal_tim_ex.c ****       break;
 845:Drivers/STM32L4xx_HAL_Driver/Src/stm32l4xx_hal_tim_ex.c ****     }
 846:Drivers/STM32L4xx_HAL_Driver/Src/stm32l4xx_hal_tim_ex.c **** 
 847:Drivers/STM32L4xx_HAL_Driver/Src/stm32l4xx_hal_tim_ex.c ****     case TIM_CHANNEL_3:
 848:Drivers/STM32L4xx_HAL_Driver/Src/stm32l4xx_hal_tim_ex.c ****     {
 849:Drivers/STM32L4xx_HAL_Driver/Src/stm32l4xx_hal_tim_ex.c ****       /* Disable the TIM Output Compare DMA request */
 850:Drivers/STM32L4xx_HAL_Driver/Src/stm32l4xx_hal_tim_ex.c ****       __HAL_TIM_DISABLE_DMA(htim, TIM_DMA_CC3);
 851:Drivers/STM32L4xx_HAL_Driver/Src/stm32l4xx_hal_tim_ex.c ****       (void)HAL_DMA_Abort_IT(htim->hdma[TIM_DMA_ID_CC3]);
 852:Drivers/STM32L4xx_HAL_Driver/Src/stm32l4xx_hal_tim_ex.c ****       break;
 853:Drivers/STM32L4xx_HAL_Driver/Src/stm32l4xx_hal_tim_ex.c ****     }
 854:Drivers/STM32L4xx_HAL_Driver/Src/stm32l4xx_hal_tim_ex.c **** 
 855:Drivers/STM32L4xx_HAL_Driver/Src/stm32l4xx_hal_tim_ex.c ****     default:
 856:Drivers/STM32L4xx_HAL_Driver/Src/stm32l4xx_hal_tim_ex.c ****       break;
 1824              		.loc 1 856 7
 1825 0022 29E0     		b	.L96
 1826              	.L90:
 834:Drivers/STM32L4xx_HAL_Driver/Src/stm32l4xx_hal_tim_ex.c ****       (void)HAL_DMA_Abort_IT(htim->hdma[TIM_DMA_ID_CC1]);
 1827              		.loc 1 834 7
 1828 0024 7B68     		ldr	r3, [r7, #4]
 1829 0026 1B68     		ldr	r3, [r3]
 1830 0028 DA68     		ldr	r2, [r3, #12]
 1831 002a 7B68     		ldr	r3, [r7, #4]
 1832 002c 1B68     		ldr	r3, [r3]
 1833 002e 22F40072 		bic	r2, r2, #512
 1834 0032 DA60     		str	r2, [r3, #12]
 835:Drivers/STM32L4xx_HAL_Driver/Src/stm32l4xx_hal_tim_ex.c ****       break;
 1835              		.loc 1 835 13
 1836 0034 7B68     		ldr	r3, [r7, #4]
 1837 0036 5B6A     		ldr	r3, [r3, #36]
 1838 0038 1846     		mov	r0, r3
 1839 003a FFF7FEFF 		bl	HAL_DMA_Abort_IT
 836:Drivers/STM32L4xx_HAL_Driver/Src/stm32l4xx_hal_tim_ex.c ****     }
 1840              		.loc 1 836 7
 1841 003e 1CE0     		b	.L92
 1842              	.L91:
 842:Drivers/STM32L4xx_HAL_Driver/Src/stm32l4xx_hal_tim_ex.c ****       (void)HAL_DMA_Abort_IT(htim->hdma[TIM_DMA_ID_CC2]);
 1843              		.loc 1 842 7
 1844 0040 7B68     		ldr	r3, [r7, #4]
 1845 0042 1B68     		ldr	r3, [r3]
 1846 0044 DA68     		ldr	r2, [r3, #12]
 1847 0046 7B68     		ldr	r3, [r7, #4]
 1848 0048 1B68     		ldr	r3, [r3]
 1849 004a 22F48062 		bic	r2, r2, #1024
 1850 004e DA60     		str	r2, [r3, #12]
 843:Drivers/STM32L4xx_HAL_Driver/Src/stm32l4xx_hal_tim_ex.c ****       break;
 1851              		.loc 1 843 13
 1852 0050 7B68     		ldr	r3, [r7, #4]
ARM GAS  /tmp/cc9IMTcg.s 			page 49


 1853 0052 9B6A     		ldr	r3, [r3, #40]
 1854 0054 1846     		mov	r0, r3
 1855 0056 FFF7FEFF 		bl	HAL_DMA_Abort_IT
 844:Drivers/STM32L4xx_HAL_Driver/Src/stm32l4xx_hal_tim_ex.c ****     }
 1856              		.loc 1 844 7
 1857 005a 0EE0     		b	.L92
 1858              	.L88:
 850:Drivers/STM32L4xx_HAL_Driver/Src/stm32l4xx_hal_tim_ex.c ****       (void)HAL_DMA_Abort_IT(htim->hdma[TIM_DMA_ID_CC3]);
 1859              		.loc 1 850 7
 1860 005c 7B68     		ldr	r3, [r7, #4]
 1861 005e 1B68     		ldr	r3, [r3]
 1862 0060 DA68     		ldr	r2, [r3, #12]
 1863 0062 7B68     		ldr	r3, [r7, #4]
 1864 0064 1B68     		ldr	r3, [r3]
 1865 0066 22F40062 		bic	r2, r2, #2048
 1866 006a DA60     		str	r2, [r3, #12]
 851:Drivers/STM32L4xx_HAL_Driver/Src/stm32l4xx_hal_tim_ex.c ****       break;
 1867              		.loc 1 851 13
 1868 006c 7B68     		ldr	r3, [r7, #4]
 1869 006e DB6A     		ldr	r3, [r3, #44]
 1870 0070 1846     		mov	r0, r3
 1871 0072 FFF7FEFF 		bl	HAL_DMA_Abort_IT
 852:Drivers/STM32L4xx_HAL_Driver/Src/stm32l4xx_hal_tim_ex.c ****     }
 1872              		.loc 1 852 7
 1873 0076 00E0     		b	.L92
 1874              	.L96:
 1875              		.loc 1 856 7
 1876 0078 00BF     		nop
 1877              	.L92:
 857:Drivers/STM32L4xx_HAL_Driver/Src/stm32l4xx_hal_tim_ex.c ****   }
 858:Drivers/STM32L4xx_HAL_Driver/Src/stm32l4xx_hal_tim_ex.c **** 
 859:Drivers/STM32L4xx_HAL_Driver/Src/stm32l4xx_hal_tim_ex.c ****   /* Disable the Capture compare channel N */
 860:Drivers/STM32L4xx_HAL_Driver/Src/stm32l4xx_hal_tim_ex.c ****   TIM_CCxNChannelCmd(htim->Instance, Channel, TIM_CCxN_DISABLE);
 1878              		.loc 1 860 3
 1879 007a 7B68     		ldr	r3, [r7, #4]
 1880 007c 1B68     		ldr	r3, [r3]
 1881 007e 0022     		movs	r2, #0
 1882 0080 3968     		ldr	r1, [r7]
 1883 0082 1846     		mov	r0, r3
 1884 0084 FFF7FEFF 		bl	TIM_CCxNChannelCmd
 861:Drivers/STM32L4xx_HAL_Driver/Src/stm32l4xx_hal_tim_ex.c **** 
 862:Drivers/STM32L4xx_HAL_Driver/Src/stm32l4xx_hal_tim_ex.c ****   /* Disable the Main Output */
 863:Drivers/STM32L4xx_HAL_Driver/Src/stm32l4xx_hal_tim_ex.c ****   __HAL_TIM_MOE_DISABLE(htim);
 1885              		.loc 1 863 3
 1886 0088 7B68     		ldr	r3, [r7, #4]
 1887 008a 1B68     		ldr	r3, [r3]
 1888 008c 1A6A     		ldr	r2, [r3, #32]
 1889 008e 41F21113 		movw	r3, #4369
 1890 0092 1340     		ands	r3, r3, r2
 1891 0094 002B     		cmp	r3, #0
 1892 0096 0FD1     		bne	.L93
 1893              		.loc 1 863 3 is_stmt 0 discriminator 1
 1894 0098 7B68     		ldr	r3, [r7, #4]
 1895 009a 1B68     		ldr	r3, [r3]
 1896 009c 1A6A     		ldr	r2, [r3, #32]
 1897 009e 40F24443 		movw	r3, #1092
 1898 00a2 1340     		ands	r3, r3, r2
ARM GAS  /tmp/cc9IMTcg.s 			page 50


 1899 00a4 002B     		cmp	r3, #0
 1900 00a6 07D1     		bne	.L93
 1901              		.loc 1 863 3 discriminator 2
 1902 00a8 7B68     		ldr	r3, [r7, #4]
 1903 00aa 1B68     		ldr	r3, [r3]
 1904 00ac 5A6C     		ldr	r2, [r3, #68]
 1905 00ae 7B68     		ldr	r3, [r7, #4]
 1906 00b0 1B68     		ldr	r3, [r3]
 1907 00b2 22F40042 		bic	r2, r2, #32768
 1908 00b6 5A64     		str	r2, [r3, #68]
 1909              	.L93:
 864:Drivers/STM32L4xx_HAL_Driver/Src/stm32l4xx_hal_tim_ex.c **** 
 865:Drivers/STM32L4xx_HAL_Driver/Src/stm32l4xx_hal_tim_ex.c ****   /* Disable the Peripheral */
 866:Drivers/STM32L4xx_HAL_Driver/Src/stm32l4xx_hal_tim_ex.c ****   __HAL_TIM_DISABLE(htim);
 1910              		.loc 1 866 3 is_stmt 1
 1911 00b8 7B68     		ldr	r3, [r7, #4]
 1912 00ba 1B68     		ldr	r3, [r3]
 1913 00bc 1A6A     		ldr	r2, [r3, #32]
 1914 00be 41F21113 		movw	r3, #4369
 1915 00c2 1340     		ands	r3, r3, r2
 1916 00c4 002B     		cmp	r3, #0
 1917 00c6 0FD1     		bne	.L94
 1918              		.loc 1 866 3 is_stmt 0 discriminator 1
 1919 00c8 7B68     		ldr	r3, [r7, #4]
 1920 00ca 1B68     		ldr	r3, [r3]
 1921 00cc 1A6A     		ldr	r2, [r3, #32]
 1922 00ce 40F24443 		movw	r3, #1092
 1923 00d2 1340     		ands	r3, r3, r2
 1924 00d4 002B     		cmp	r3, #0
 1925 00d6 07D1     		bne	.L94
 1926              		.loc 1 866 3 discriminator 2
 1927 00d8 7B68     		ldr	r3, [r7, #4]
 1928 00da 1B68     		ldr	r3, [r3]
 1929 00dc 1A68     		ldr	r2, [r3]
 1930 00de 7B68     		ldr	r3, [r7, #4]
 1931 00e0 1B68     		ldr	r3, [r3]
 1932 00e2 22F00102 		bic	r2, r2, #1
 1933 00e6 1A60     		str	r2, [r3]
 1934              	.L94:
 867:Drivers/STM32L4xx_HAL_Driver/Src/stm32l4xx_hal_tim_ex.c **** 
 868:Drivers/STM32L4xx_HAL_Driver/Src/stm32l4xx_hal_tim_ex.c ****   /* Change the htim state */
 869:Drivers/STM32L4xx_HAL_Driver/Src/stm32l4xx_hal_tim_ex.c ****   htim->State = HAL_TIM_STATE_READY;
 1935              		.loc 1 869 15 is_stmt 1
 1936 00e8 7B68     		ldr	r3, [r7, #4]
 1937 00ea 0122     		movs	r2, #1
 1938 00ec 83F83D20 		strb	r2, [r3, #61]
 870:Drivers/STM32L4xx_HAL_Driver/Src/stm32l4xx_hal_tim_ex.c **** 
 871:Drivers/STM32L4xx_HAL_Driver/Src/stm32l4xx_hal_tim_ex.c ****   /* Return function status */
 872:Drivers/STM32L4xx_HAL_Driver/Src/stm32l4xx_hal_tim_ex.c ****   return HAL_OK;
 1939              		.loc 1 872 10
 1940 00f0 0023     		movs	r3, #0
 873:Drivers/STM32L4xx_HAL_Driver/Src/stm32l4xx_hal_tim_ex.c **** }
 1941              		.loc 1 873 1
 1942 00f2 1846     		mov	r0, r3
 1943 00f4 0837     		adds	r7, r7, #8
 1944              	.LCFI80:
 1945              		.cfi_def_cfa_offset 8
ARM GAS  /tmp/cc9IMTcg.s 			page 51


 1946 00f6 BD46     		mov	sp, r7
 1947              	.LCFI81:
 1948              		.cfi_def_cfa_register 13
 1949              		@ sp needed
 1950 00f8 80BD     		pop	{r7, pc}
 1951              		.cfi_endproc
 1952              	.LFE145:
 1954              		.section	.text.HAL_TIMEx_PWMN_Start,"ax",%progbits
 1955              		.align	1
 1956              		.global	HAL_TIMEx_PWMN_Start
 1957              		.syntax unified
 1958              		.thumb
 1959              		.thumb_func
 1960              		.fpu fpv4-sp-d16
 1962              	HAL_TIMEx_PWMN_Start:
 1963              	.LFB146:
 874:Drivers/STM32L4xx_HAL_Driver/Src/stm32l4xx_hal_tim_ex.c **** 
 875:Drivers/STM32L4xx_HAL_Driver/Src/stm32l4xx_hal_tim_ex.c **** /**
 876:Drivers/STM32L4xx_HAL_Driver/Src/stm32l4xx_hal_tim_ex.c ****   * @}
 877:Drivers/STM32L4xx_HAL_Driver/Src/stm32l4xx_hal_tim_ex.c ****   */
 878:Drivers/STM32L4xx_HAL_Driver/Src/stm32l4xx_hal_tim_ex.c **** 
 879:Drivers/STM32L4xx_HAL_Driver/Src/stm32l4xx_hal_tim_ex.c **** /** @defgroup TIMEx_Exported_Functions_Group3 Extended Timer Complementary PWM functions
 880:Drivers/STM32L4xx_HAL_Driver/Src/stm32l4xx_hal_tim_ex.c ****   * @brief    Timer Complementary PWM functions
 881:Drivers/STM32L4xx_HAL_Driver/Src/stm32l4xx_hal_tim_ex.c ****   *
 882:Drivers/STM32L4xx_HAL_Driver/Src/stm32l4xx_hal_tim_ex.c **** @verbatim
 883:Drivers/STM32L4xx_HAL_Driver/Src/stm32l4xx_hal_tim_ex.c ****   ==============================================================================
 884:Drivers/STM32L4xx_HAL_Driver/Src/stm32l4xx_hal_tim_ex.c ****                  ##### Timer Complementary PWM functions #####
 885:Drivers/STM32L4xx_HAL_Driver/Src/stm32l4xx_hal_tim_ex.c ****   ==============================================================================
 886:Drivers/STM32L4xx_HAL_Driver/Src/stm32l4xx_hal_tim_ex.c ****   [..]
 887:Drivers/STM32L4xx_HAL_Driver/Src/stm32l4xx_hal_tim_ex.c ****     This section provides functions allowing to:
 888:Drivers/STM32L4xx_HAL_Driver/Src/stm32l4xx_hal_tim_ex.c ****     (+) Start the Complementary PWM.
 889:Drivers/STM32L4xx_HAL_Driver/Src/stm32l4xx_hal_tim_ex.c ****     (+) Stop the Complementary PWM.
 890:Drivers/STM32L4xx_HAL_Driver/Src/stm32l4xx_hal_tim_ex.c ****     (+) Start the Complementary PWM and enable interrupts.
 891:Drivers/STM32L4xx_HAL_Driver/Src/stm32l4xx_hal_tim_ex.c ****     (+) Stop the Complementary PWM and disable interrupts.
 892:Drivers/STM32L4xx_HAL_Driver/Src/stm32l4xx_hal_tim_ex.c ****     (+) Start the Complementary PWM and enable DMA transfers.
 893:Drivers/STM32L4xx_HAL_Driver/Src/stm32l4xx_hal_tim_ex.c ****     (+) Stop the Complementary PWM and disable DMA transfers.
 894:Drivers/STM32L4xx_HAL_Driver/Src/stm32l4xx_hal_tim_ex.c ****     (+) Start the Complementary Input Capture measurement.
 895:Drivers/STM32L4xx_HAL_Driver/Src/stm32l4xx_hal_tim_ex.c ****     (+) Stop the Complementary Input Capture.
 896:Drivers/STM32L4xx_HAL_Driver/Src/stm32l4xx_hal_tim_ex.c ****     (+) Start the Complementary Input Capture and enable interrupts.
 897:Drivers/STM32L4xx_HAL_Driver/Src/stm32l4xx_hal_tim_ex.c ****     (+) Stop the Complementary Input Capture and disable interrupts.
 898:Drivers/STM32L4xx_HAL_Driver/Src/stm32l4xx_hal_tim_ex.c ****     (+) Start the Complementary Input Capture and enable DMA transfers.
 899:Drivers/STM32L4xx_HAL_Driver/Src/stm32l4xx_hal_tim_ex.c ****     (+) Stop the Complementary Input Capture and disable DMA transfers.
 900:Drivers/STM32L4xx_HAL_Driver/Src/stm32l4xx_hal_tim_ex.c ****     (+) Start the Complementary One Pulse generation.
 901:Drivers/STM32L4xx_HAL_Driver/Src/stm32l4xx_hal_tim_ex.c ****     (+) Stop the Complementary One Pulse.
 902:Drivers/STM32L4xx_HAL_Driver/Src/stm32l4xx_hal_tim_ex.c ****     (+) Start the Complementary One Pulse and enable interrupts.
 903:Drivers/STM32L4xx_HAL_Driver/Src/stm32l4xx_hal_tim_ex.c ****     (+) Stop the Complementary One Pulse and disable interrupts.
 904:Drivers/STM32L4xx_HAL_Driver/Src/stm32l4xx_hal_tim_ex.c **** 
 905:Drivers/STM32L4xx_HAL_Driver/Src/stm32l4xx_hal_tim_ex.c **** @endverbatim
 906:Drivers/STM32L4xx_HAL_Driver/Src/stm32l4xx_hal_tim_ex.c ****   * @{
 907:Drivers/STM32L4xx_HAL_Driver/Src/stm32l4xx_hal_tim_ex.c ****   */
 908:Drivers/STM32L4xx_HAL_Driver/Src/stm32l4xx_hal_tim_ex.c **** 
 909:Drivers/STM32L4xx_HAL_Driver/Src/stm32l4xx_hal_tim_ex.c **** /**
 910:Drivers/STM32L4xx_HAL_Driver/Src/stm32l4xx_hal_tim_ex.c ****   * @brief  Starts the PWM signal generation on the complementary output.
 911:Drivers/STM32L4xx_HAL_Driver/Src/stm32l4xx_hal_tim_ex.c ****   * @param  htim TIM handle
 912:Drivers/STM32L4xx_HAL_Driver/Src/stm32l4xx_hal_tim_ex.c ****   * @param  Channel TIM Channel to be enabled
 913:Drivers/STM32L4xx_HAL_Driver/Src/stm32l4xx_hal_tim_ex.c ****   *          This parameter can be one of the following values:
 914:Drivers/STM32L4xx_HAL_Driver/Src/stm32l4xx_hal_tim_ex.c ****   *            @arg TIM_CHANNEL_1: TIM Channel 1 selected
ARM GAS  /tmp/cc9IMTcg.s 			page 52


 915:Drivers/STM32L4xx_HAL_Driver/Src/stm32l4xx_hal_tim_ex.c ****   *            @arg TIM_CHANNEL_2: TIM Channel 2 selected
 916:Drivers/STM32L4xx_HAL_Driver/Src/stm32l4xx_hal_tim_ex.c ****   *            @arg TIM_CHANNEL_3: TIM Channel 3 selected
 917:Drivers/STM32L4xx_HAL_Driver/Src/stm32l4xx_hal_tim_ex.c ****   * @retval HAL status
 918:Drivers/STM32L4xx_HAL_Driver/Src/stm32l4xx_hal_tim_ex.c ****   */
 919:Drivers/STM32L4xx_HAL_Driver/Src/stm32l4xx_hal_tim_ex.c **** HAL_StatusTypeDef HAL_TIMEx_PWMN_Start(TIM_HandleTypeDef *htim, uint32_t Channel)
 920:Drivers/STM32L4xx_HAL_Driver/Src/stm32l4xx_hal_tim_ex.c **** {
 1964              		.loc 1 920 1
 1965              		.cfi_startproc
 1966              		@ args = 0, pretend = 0, frame = 16
 1967              		@ frame_needed = 1, uses_anonymous_args = 0
 1968 0000 80B5     		push	{r7, lr}
 1969              	.LCFI82:
 1970              		.cfi_def_cfa_offset 8
 1971              		.cfi_offset 7, -8
 1972              		.cfi_offset 14, -4
 1973 0002 84B0     		sub	sp, sp, #16
 1974              	.LCFI83:
 1975              		.cfi_def_cfa_offset 24
 1976 0004 00AF     		add	r7, sp, #0
 1977              	.LCFI84:
 1978              		.cfi_def_cfa_register 7
 1979 0006 7860     		str	r0, [r7, #4]
 1980 0008 3960     		str	r1, [r7]
 921:Drivers/STM32L4xx_HAL_Driver/Src/stm32l4xx_hal_tim_ex.c ****   uint32_t tmpsmcr;
 922:Drivers/STM32L4xx_HAL_Driver/Src/stm32l4xx_hal_tim_ex.c **** 
 923:Drivers/STM32L4xx_HAL_Driver/Src/stm32l4xx_hal_tim_ex.c ****   /* Check the parameters */
 924:Drivers/STM32L4xx_HAL_Driver/Src/stm32l4xx_hal_tim_ex.c ****   assert_param(IS_TIM_CCXN_INSTANCE(htim->Instance, Channel));
 925:Drivers/STM32L4xx_HAL_Driver/Src/stm32l4xx_hal_tim_ex.c **** 
 926:Drivers/STM32L4xx_HAL_Driver/Src/stm32l4xx_hal_tim_ex.c ****   /* Enable the complementary PWM output  */
 927:Drivers/STM32L4xx_HAL_Driver/Src/stm32l4xx_hal_tim_ex.c ****   TIM_CCxNChannelCmd(htim->Instance, Channel, TIM_CCxN_ENABLE);
 1981              		.loc 1 927 3
 1982 000a 7B68     		ldr	r3, [r7, #4]
 1983 000c 1B68     		ldr	r3, [r3]
 1984 000e 0422     		movs	r2, #4
 1985 0010 3968     		ldr	r1, [r7]
 1986 0012 1846     		mov	r0, r3
 1987 0014 FFF7FEFF 		bl	TIM_CCxNChannelCmd
 928:Drivers/STM32L4xx_HAL_Driver/Src/stm32l4xx_hal_tim_ex.c **** 
 929:Drivers/STM32L4xx_HAL_Driver/Src/stm32l4xx_hal_tim_ex.c ****   /* Enable the Main Output */
 930:Drivers/STM32L4xx_HAL_Driver/Src/stm32l4xx_hal_tim_ex.c ****   __HAL_TIM_MOE_ENABLE(htim);
 1988              		.loc 1 930 3
 1989 0018 7B68     		ldr	r3, [r7, #4]
 1990 001a 1B68     		ldr	r3, [r3]
 1991 001c 5A6C     		ldr	r2, [r3, #68]
 1992 001e 7B68     		ldr	r3, [r7, #4]
 1993 0020 1B68     		ldr	r3, [r3]
 1994 0022 42F40042 		orr	r2, r2, #32768
 1995 0026 5A64     		str	r2, [r3, #68]
 931:Drivers/STM32L4xx_HAL_Driver/Src/stm32l4xx_hal_tim_ex.c **** 
 932:Drivers/STM32L4xx_HAL_Driver/Src/stm32l4xx_hal_tim_ex.c ****   /* Enable the Peripheral, except in trigger mode where enable is automatically done with trigger 
 933:Drivers/STM32L4xx_HAL_Driver/Src/stm32l4xx_hal_tim_ex.c ****   tmpsmcr = htim->Instance->SMCR & TIM_SMCR_SMS;
 1996              		.loc 1 933 17
 1997 0028 7B68     		ldr	r3, [r7, #4]
 1998 002a 1B68     		ldr	r3, [r3]
 1999              		.loc 1 933 27
 2000 002c 9A68     		ldr	r2, [r3, #8]
 2001              		.loc 1 933 11
ARM GAS  /tmp/cc9IMTcg.s 			page 53


 2002 002e 0B4B     		ldr	r3, .L100
 2003 0030 1340     		ands	r3, r3, r2
 2004 0032 FB60     		str	r3, [r7, #12]
 934:Drivers/STM32L4xx_HAL_Driver/Src/stm32l4xx_hal_tim_ex.c ****   if (!IS_TIM_SLAVEMODE_TRIGGER_ENABLED(tmpsmcr))
 2005              		.loc 1 934 6
 2006 0034 FB68     		ldr	r3, [r7, #12]
 2007 0036 062B     		cmp	r3, #6
 2008 0038 0BD0     		beq	.L98
 2009              		.loc 1 934 7 discriminator 1
 2010 003a FB68     		ldr	r3, [r7, #12]
 2011 003c B3F5803F 		cmp	r3, #65536
 2012 0040 07D0     		beq	.L98
 935:Drivers/STM32L4xx_HAL_Driver/Src/stm32l4xx_hal_tim_ex.c ****   {
 936:Drivers/STM32L4xx_HAL_Driver/Src/stm32l4xx_hal_tim_ex.c ****     __HAL_TIM_ENABLE(htim);
 2013              		.loc 1 936 5
 2014 0042 7B68     		ldr	r3, [r7, #4]
 2015 0044 1B68     		ldr	r3, [r3]
 2016 0046 1A68     		ldr	r2, [r3]
 2017 0048 7B68     		ldr	r3, [r7, #4]
 2018 004a 1B68     		ldr	r3, [r3]
 2019 004c 42F00102 		orr	r2, r2, #1
 2020 0050 1A60     		str	r2, [r3]
 2021              	.L98:
 937:Drivers/STM32L4xx_HAL_Driver/Src/stm32l4xx_hal_tim_ex.c ****   }
 938:Drivers/STM32L4xx_HAL_Driver/Src/stm32l4xx_hal_tim_ex.c **** 
 939:Drivers/STM32L4xx_HAL_Driver/Src/stm32l4xx_hal_tim_ex.c ****   /* Return function status */
 940:Drivers/STM32L4xx_HAL_Driver/Src/stm32l4xx_hal_tim_ex.c ****   return HAL_OK;
 2022              		.loc 1 940 10
 2023 0052 0023     		movs	r3, #0
 941:Drivers/STM32L4xx_HAL_Driver/Src/stm32l4xx_hal_tim_ex.c **** }
 2024              		.loc 1 941 1
 2025 0054 1846     		mov	r0, r3
 2026 0056 1037     		adds	r7, r7, #16
 2027              	.LCFI85:
 2028              		.cfi_def_cfa_offset 8
 2029 0058 BD46     		mov	sp, r7
 2030              	.LCFI86:
 2031              		.cfi_def_cfa_register 13
 2032              		@ sp needed
 2033 005a 80BD     		pop	{r7, pc}
 2034              	.L101:
 2035              		.align	2
 2036              	.L100:
 2037 005c 07000100 		.word	65543
 2038              		.cfi_endproc
 2039              	.LFE146:
 2041              		.section	.text.HAL_TIMEx_PWMN_Stop,"ax",%progbits
 2042              		.align	1
 2043              		.global	HAL_TIMEx_PWMN_Stop
 2044              		.syntax unified
 2045              		.thumb
 2046              		.thumb_func
 2047              		.fpu fpv4-sp-d16
 2049              	HAL_TIMEx_PWMN_Stop:
 2050              	.LFB147:
 942:Drivers/STM32L4xx_HAL_Driver/Src/stm32l4xx_hal_tim_ex.c **** 
 943:Drivers/STM32L4xx_HAL_Driver/Src/stm32l4xx_hal_tim_ex.c **** /**
ARM GAS  /tmp/cc9IMTcg.s 			page 54


 944:Drivers/STM32L4xx_HAL_Driver/Src/stm32l4xx_hal_tim_ex.c ****   * @brief  Stops the PWM signal generation on the complementary output.
 945:Drivers/STM32L4xx_HAL_Driver/Src/stm32l4xx_hal_tim_ex.c ****   * @param  htim TIM handle
 946:Drivers/STM32L4xx_HAL_Driver/Src/stm32l4xx_hal_tim_ex.c ****   * @param  Channel TIM Channel to be disabled
 947:Drivers/STM32L4xx_HAL_Driver/Src/stm32l4xx_hal_tim_ex.c ****   *          This parameter can be one of the following values:
 948:Drivers/STM32L4xx_HAL_Driver/Src/stm32l4xx_hal_tim_ex.c ****   *            @arg TIM_CHANNEL_1: TIM Channel 1 selected
 949:Drivers/STM32L4xx_HAL_Driver/Src/stm32l4xx_hal_tim_ex.c ****   *            @arg TIM_CHANNEL_2: TIM Channel 2 selected
 950:Drivers/STM32L4xx_HAL_Driver/Src/stm32l4xx_hal_tim_ex.c ****   *            @arg TIM_CHANNEL_3: TIM Channel 3 selected
 951:Drivers/STM32L4xx_HAL_Driver/Src/stm32l4xx_hal_tim_ex.c ****   * @retval HAL status
 952:Drivers/STM32L4xx_HAL_Driver/Src/stm32l4xx_hal_tim_ex.c ****   */
 953:Drivers/STM32L4xx_HAL_Driver/Src/stm32l4xx_hal_tim_ex.c **** HAL_StatusTypeDef HAL_TIMEx_PWMN_Stop(TIM_HandleTypeDef *htim, uint32_t Channel)
 954:Drivers/STM32L4xx_HAL_Driver/Src/stm32l4xx_hal_tim_ex.c **** {
 2051              		.loc 1 954 1
 2052              		.cfi_startproc
 2053              		@ args = 0, pretend = 0, frame = 8
 2054              		@ frame_needed = 1, uses_anonymous_args = 0
 2055 0000 80B5     		push	{r7, lr}
 2056              	.LCFI87:
 2057              		.cfi_def_cfa_offset 8
 2058              		.cfi_offset 7, -8
 2059              		.cfi_offset 14, -4
 2060 0002 82B0     		sub	sp, sp, #8
 2061              	.LCFI88:
 2062              		.cfi_def_cfa_offset 16
 2063 0004 00AF     		add	r7, sp, #0
 2064              	.LCFI89:
 2065              		.cfi_def_cfa_register 7
 2066 0006 7860     		str	r0, [r7, #4]
 2067 0008 3960     		str	r1, [r7]
 955:Drivers/STM32L4xx_HAL_Driver/Src/stm32l4xx_hal_tim_ex.c ****   /* Check the parameters */
 956:Drivers/STM32L4xx_HAL_Driver/Src/stm32l4xx_hal_tim_ex.c ****   assert_param(IS_TIM_CCXN_INSTANCE(htim->Instance, Channel));
 957:Drivers/STM32L4xx_HAL_Driver/Src/stm32l4xx_hal_tim_ex.c **** 
 958:Drivers/STM32L4xx_HAL_Driver/Src/stm32l4xx_hal_tim_ex.c ****   /* Disable the complementary PWM output  */
 959:Drivers/STM32L4xx_HAL_Driver/Src/stm32l4xx_hal_tim_ex.c ****   TIM_CCxNChannelCmd(htim->Instance, Channel, TIM_CCxN_DISABLE);
 2068              		.loc 1 959 3
 2069 000a 7B68     		ldr	r3, [r7, #4]
 2070 000c 1B68     		ldr	r3, [r3]
 2071 000e 0022     		movs	r2, #0
 2072 0010 3968     		ldr	r1, [r7]
 2073 0012 1846     		mov	r0, r3
 2074 0014 FFF7FEFF 		bl	TIM_CCxNChannelCmd
 960:Drivers/STM32L4xx_HAL_Driver/Src/stm32l4xx_hal_tim_ex.c **** 
 961:Drivers/STM32L4xx_HAL_Driver/Src/stm32l4xx_hal_tim_ex.c ****   /* Disable the Main Output */
 962:Drivers/STM32L4xx_HAL_Driver/Src/stm32l4xx_hal_tim_ex.c ****   __HAL_TIM_MOE_DISABLE(htim);
 2075              		.loc 1 962 3
 2076 0018 7B68     		ldr	r3, [r7, #4]
 2077 001a 1B68     		ldr	r3, [r3]
 2078 001c 1A6A     		ldr	r2, [r3, #32]
 2079 001e 41F21113 		movw	r3, #4369
 2080 0022 1340     		ands	r3, r3, r2
 2081 0024 002B     		cmp	r3, #0
 2082 0026 0FD1     		bne	.L103
 2083              		.loc 1 962 3 is_stmt 0 discriminator 1
 2084 0028 7B68     		ldr	r3, [r7, #4]
 2085 002a 1B68     		ldr	r3, [r3]
 2086 002c 1A6A     		ldr	r2, [r3, #32]
 2087 002e 40F24443 		movw	r3, #1092
 2088 0032 1340     		ands	r3, r3, r2
ARM GAS  /tmp/cc9IMTcg.s 			page 55


 2089 0034 002B     		cmp	r3, #0
 2090 0036 07D1     		bne	.L103
 2091              		.loc 1 962 3 discriminator 2
 2092 0038 7B68     		ldr	r3, [r7, #4]
 2093 003a 1B68     		ldr	r3, [r3]
 2094 003c 5A6C     		ldr	r2, [r3, #68]
 2095 003e 7B68     		ldr	r3, [r7, #4]
 2096 0040 1B68     		ldr	r3, [r3]
 2097 0042 22F40042 		bic	r2, r2, #32768
 2098 0046 5A64     		str	r2, [r3, #68]
 2099              	.L103:
 963:Drivers/STM32L4xx_HAL_Driver/Src/stm32l4xx_hal_tim_ex.c **** 
 964:Drivers/STM32L4xx_HAL_Driver/Src/stm32l4xx_hal_tim_ex.c ****   /* Disable the Peripheral */
 965:Drivers/STM32L4xx_HAL_Driver/Src/stm32l4xx_hal_tim_ex.c ****   __HAL_TIM_DISABLE(htim);
 2100              		.loc 1 965 3 is_stmt 1
 2101 0048 7B68     		ldr	r3, [r7, #4]
 2102 004a 1B68     		ldr	r3, [r3]
 2103 004c 1A6A     		ldr	r2, [r3, #32]
 2104 004e 41F21113 		movw	r3, #4369
 2105 0052 1340     		ands	r3, r3, r2
 2106 0054 002B     		cmp	r3, #0
 2107 0056 0FD1     		bne	.L104
 2108              		.loc 1 965 3 is_stmt 0 discriminator 1
 2109 0058 7B68     		ldr	r3, [r7, #4]
 2110 005a 1B68     		ldr	r3, [r3]
 2111 005c 1A6A     		ldr	r2, [r3, #32]
 2112 005e 40F24443 		movw	r3, #1092
 2113 0062 1340     		ands	r3, r3, r2
 2114 0064 002B     		cmp	r3, #0
 2115 0066 07D1     		bne	.L104
 2116              		.loc 1 965 3 discriminator 2
 2117 0068 7B68     		ldr	r3, [r7, #4]
 2118 006a 1B68     		ldr	r3, [r3]
 2119 006c 1A68     		ldr	r2, [r3]
 2120 006e 7B68     		ldr	r3, [r7, #4]
 2121 0070 1B68     		ldr	r3, [r3]
 2122 0072 22F00102 		bic	r2, r2, #1
 2123 0076 1A60     		str	r2, [r3]
 2124              	.L104:
 966:Drivers/STM32L4xx_HAL_Driver/Src/stm32l4xx_hal_tim_ex.c **** 
 967:Drivers/STM32L4xx_HAL_Driver/Src/stm32l4xx_hal_tim_ex.c ****   /* Return function status */
 968:Drivers/STM32L4xx_HAL_Driver/Src/stm32l4xx_hal_tim_ex.c ****   return HAL_OK;
 2125              		.loc 1 968 10 is_stmt 1
 2126 0078 0023     		movs	r3, #0
 969:Drivers/STM32L4xx_HAL_Driver/Src/stm32l4xx_hal_tim_ex.c **** }
 2127              		.loc 1 969 1
 2128 007a 1846     		mov	r0, r3
 2129 007c 0837     		adds	r7, r7, #8
 2130              	.LCFI90:
 2131              		.cfi_def_cfa_offset 8
 2132 007e BD46     		mov	sp, r7
 2133              	.LCFI91:
 2134              		.cfi_def_cfa_register 13
 2135              		@ sp needed
 2136 0080 80BD     		pop	{r7, pc}
 2137              		.cfi_endproc
 2138              	.LFE147:
ARM GAS  /tmp/cc9IMTcg.s 			page 56


 2140              		.section	.text.HAL_TIMEx_PWMN_Start_IT,"ax",%progbits
 2141              		.align	1
 2142              		.global	HAL_TIMEx_PWMN_Start_IT
 2143              		.syntax unified
 2144              		.thumb
 2145              		.thumb_func
 2146              		.fpu fpv4-sp-d16
 2148              	HAL_TIMEx_PWMN_Start_IT:
 2149              	.LFB148:
 970:Drivers/STM32L4xx_HAL_Driver/Src/stm32l4xx_hal_tim_ex.c **** 
 971:Drivers/STM32L4xx_HAL_Driver/Src/stm32l4xx_hal_tim_ex.c **** /**
 972:Drivers/STM32L4xx_HAL_Driver/Src/stm32l4xx_hal_tim_ex.c ****   * @brief  Starts the PWM signal generation in interrupt mode on the
 973:Drivers/STM32L4xx_HAL_Driver/Src/stm32l4xx_hal_tim_ex.c ****   *         complementary output.
 974:Drivers/STM32L4xx_HAL_Driver/Src/stm32l4xx_hal_tim_ex.c ****   * @param  htim TIM handle
 975:Drivers/STM32L4xx_HAL_Driver/Src/stm32l4xx_hal_tim_ex.c ****   * @param  Channel TIM Channel to be disabled
 976:Drivers/STM32L4xx_HAL_Driver/Src/stm32l4xx_hal_tim_ex.c ****   *          This parameter can be one of the following values:
 977:Drivers/STM32L4xx_HAL_Driver/Src/stm32l4xx_hal_tim_ex.c ****   *            @arg TIM_CHANNEL_1: TIM Channel 1 selected
 978:Drivers/STM32L4xx_HAL_Driver/Src/stm32l4xx_hal_tim_ex.c ****   *            @arg TIM_CHANNEL_2: TIM Channel 2 selected
 979:Drivers/STM32L4xx_HAL_Driver/Src/stm32l4xx_hal_tim_ex.c ****   *            @arg TIM_CHANNEL_3: TIM Channel 3 selected
 980:Drivers/STM32L4xx_HAL_Driver/Src/stm32l4xx_hal_tim_ex.c ****   * @retval HAL status
 981:Drivers/STM32L4xx_HAL_Driver/Src/stm32l4xx_hal_tim_ex.c ****   */
 982:Drivers/STM32L4xx_HAL_Driver/Src/stm32l4xx_hal_tim_ex.c **** HAL_StatusTypeDef HAL_TIMEx_PWMN_Start_IT(TIM_HandleTypeDef *htim, uint32_t Channel)
 983:Drivers/STM32L4xx_HAL_Driver/Src/stm32l4xx_hal_tim_ex.c **** {
 2150              		.loc 1 983 1
 2151              		.cfi_startproc
 2152              		@ args = 0, pretend = 0, frame = 16
 2153              		@ frame_needed = 1, uses_anonymous_args = 0
 2154 0000 80B5     		push	{r7, lr}
 2155              	.LCFI92:
 2156              		.cfi_def_cfa_offset 8
 2157              		.cfi_offset 7, -8
 2158              		.cfi_offset 14, -4
 2159 0002 84B0     		sub	sp, sp, #16
 2160              	.LCFI93:
 2161              		.cfi_def_cfa_offset 24
 2162 0004 00AF     		add	r7, sp, #0
 2163              	.LCFI94:
 2164              		.cfi_def_cfa_register 7
 2165 0006 7860     		str	r0, [r7, #4]
 2166 0008 3960     		str	r1, [r7]
 984:Drivers/STM32L4xx_HAL_Driver/Src/stm32l4xx_hal_tim_ex.c ****   uint32_t tmpsmcr;
 985:Drivers/STM32L4xx_HAL_Driver/Src/stm32l4xx_hal_tim_ex.c **** 
 986:Drivers/STM32L4xx_HAL_Driver/Src/stm32l4xx_hal_tim_ex.c ****   /* Check the parameters */
 987:Drivers/STM32L4xx_HAL_Driver/Src/stm32l4xx_hal_tim_ex.c ****   assert_param(IS_TIM_CCXN_INSTANCE(htim->Instance, Channel));
 988:Drivers/STM32L4xx_HAL_Driver/Src/stm32l4xx_hal_tim_ex.c **** 
 989:Drivers/STM32L4xx_HAL_Driver/Src/stm32l4xx_hal_tim_ex.c ****   switch (Channel)
 2167              		.loc 1 989 3
 2168 000a 3B68     		ldr	r3, [r7]
 2169 000c 082B     		cmp	r3, #8
 2170 000e 1BD0     		beq	.L107
 2171 0010 3B68     		ldr	r3, [r7]
 2172 0012 082B     		cmp	r3, #8
 2173 0014 21D8     		bhi	.L114
 2174 0016 3B68     		ldr	r3, [r7]
 2175 0018 002B     		cmp	r3, #0
 2176 001a 03D0     		beq	.L109
 2177 001c 3B68     		ldr	r3, [r7]
ARM GAS  /tmp/cc9IMTcg.s 			page 57


 2178 001e 042B     		cmp	r3, #4
 2179 0020 09D0     		beq	.L110
 990:Drivers/STM32L4xx_HAL_Driver/Src/stm32l4xx_hal_tim_ex.c ****   {
 991:Drivers/STM32L4xx_HAL_Driver/Src/stm32l4xx_hal_tim_ex.c ****     case TIM_CHANNEL_1:
 992:Drivers/STM32L4xx_HAL_Driver/Src/stm32l4xx_hal_tim_ex.c ****     {
 993:Drivers/STM32L4xx_HAL_Driver/Src/stm32l4xx_hal_tim_ex.c ****       /* Enable the TIM Capture/Compare 1 interrupt */
 994:Drivers/STM32L4xx_HAL_Driver/Src/stm32l4xx_hal_tim_ex.c ****       __HAL_TIM_ENABLE_IT(htim, TIM_IT_CC1);
 995:Drivers/STM32L4xx_HAL_Driver/Src/stm32l4xx_hal_tim_ex.c ****       break;
 996:Drivers/STM32L4xx_HAL_Driver/Src/stm32l4xx_hal_tim_ex.c ****     }
 997:Drivers/STM32L4xx_HAL_Driver/Src/stm32l4xx_hal_tim_ex.c **** 
 998:Drivers/STM32L4xx_HAL_Driver/Src/stm32l4xx_hal_tim_ex.c ****     case TIM_CHANNEL_2:
 999:Drivers/STM32L4xx_HAL_Driver/Src/stm32l4xx_hal_tim_ex.c ****     {
1000:Drivers/STM32L4xx_HAL_Driver/Src/stm32l4xx_hal_tim_ex.c ****       /* Enable the TIM Capture/Compare 2 interrupt */
1001:Drivers/STM32L4xx_HAL_Driver/Src/stm32l4xx_hal_tim_ex.c ****       __HAL_TIM_ENABLE_IT(htim, TIM_IT_CC2);
1002:Drivers/STM32L4xx_HAL_Driver/Src/stm32l4xx_hal_tim_ex.c ****       break;
1003:Drivers/STM32L4xx_HAL_Driver/Src/stm32l4xx_hal_tim_ex.c ****     }
1004:Drivers/STM32L4xx_HAL_Driver/Src/stm32l4xx_hal_tim_ex.c **** 
1005:Drivers/STM32L4xx_HAL_Driver/Src/stm32l4xx_hal_tim_ex.c ****     case TIM_CHANNEL_3:
1006:Drivers/STM32L4xx_HAL_Driver/Src/stm32l4xx_hal_tim_ex.c ****     {
1007:Drivers/STM32L4xx_HAL_Driver/Src/stm32l4xx_hal_tim_ex.c ****       /* Enable the TIM Capture/Compare 3 interrupt */
1008:Drivers/STM32L4xx_HAL_Driver/Src/stm32l4xx_hal_tim_ex.c ****       __HAL_TIM_ENABLE_IT(htim, TIM_IT_CC3);
1009:Drivers/STM32L4xx_HAL_Driver/Src/stm32l4xx_hal_tim_ex.c ****       break;
1010:Drivers/STM32L4xx_HAL_Driver/Src/stm32l4xx_hal_tim_ex.c ****     }
1011:Drivers/STM32L4xx_HAL_Driver/Src/stm32l4xx_hal_tim_ex.c **** 
1012:Drivers/STM32L4xx_HAL_Driver/Src/stm32l4xx_hal_tim_ex.c ****     default:
1013:Drivers/STM32L4xx_HAL_Driver/Src/stm32l4xx_hal_tim_ex.c ****       break;
 2180              		.loc 1 1013 7
 2181 0022 1AE0     		b	.L114
 2182              	.L109:
 994:Drivers/STM32L4xx_HAL_Driver/Src/stm32l4xx_hal_tim_ex.c ****       break;
 2183              		.loc 1 994 7
 2184 0024 7B68     		ldr	r3, [r7, #4]
 2185 0026 1B68     		ldr	r3, [r3]
 2186 0028 DA68     		ldr	r2, [r3, #12]
 2187 002a 7B68     		ldr	r3, [r7, #4]
 2188 002c 1B68     		ldr	r3, [r3]
 2189 002e 42F00202 		orr	r2, r2, #2
 2190 0032 DA60     		str	r2, [r3, #12]
 995:Drivers/STM32L4xx_HAL_Driver/Src/stm32l4xx_hal_tim_ex.c ****     }
 2191              		.loc 1 995 7
 2192 0034 12E0     		b	.L111
 2193              	.L110:
1001:Drivers/STM32L4xx_HAL_Driver/Src/stm32l4xx_hal_tim_ex.c ****       break;
 2194              		.loc 1 1001 7
 2195 0036 7B68     		ldr	r3, [r7, #4]
 2196 0038 1B68     		ldr	r3, [r3]
 2197 003a DA68     		ldr	r2, [r3, #12]
 2198 003c 7B68     		ldr	r3, [r7, #4]
 2199 003e 1B68     		ldr	r3, [r3]
 2200 0040 42F00402 		orr	r2, r2, #4
 2201 0044 DA60     		str	r2, [r3, #12]
1002:Drivers/STM32L4xx_HAL_Driver/Src/stm32l4xx_hal_tim_ex.c ****     }
 2202              		.loc 1 1002 7
 2203 0046 09E0     		b	.L111
 2204              	.L107:
1008:Drivers/STM32L4xx_HAL_Driver/Src/stm32l4xx_hal_tim_ex.c ****       break;
 2205              		.loc 1 1008 7
ARM GAS  /tmp/cc9IMTcg.s 			page 58


 2206 0048 7B68     		ldr	r3, [r7, #4]
 2207 004a 1B68     		ldr	r3, [r3]
 2208 004c DA68     		ldr	r2, [r3, #12]
 2209 004e 7B68     		ldr	r3, [r7, #4]
 2210 0050 1B68     		ldr	r3, [r3]
 2211 0052 42F00802 		orr	r2, r2, #8
 2212 0056 DA60     		str	r2, [r3, #12]
1009:Drivers/STM32L4xx_HAL_Driver/Src/stm32l4xx_hal_tim_ex.c ****     }
 2213              		.loc 1 1009 7
 2214 0058 00E0     		b	.L111
 2215              	.L114:
 2216              		.loc 1 1013 7
 2217 005a 00BF     		nop
 2218              	.L111:
1014:Drivers/STM32L4xx_HAL_Driver/Src/stm32l4xx_hal_tim_ex.c ****   }
1015:Drivers/STM32L4xx_HAL_Driver/Src/stm32l4xx_hal_tim_ex.c **** 
1016:Drivers/STM32L4xx_HAL_Driver/Src/stm32l4xx_hal_tim_ex.c ****   /* Enable the TIM Break interrupt */
1017:Drivers/STM32L4xx_HAL_Driver/Src/stm32l4xx_hal_tim_ex.c ****   __HAL_TIM_ENABLE_IT(htim, TIM_IT_BREAK);
 2219              		.loc 1 1017 3
 2220 005c 7B68     		ldr	r3, [r7, #4]
 2221 005e 1B68     		ldr	r3, [r3]
 2222 0060 DA68     		ldr	r2, [r3, #12]
 2223 0062 7B68     		ldr	r3, [r7, #4]
 2224 0064 1B68     		ldr	r3, [r3]
 2225 0066 42F08002 		orr	r2, r2, #128
 2226 006a DA60     		str	r2, [r3, #12]
1018:Drivers/STM32L4xx_HAL_Driver/Src/stm32l4xx_hal_tim_ex.c **** 
1019:Drivers/STM32L4xx_HAL_Driver/Src/stm32l4xx_hal_tim_ex.c ****   /* Enable the complementary PWM output  */
1020:Drivers/STM32L4xx_HAL_Driver/Src/stm32l4xx_hal_tim_ex.c ****   TIM_CCxNChannelCmd(htim->Instance, Channel, TIM_CCxN_ENABLE);
 2227              		.loc 1 1020 3
 2228 006c 7B68     		ldr	r3, [r7, #4]
 2229 006e 1B68     		ldr	r3, [r3]
 2230 0070 0422     		movs	r2, #4
 2231 0072 3968     		ldr	r1, [r7]
 2232 0074 1846     		mov	r0, r3
 2233 0076 FFF7FEFF 		bl	TIM_CCxNChannelCmd
1021:Drivers/STM32L4xx_HAL_Driver/Src/stm32l4xx_hal_tim_ex.c **** 
1022:Drivers/STM32L4xx_HAL_Driver/Src/stm32l4xx_hal_tim_ex.c ****   /* Enable the Main Output */
1023:Drivers/STM32L4xx_HAL_Driver/Src/stm32l4xx_hal_tim_ex.c ****   __HAL_TIM_MOE_ENABLE(htim);
 2234              		.loc 1 1023 3
 2235 007a 7B68     		ldr	r3, [r7, #4]
 2236 007c 1B68     		ldr	r3, [r3]
 2237 007e 5A6C     		ldr	r2, [r3, #68]
 2238 0080 7B68     		ldr	r3, [r7, #4]
 2239 0082 1B68     		ldr	r3, [r3]
 2240 0084 42F40042 		orr	r2, r2, #32768
 2241 0088 5A64     		str	r2, [r3, #68]
1024:Drivers/STM32L4xx_HAL_Driver/Src/stm32l4xx_hal_tim_ex.c **** 
1025:Drivers/STM32L4xx_HAL_Driver/Src/stm32l4xx_hal_tim_ex.c ****   /* Enable the Peripheral, except in trigger mode where enable is automatically done with trigger 
1026:Drivers/STM32L4xx_HAL_Driver/Src/stm32l4xx_hal_tim_ex.c ****   tmpsmcr = htim->Instance->SMCR & TIM_SMCR_SMS;
 2242              		.loc 1 1026 17
 2243 008a 7B68     		ldr	r3, [r7, #4]
 2244 008c 1B68     		ldr	r3, [r3]
 2245              		.loc 1 1026 27
 2246 008e 9A68     		ldr	r2, [r3, #8]
 2247              		.loc 1 1026 11
 2248 0090 0B4B     		ldr	r3, .L115
ARM GAS  /tmp/cc9IMTcg.s 			page 59


 2249 0092 1340     		ands	r3, r3, r2
 2250 0094 FB60     		str	r3, [r7, #12]
1027:Drivers/STM32L4xx_HAL_Driver/Src/stm32l4xx_hal_tim_ex.c ****   if (!IS_TIM_SLAVEMODE_TRIGGER_ENABLED(tmpsmcr))
 2251              		.loc 1 1027 6
 2252 0096 FB68     		ldr	r3, [r7, #12]
 2253 0098 062B     		cmp	r3, #6
 2254 009a 0BD0     		beq	.L112
 2255              		.loc 1 1027 7 discriminator 1
 2256 009c FB68     		ldr	r3, [r7, #12]
 2257 009e B3F5803F 		cmp	r3, #65536
 2258 00a2 07D0     		beq	.L112
1028:Drivers/STM32L4xx_HAL_Driver/Src/stm32l4xx_hal_tim_ex.c ****   {
1029:Drivers/STM32L4xx_HAL_Driver/Src/stm32l4xx_hal_tim_ex.c ****     __HAL_TIM_ENABLE(htim);
 2259              		.loc 1 1029 5
 2260 00a4 7B68     		ldr	r3, [r7, #4]
 2261 00a6 1B68     		ldr	r3, [r3]
 2262 00a8 1A68     		ldr	r2, [r3]
 2263 00aa 7B68     		ldr	r3, [r7, #4]
 2264 00ac 1B68     		ldr	r3, [r3]
 2265 00ae 42F00102 		orr	r2, r2, #1
 2266 00b2 1A60     		str	r2, [r3]
 2267              	.L112:
1030:Drivers/STM32L4xx_HAL_Driver/Src/stm32l4xx_hal_tim_ex.c ****   }
1031:Drivers/STM32L4xx_HAL_Driver/Src/stm32l4xx_hal_tim_ex.c **** 
1032:Drivers/STM32L4xx_HAL_Driver/Src/stm32l4xx_hal_tim_ex.c ****   /* Return function status */
1033:Drivers/STM32L4xx_HAL_Driver/Src/stm32l4xx_hal_tim_ex.c ****   return HAL_OK;
 2268              		.loc 1 1033 10
 2269 00b4 0023     		movs	r3, #0
1034:Drivers/STM32L4xx_HAL_Driver/Src/stm32l4xx_hal_tim_ex.c **** }
 2270              		.loc 1 1034 1
 2271 00b6 1846     		mov	r0, r3
 2272 00b8 1037     		adds	r7, r7, #16
 2273              	.LCFI95:
 2274              		.cfi_def_cfa_offset 8
 2275 00ba BD46     		mov	sp, r7
 2276              	.LCFI96:
 2277              		.cfi_def_cfa_register 13
 2278              		@ sp needed
 2279 00bc 80BD     		pop	{r7, pc}
 2280              	.L116:
 2281 00be 00BF     		.align	2
 2282              	.L115:
 2283 00c0 07000100 		.word	65543
 2284              		.cfi_endproc
 2285              	.LFE148:
 2287              		.section	.text.HAL_TIMEx_PWMN_Stop_IT,"ax",%progbits
 2288              		.align	1
 2289              		.global	HAL_TIMEx_PWMN_Stop_IT
 2290              		.syntax unified
 2291              		.thumb
 2292              		.thumb_func
 2293              		.fpu fpv4-sp-d16
 2295              	HAL_TIMEx_PWMN_Stop_IT:
 2296              	.LFB149:
1035:Drivers/STM32L4xx_HAL_Driver/Src/stm32l4xx_hal_tim_ex.c **** 
1036:Drivers/STM32L4xx_HAL_Driver/Src/stm32l4xx_hal_tim_ex.c **** /**
1037:Drivers/STM32L4xx_HAL_Driver/Src/stm32l4xx_hal_tim_ex.c ****   * @brief  Stops the PWM signal generation in interrupt mode on the
ARM GAS  /tmp/cc9IMTcg.s 			page 60


1038:Drivers/STM32L4xx_HAL_Driver/Src/stm32l4xx_hal_tim_ex.c ****   *         complementary output.
1039:Drivers/STM32L4xx_HAL_Driver/Src/stm32l4xx_hal_tim_ex.c ****   * @param  htim TIM handle
1040:Drivers/STM32L4xx_HAL_Driver/Src/stm32l4xx_hal_tim_ex.c ****   * @param  Channel TIM Channel to be disabled
1041:Drivers/STM32L4xx_HAL_Driver/Src/stm32l4xx_hal_tim_ex.c ****   *          This parameter can be one of the following values:
1042:Drivers/STM32L4xx_HAL_Driver/Src/stm32l4xx_hal_tim_ex.c ****   *            @arg TIM_CHANNEL_1: TIM Channel 1 selected
1043:Drivers/STM32L4xx_HAL_Driver/Src/stm32l4xx_hal_tim_ex.c ****   *            @arg TIM_CHANNEL_2: TIM Channel 2 selected
1044:Drivers/STM32L4xx_HAL_Driver/Src/stm32l4xx_hal_tim_ex.c ****   *            @arg TIM_CHANNEL_3: TIM Channel 3 selected
1045:Drivers/STM32L4xx_HAL_Driver/Src/stm32l4xx_hal_tim_ex.c ****   * @retval HAL status
1046:Drivers/STM32L4xx_HAL_Driver/Src/stm32l4xx_hal_tim_ex.c ****   */
1047:Drivers/STM32L4xx_HAL_Driver/Src/stm32l4xx_hal_tim_ex.c **** HAL_StatusTypeDef HAL_TIMEx_PWMN_Stop_IT(TIM_HandleTypeDef *htim, uint32_t Channel)
1048:Drivers/STM32L4xx_HAL_Driver/Src/stm32l4xx_hal_tim_ex.c **** {
 2297              		.loc 1 1048 1
 2298              		.cfi_startproc
 2299              		@ args = 0, pretend = 0, frame = 16
 2300              		@ frame_needed = 1, uses_anonymous_args = 0
 2301 0000 80B5     		push	{r7, lr}
 2302              	.LCFI97:
 2303              		.cfi_def_cfa_offset 8
 2304              		.cfi_offset 7, -8
 2305              		.cfi_offset 14, -4
 2306 0002 84B0     		sub	sp, sp, #16
 2307              	.LCFI98:
 2308              		.cfi_def_cfa_offset 24
 2309 0004 00AF     		add	r7, sp, #0
 2310              	.LCFI99:
 2311              		.cfi_def_cfa_register 7
 2312 0006 7860     		str	r0, [r7, #4]
 2313 0008 3960     		str	r1, [r7]
1049:Drivers/STM32L4xx_HAL_Driver/Src/stm32l4xx_hal_tim_ex.c ****   uint32_t tmpccer;
1050:Drivers/STM32L4xx_HAL_Driver/Src/stm32l4xx_hal_tim_ex.c **** 
1051:Drivers/STM32L4xx_HAL_Driver/Src/stm32l4xx_hal_tim_ex.c ****   /* Check the parameters */
1052:Drivers/STM32L4xx_HAL_Driver/Src/stm32l4xx_hal_tim_ex.c ****   assert_param(IS_TIM_CCXN_INSTANCE(htim->Instance, Channel));
1053:Drivers/STM32L4xx_HAL_Driver/Src/stm32l4xx_hal_tim_ex.c **** 
1054:Drivers/STM32L4xx_HAL_Driver/Src/stm32l4xx_hal_tim_ex.c ****   switch (Channel)
 2314              		.loc 1 1054 3
 2315 000a 3B68     		ldr	r3, [r7]
 2316 000c 082B     		cmp	r3, #8
 2317 000e 1BD0     		beq	.L118
 2318 0010 3B68     		ldr	r3, [r7]
 2319 0012 082B     		cmp	r3, #8
 2320 0014 21D8     		bhi	.L127
 2321 0016 3B68     		ldr	r3, [r7]
 2322 0018 002B     		cmp	r3, #0
 2323 001a 03D0     		beq	.L120
 2324 001c 3B68     		ldr	r3, [r7]
 2325 001e 042B     		cmp	r3, #4
 2326 0020 09D0     		beq	.L121
1055:Drivers/STM32L4xx_HAL_Driver/Src/stm32l4xx_hal_tim_ex.c ****   {
1056:Drivers/STM32L4xx_HAL_Driver/Src/stm32l4xx_hal_tim_ex.c ****     case TIM_CHANNEL_1:
1057:Drivers/STM32L4xx_HAL_Driver/Src/stm32l4xx_hal_tim_ex.c ****     {
1058:Drivers/STM32L4xx_HAL_Driver/Src/stm32l4xx_hal_tim_ex.c ****       /* Disable the TIM Capture/Compare 1 interrupt */
1059:Drivers/STM32L4xx_HAL_Driver/Src/stm32l4xx_hal_tim_ex.c ****       __HAL_TIM_DISABLE_IT(htim, TIM_IT_CC1);
1060:Drivers/STM32L4xx_HAL_Driver/Src/stm32l4xx_hal_tim_ex.c ****       break;
1061:Drivers/STM32L4xx_HAL_Driver/Src/stm32l4xx_hal_tim_ex.c ****     }
1062:Drivers/STM32L4xx_HAL_Driver/Src/stm32l4xx_hal_tim_ex.c **** 
1063:Drivers/STM32L4xx_HAL_Driver/Src/stm32l4xx_hal_tim_ex.c ****     case TIM_CHANNEL_2:
1064:Drivers/STM32L4xx_HAL_Driver/Src/stm32l4xx_hal_tim_ex.c ****     {
ARM GAS  /tmp/cc9IMTcg.s 			page 61


1065:Drivers/STM32L4xx_HAL_Driver/Src/stm32l4xx_hal_tim_ex.c ****       /* Disable the TIM Capture/Compare 2 interrupt */
1066:Drivers/STM32L4xx_HAL_Driver/Src/stm32l4xx_hal_tim_ex.c ****       __HAL_TIM_DISABLE_IT(htim, TIM_IT_CC2);
1067:Drivers/STM32L4xx_HAL_Driver/Src/stm32l4xx_hal_tim_ex.c ****       break;
1068:Drivers/STM32L4xx_HAL_Driver/Src/stm32l4xx_hal_tim_ex.c ****     }
1069:Drivers/STM32L4xx_HAL_Driver/Src/stm32l4xx_hal_tim_ex.c **** 
1070:Drivers/STM32L4xx_HAL_Driver/Src/stm32l4xx_hal_tim_ex.c ****     case TIM_CHANNEL_3:
1071:Drivers/STM32L4xx_HAL_Driver/Src/stm32l4xx_hal_tim_ex.c ****     {
1072:Drivers/STM32L4xx_HAL_Driver/Src/stm32l4xx_hal_tim_ex.c ****       /* Disable the TIM Capture/Compare 3 interrupt */
1073:Drivers/STM32L4xx_HAL_Driver/Src/stm32l4xx_hal_tim_ex.c ****       __HAL_TIM_DISABLE_IT(htim, TIM_IT_CC3);
1074:Drivers/STM32L4xx_HAL_Driver/Src/stm32l4xx_hal_tim_ex.c ****       break;
1075:Drivers/STM32L4xx_HAL_Driver/Src/stm32l4xx_hal_tim_ex.c ****     }
1076:Drivers/STM32L4xx_HAL_Driver/Src/stm32l4xx_hal_tim_ex.c **** 
1077:Drivers/STM32L4xx_HAL_Driver/Src/stm32l4xx_hal_tim_ex.c ****     default:
1078:Drivers/STM32L4xx_HAL_Driver/Src/stm32l4xx_hal_tim_ex.c ****       break;
 2327              		.loc 1 1078 7
 2328 0022 1AE0     		b	.L127
 2329              	.L120:
1059:Drivers/STM32L4xx_HAL_Driver/Src/stm32l4xx_hal_tim_ex.c ****       break;
 2330              		.loc 1 1059 7
 2331 0024 7B68     		ldr	r3, [r7, #4]
 2332 0026 1B68     		ldr	r3, [r3]
 2333 0028 DA68     		ldr	r2, [r3, #12]
 2334 002a 7B68     		ldr	r3, [r7, #4]
 2335 002c 1B68     		ldr	r3, [r3]
 2336 002e 22F00202 		bic	r2, r2, #2
 2337 0032 DA60     		str	r2, [r3, #12]
1060:Drivers/STM32L4xx_HAL_Driver/Src/stm32l4xx_hal_tim_ex.c ****     }
 2338              		.loc 1 1060 7
 2339 0034 12E0     		b	.L122
 2340              	.L121:
1066:Drivers/STM32L4xx_HAL_Driver/Src/stm32l4xx_hal_tim_ex.c ****       break;
 2341              		.loc 1 1066 7
 2342 0036 7B68     		ldr	r3, [r7, #4]
 2343 0038 1B68     		ldr	r3, [r3]
 2344 003a DA68     		ldr	r2, [r3, #12]
 2345 003c 7B68     		ldr	r3, [r7, #4]
 2346 003e 1B68     		ldr	r3, [r3]
 2347 0040 22F00402 		bic	r2, r2, #4
 2348 0044 DA60     		str	r2, [r3, #12]
1067:Drivers/STM32L4xx_HAL_Driver/Src/stm32l4xx_hal_tim_ex.c ****     }
 2349              		.loc 1 1067 7
 2350 0046 09E0     		b	.L122
 2351              	.L118:
1073:Drivers/STM32L4xx_HAL_Driver/Src/stm32l4xx_hal_tim_ex.c ****       break;
 2352              		.loc 1 1073 7
 2353 0048 7B68     		ldr	r3, [r7, #4]
 2354 004a 1B68     		ldr	r3, [r3]
 2355 004c DA68     		ldr	r2, [r3, #12]
 2356 004e 7B68     		ldr	r3, [r7, #4]
 2357 0050 1B68     		ldr	r3, [r3]
 2358 0052 22F00802 		bic	r2, r2, #8
 2359 0056 DA60     		str	r2, [r3, #12]
1074:Drivers/STM32L4xx_HAL_Driver/Src/stm32l4xx_hal_tim_ex.c ****     }
 2360              		.loc 1 1074 7
 2361 0058 00E0     		b	.L122
 2362              	.L127:
 2363              		.loc 1 1078 7
ARM GAS  /tmp/cc9IMTcg.s 			page 62


 2364 005a 00BF     		nop
 2365              	.L122:
1079:Drivers/STM32L4xx_HAL_Driver/Src/stm32l4xx_hal_tim_ex.c ****   }
1080:Drivers/STM32L4xx_HAL_Driver/Src/stm32l4xx_hal_tim_ex.c **** 
1081:Drivers/STM32L4xx_HAL_Driver/Src/stm32l4xx_hal_tim_ex.c ****   /* Disable the complementary PWM output  */
1082:Drivers/STM32L4xx_HAL_Driver/Src/stm32l4xx_hal_tim_ex.c ****   TIM_CCxNChannelCmd(htim->Instance, Channel, TIM_CCxN_DISABLE);
 2366              		.loc 1 1082 3
 2367 005c 7B68     		ldr	r3, [r7, #4]
 2368 005e 1B68     		ldr	r3, [r3]
 2369 0060 0022     		movs	r2, #0
 2370 0062 3968     		ldr	r1, [r7]
 2371 0064 1846     		mov	r0, r3
 2372 0066 FFF7FEFF 		bl	TIM_CCxNChannelCmd
1083:Drivers/STM32L4xx_HAL_Driver/Src/stm32l4xx_hal_tim_ex.c **** 
1084:Drivers/STM32L4xx_HAL_Driver/Src/stm32l4xx_hal_tim_ex.c ****   /* Disable the TIM Break interrupt (only if no more channel is active) */
1085:Drivers/STM32L4xx_HAL_Driver/Src/stm32l4xx_hal_tim_ex.c ****   tmpccer = htim->Instance->CCER;
 2373              		.loc 1 1085 17
 2374 006a 7B68     		ldr	r3, [r7, #4]
 2375 006c 1B68     		ldr	r3, [r3]
 2376              		.loc 1 1085 11
 2377 006e 1B6A     		ldr	r3, [r3, #32]
 2378 0070 FB60     		str	r3, [r7, #12]
1086:Drivers/STM32L4xx_HAL_Driver/Src/stm32l4xx_hal_tim_ex.c ****   if ((tmpccer & (TIM_CCER_CC1NE | TIM_CCER_CC2NE | TIM_CCER_CC3NE)) == (uint32_t)RESET)
 2379              		.loc 1 1086 16
 2380 0072 FA68     		ldr	r2, [r7, #12]
 2381 0074 40F24443 		movw	r3, #1092
 2382 0078 1340     		ands	r3, r3, r2
 2383              		.loc 1 1086 6
 2384 007a 002B     		cmp	r3, #0
 2385 007c 07D1     		bne	.L123
1087:Drivers/STM32L4xx_HAL_Driver/Src/stm32l4xx_hal_tim_ex.c ****   {
1088:Drivers/STM32L4xx_HAL_Driver/Src/stm32l4xx_hal_tim_ex.c ****     __HAL_TIM_DISABLE_IT(htim, TIM_IT_BREAK);
 2386              		.loc 1 1088 5
 2387 007e 7B68     		ldr	r3, [r7, #4]
 2388 0080 1B68     		ldr	r3, [r3]
 2389 0082 DA68     		ldr	r2, [r3, #12]
 2390 0084 7B68     		ldr	r3, [r7, #4]
 2391 0086 1B68     		ldr	r3, [r3]
 2392 0088 22F08002 		bic	r2, r2, #128
 2393 008c DA60     		str	r2, [r3, #12]
 2394              	.L123:
1089:Drivers/STM32L4xx_HAL_Driver/Src/stm32l4xx_hal_tim_ex.c ****   }
1090:Drivers/STM32L4xx_HAL_Driver/Src/stm32l4xx_hal_tim_ex.c **** 
1091:Drivers/STM32L4xx_HAL_Driver/Src/stm32l4xx_hal_tim_ex.c ****   /* Disable the Main Output */
1092:Drivers/STM32L4xx_HAL_Driver/Src/stm32l4xx_hal_tim_ex.c ****   __HAL_TIM_MOE_DISABLE(htim);
 2395              		.loc 1 1092 3
 2396 008e 7B68     		ldr	r3, [r7, #4]
 2397 0090 1B68     		ldr	r3, [r3]
 2398 0092 1A6A     		ldr	r2, [r3, #32]
 2399 0094 41F21113 		movw	r3, #4369
 2400 0098 1340     		ands	r3, r3, r2
 2401 009a 002B     		cmp	r3, #0
 2402 009c 0FD1     		bne	.L124
 2403              		.loc 1 1092 3 is_stmt 0 discriminator 1
 2404 009e 7B68     		ldr	r3, [r7, #4]
 2405 00a0 1B68     		ldr	r3, [r3]
 2406 00a2 1A6A     		ldr	r2, [r3, #32]
ARM GAS  /tmp/cc9IMTcg.s 			page 63


 2407 00a4 40F24443 		movw	r3, #1092
 2408 00a8 1340     		ands	r3, r3, r2
 2409 00aa 002B     		cmp	r3, #0
 2410 00ac 07D1     		bne	.L124
 2411              		.loc 1 1092 3 discriminator 2
 2412 00ae 7B68     		ldr	r3, [r7, #4]
 2413 00b0 1B68     		ldr	r3, [r3]
 2414 00b2 5A6C     		ldr	r2, [r3, #68]
 2415 00b4 7B68     		ldr	r3, [r7, #4]
 2416 00b6 1B68     		ldr	r3, [r3]
 2417 00b8 22F40042 		bic	r2, r2, #32768
 2418 00bc 5A64     		str	r2, [r3, #68]
 2419              	.L124:
1093:Drivers/STM32L4xx_HAL_Driver/Src/stm32l4xx_hal_tim_ex.c **** 
1094:Drivers/STM32L4xx_HAL_Driver/Src/stm32l4xx_hal_tim_ex.c ****   /* Disable the Peripheral */
1095:Drivers/STM32L4xx_HAL_Driver/Src/stm32l4xx_hal_tim_ex.c ****   __HAL_TIM_DISABLE(htim);
 2420              		.loc 1 1095 3 is_stmt 1
 2421 00be 7B68     		ldr	r3, [r7, #4]
 2422 00c0 1B68     		ldr	r3, [r3]
 2423 00c2 1A6A     		ldr	r2, [r3, #32]
 2424 00c4 41F21113 		movw	r3, #4369
 2425 00c8 1340     		ands	r3, r3, r2
 2426 00ca 002B     		cmp	r3, #0
 2427 00cc 0FD1     		bne	.L125
 2428              		.loc 1 1095 3 is_stmt 0 discriminator 1
 2429 00ce 7B68     		ldr	r3, [r7, #4]
 2430 00d0 1B68     		ldr	r3, [r3]
 2431 00d2 1A6A     		ldr	r2, [r3, #32]
 2432 00d4 40F24443 		movw	r3, #1092
 2433 00d8 1340     		ands	r3, r3, r2
 2434 00da 002B     		cmp	r3, #0
 2435 00dc 07D1     		bne	.L125
 2436              		.loc 1 1095 3 discriminator 2
 2437 00de 7B68     		ldr	r3, [r7, #4]
 2438 00e0 1B68     		ldr	r3, [r3]
 2439 00e2 1A68     		ldr	r2, [r3]
 2440 00e4 7B68     		ldr	r3, [r7, #4]
 2441 00e6 1B68     		ldr	r3, [r3]
 2442 00e8 22F00102 		bic	r2, r2, #1
 2443 00ec 1A60     		str	r2, [r3]
 2444              	.L125:
1096:Drivers/STM32L4xx_HAL_Driver/Src/stm32l4xx_hal_tim_ex.c **** 
1097:Drivers/STM32L4xx_HAL_Driver/Src/stm32l4xx_hal_tim_ex.c ****   /* Return function status */
1098:Drivers/STM32L4xx_HAL_Driver/Src/stm32l4xx_hal_tim_ex.c ****   return HAL_OK;
 2445              		.loc 1 1098 10 is_stmt 1
 2446 00ee 0023     		movs	r3, #0
1099:Drivers/STM32L4xx_HAL_Driver/Src/stm32l4xx_hal_tim_ex.c **** }
 2447              		.loc 1 1099 1
 2448 00f0 1846     		mov	r0, r3
 2449 00f2 1037     		adds	r7, r7, #16
 2450              	.LCFI100:
 2451              		.cfi_def_cfa_offset 8
 2452 00f4 BD46     		mov	sp, r7
 2453              	.LCFI101:
 2454              		.cfi_def_cfa_register 13
 2455              		@ sp needed
 2456 00f6 80BD     		pop	{r7, pc}
ARM GAS  /tmp/cc9IMTcg.s 			page 64


 2457              		.cfi_endproc
 2458              	.LFE149:
 2460              		.section	.text.HAL_TIMEx_PWMN_Start_DMA,"ax",%progbits
 2461              		.align	1
 2462              		.global	HAL_TIMEx_PWMN_Start_DMA
 2463              		.syntax unified
 2464              		.thumb
 2465              		.thumb_func
 2466              		.fpu fpv4-sp-d16
 2468              	HAL_TIMEx_PWMN_Start_DMA:
 2469              	.LFB150:
1100:Drivers/STM32L4xx_HAL_Driver/Src/stm32l4xx_hal_tim_ex.c **** 
1101:Drivers/STM32L4xx_HAL_Driver/Src/stm32l4xx_hal_tim_ex.c **** /**
1102:Drivers/STM32L4xx_HAL_Driver/Src/stm32l4xx_hal_tim_ex.c ****   * @brief  Starts the TIM PWM signal generation in DMA mode on the
1103:Drivers/STM32L4xx_HAL_Driver/Src/stm32l4xx_hal_tim_ex.c ****   *         complementary output
1104:Drivers/STM32L4xx_HAL_Driver/Src/stm32l4xx_hal_tim_ex.c ****   * @param  htim TIM handle
1105:Drivers/STM32L4xx_HAL_Driver/Src/stm32l4xx_hal_tim_ex.c ****   * @param  Channel TIM Channel to be enabled
1106:Drivers/STM32L4xx_HAL_Driver/Src/stm32l4xx_hal_tim_ex.c ****   *          This parameter can be one of the following values:
1107:Drivers/STM32L4xx_HAL_Driver/Src/stm32l4xx_hal_tim_ex.c ****   *            @arg TIM_CHANNEL_1: TIM Channel 1 selected
1108:Drivers/STM32L4xx_HAL_Driver/Src/stm32l4xx_hal_tim_ex.c ****   *            @arg TIM_CHANNEL_2: TIM Channel 2 selected
1109:Drivers/STM32L4xx_HAL_Driver/Src/stm32l4xx_hal_tim_ex.c ****   *            @arg TIM_CHANNEL_3: TIM Channel 3 selected
1110:Drivers/STM32L4xx_HAL_Driver/Src/stm32l4xx_hal_tim_ex.c ****   * @param  pData The source Buffer address.
1111:Drivers/STM32L4xx_HAL_Driver/Src/stm32l4xx_hal_tim_ex.c ****   * @param  Length The length of data to be transferred from memory to TIM peripheral
1112:Drivers/STM32L4xx_HAL_Driver/Src/stm32l4xx_hal_tim_ex.c ****   * @retval HAL status
1113:Drivers/STM32L4xx_HAL_Driver/Src/stm32l4xx_hal_tim_ex.c ****   */
1114:Drivers/STM32L4xx_HAL_Driver/Src/stm32l4xx_hal_tim_ex.c **** HAL_StatusTypeDef HAL_TIMEx_PWMN_Start_DMA(TIM_HandleTypeDef *htim, uint32_t Channel, uint32_t *pDa
1115:Drivers/STM32L4xx_HAL_Driver/Src/stm32l4xx_hal_tim_ex.c **** {
 2470              		.loc 1 1115 1
 2471              		.cfi_startproc
 2472              		@ args = 0, pretend = 0, frame = 24
 2473              		@ frame_needed = 1, uses_anonymous_args = 0
 2474 0000 80B5     		push	{r7, lr}
 2475              	.LCFI102:
 2476              		.cfi_def_cfa_offset 8
 2477              		.cfi_offset 7, -8
 2478              		.cfi_offset 14, -4
 2479 0002 86B0     		sub	sp, sp, #24
 2480              	.LCFI103:
 2481              		.cfi_def_cfa_offset 32
 2482 0004 00AF     		add	r7, sp, #0
 2483              	.LCFI104:
 2484              		.cfi_def_cfa_register 7
 2485 0006 F860     		str	r0, [r7, #12]
 2486 0008 B960     		str	r1, [r7, #8]
 2487 000a 7A60     		str	r2, [r7, #4]
 2488 000c 7B80     		strh	r3, [r7, #2]	@ movhi
1116:Drivers/STM32L4xx_HAL_Driver/Src/stm32l4xx_hal_tim_ex.c ****   uint32_t tmpsmcr;
1117:Drivers/STM32L4xx_HAL_Driver/Src/stm32l4xx_hal_tim_ex.c **** 
1118:Drivers/STM32L4xx_HAL_Driver/Src/stm32l4xx_hal_tim_ex.c ****   /* Check the parameters */
1119:Drivers/STM32L4xx_HAL_Driver/Src/stm32l4xx_hal_tim_ex.c ****   assert_param(IS_TIM_CCXN_INSTANCE(htim->Instance, Channel));
1120:Drivers/STM32L4xx_HAL_Driver/Src/stm32l4xx_hal_tim_ex.c **** 
1121:Drivers/STM32L4xx_HAL_Driver/Src/stm32l4xx_hal_tim_ex.c ****   if (htim->State == HAL_TIM_STATE_BUSY)
 2489              		.loc 1 1121 11
 2490 000e FB68     		ldr	r3, [r7, #12]
 2491 0010 93F83D30 		ldrb	r3, [r3, #61]
 2492 0014 DBB2     		uxtb	r3, r3
 2493              		.loc 1 1121 6
ARM GAS  /tmp/cc9IMTcg.s 			page 65


 2494 0016 022B     		cmp	r3, #2
 2495 0018 01D1     		bne	.L129
1122:Drivers/STM32L4xx_HAL_Driver/Src/stm32l4xx_hal_tim_ex.c ****   {
1123:Drivers/STM32L4xx_HAL_Driver/Src/stm32l4xx_hal_tim_ex.c ****     return HAL_BUSY;
 2496              		.loc 1 1123 12
 2497 001a 0223     		movs	r3, #2
 2498 001c B0E0     		b	.L130
 2499              	.L129:
1124:Drivers/STM32L4xx_HAL_Driver/Src/stm32l4xx_hal_tim_ex.c ****   }
1125:Drivers/STM32L4xx_HAL_Driver/Src/stm32l4xx_hal_tim_ex.c ****   else if (htim->State == HAL_TIM_STATE_READY)
 2500              		.loc 1 1125 16
 2501 001e FB68     		ldr	r3, [r7, #12]
 2502 0020 93F83D30 		ldrb	r3, [r3, #61]
 2503 0024 DBB2     		uxtb	r3, r3
 2504              		.loc 1 1125 11
 2505 0026 012B     		cmp	r3, #1
 2506 0028 0BD1     		bne	.L131
1126:Drivers/STM32L4xx_HAL_Driver/Src/stm32l4xx_hal_tim_ex.c ****   {
1127:Drivers/STM32L4xx_HAL_Driver/Src/stm32l4xx_hal_tim_ex.c ****     if (((uint32_t)pData == 0U) && (Length > 0U))
 2507              		.loc 1 1127 8
 2508 002a 7B68     		ldr	r3, [r7, #4]
 2509 002c 002B     		cmp	r3, #0
 2510 002e 04D1     		bne	.L132
 2511              		.loc 1 1127 33 discriminator 1
 2512 0030 7B88     		ldrh	r3, [r7, #2]
 2513 0032 002B     		cmp	r3, #0
 2514 0034 01D0     		beq	.L132
1128:Drivers/STM32L4xx_HAL_Driver/Src/stm32l4xx_hal_tim_ex.c ****     {
1129:Drivers/STM32L4xx_HAL_Driver/Src/stm32l4xx_hal_tim_ex.c ****       return HAL_ERROR;
 2515              		.loc 1 1129 14
 2516 0036 0123     		movs	r3, #1
 2517 0038 A2E0     		b	.L130
 2518              	.L132:
1130:Drivers/STM32L4xx_HAL_Driver/Src/stm32l4xx_hal_tim_ex.c ****     }
1131:Drivers/STM32L4xx_HAL_Driver/Src/stm32l4xx_hal_tim_ex.c ****     else
1132:Drivers/STM32L4xx_HAL_Driver/Src/stm32l4xx_hal_tim_ex.c ****     {
1133:Drivers/STM32L4xx_HAL_Driver/Src/stm32l4xx_hal_tim_ex.c ****       htim->State = HAL_TIM_STATE_BUSY;
 2519              		.loc 1 1133 19
 2520 003a FB68     		ldr	r3, [r7, #12]
 2521 003c 0222     		movs	r2, #2
 2522 003e 83F83D20 		strb	r2, [r3, #61]
 2523              	.L131:
1134:Drivers/STM32L4xx_HAL_Driver/Src/stm32l4xx_hal_tim_ex.c ****     }
1135:Drivers/STM32L4xx_HAL_Driver/Src/stm32l4xx_hal_tim_ex.c ****   }
1136:Drivers/STM32L4xx_HAL_Driver/Src/stm32l4xx_hal_tim_ex.c ****   else
1137:Drivers/STM32L4xx_HAL_Driver/Src/stm32l4xx_hal_tim_ex.c ****   {
1138:Drivers/STM32L4xx_HAL_Driver/Src/stm32l4xx_hal_tim_ex.c ****     /* nothing to do */
1139:Drivers/STM32L4xx_HAL_Driver/Src/stm32l4xx_hal_tim_ex.c ****   }
1140:Drivers/STM32L4xx_HAL_Driver/Src/stm32l4xx_hal_tim_ex.c ****   switch (Channel)
 2524              		.loc 1 1140 3
 2525 0042 BB68     		ldr	r3, [r7, #8]
 2526 0044 082B     		cmp	r3, #8
 2527 0046 51D0     		beq	.L133
 2528 0048 BB68     		ldr	r3, [r7, #8]
 2529 004a 082B     		cmp	r3, #8
 2530 004c 72D8     		bhi	.L142
 2531 004e BB68     		ldr	r3, [r7, #8]
ARM GAS  /tmp/cc9IMTcg.s 			page 66


 2532 0050 002B     		cmp	r3, #0
 2533 0052 03D0     		beq	.L135
 2534 0054 BB68     		ldr	r3, [r7, #8]
 2535 0056 042B     		cmp	r3, #4
 2536 0058 24D0     		beq	.L136
1141:Drivers/STM32L4xx_HAL_Driver/Src/stm32l4xx_hal_tim_ex.c ****   {
1142:Drivers/STM32L4xx_HAL_Driver/Src/stm32l4xx_hal_tim_ex.c ****     case TIM_CHANNEL_1:
1143:Drivers/STM32L4xx_HAL_Driver/Src/stm32l4xx_hal_tim_ex.c ****     {
1144:Drivers/STM32L4xx_HAL_Driver/Src/stm32l4xx_hal_tim_ex.c ****       /* Set the DMA compare callbacks */
1145:Drivers/STM32L4xx_HAL_Driver/Src/stm32l4xx_hal_tim_ex.c ****       htim->hdma[TIM_DMA_ID_CC1]->XferCpltCallback = TIM_DMADelayPulseCplt;
1146:Drivers/STM32L4xx_HAL_Driver/Src/stm32l4xx_hal_tim_ex.c ****       htim->hdma[TIM_DMA_ID_CC1]->XferHalfCpltCallback = TIM_DMADelayPulseHalfCplt;
1147:Drivers/STM32L4xx_HAL_Driver/Src/stm32l4xx_hal_tim_ex.c **** 
1148:Drivers/STM32L4xx_HAL_Driver/Src/stm32l4xx_hal_tim_ex.c ****       /* Set the DMA error callback */
1149:Drivers/STM32L4xx_HAL_Driver/Src/stm32l4xx_hal_tim_ex.c ****       htim->hdma[TIM_DMA_ID_CC1]->XferErrorCallback = TIM_DMAError ;
1150:Drivers/STM32L4xx_HAL_Driver/Src/stm32l4xx_hal_tim_ex.c **** 
1151:Drivers/STM32L4xx_HAL_Driver/Src/stm32l4xx_hal_tim_ex.c ****       /* Enable the DMA channel */
1152:Drivers/STM32L4xx_HAL_Driver/Src/stm32l4xx_hal_tim_ex.c ****       if (HAL_DMA_Start_IT(htim->hdma[TIM_DMA_ID_CC1], (uint32_t)pData, (uint32_t)&htim->Instance->
1153:Drivers/STM32L4xx_HAL_Driver/Src/stm32l4xx_hal_tim_ex.c ****       {
1154:Drivers/STM32L4xx_HAL_Driver/Src/stm32l4xx_hal_tim_ex.c ****         return HAL_ERROR;
1155:Drivers/STM32L4xx_HAL_Driver/Src/stm32l4xx_hal_tim_ex.c ****       }
1156:Drivers/STM32L4xx_HAL_Driver/Src/stm32l4xx_hal_tim_ex.c ****       /* Enable the TIM Capture/Compare 1 DMA request */
1157:Drivers/STM32L4xx_HAL_Driver/Src/stm32l4xx_hal_tim_ex.c ****       __HAL_TIM_ENABLE_DMA(htim, TIM_DMA_CC1);
1158:Drivers/STM32L4xx_HAL_Driver/Src/stm32l4xx_hal_tim_ex.c ****       break;
1159:Drivers/STM32L4xx_HAL_Driver/Src/stm32l4xx_hal_tim_ex.c ****     }
1160:Drivers/STM32L4xx_HAL_Driver/Src/stm32l4xx_hal_tim_ex.c **** 
1161:Drivers/STM32L4xx_HAL_Driver/Src/stm32l4xx_hal_tim_ex.c ****     case TIM_CHANNEL_2:
1162:Drivers/STM32L4xx_HAL_Driver/Src/stm32l4xx_hal_tim_ex.c ****     {
1163:Drivers/STM32L4xx_HAL_Driver/Src/stm32l4xx_hal_tim_ex.c ****       /* Set the DMA compare callbacks */
1164:Drivers/STM32L4xx_HAL_Driver/Src/stm32l4xx_hal_tim_ex.c ****       htim->hdma[TIM_DMA_ID_CC2]->XferCpltCallback = TIM_DMADelayPulseCplt;
1165:Drivers/STM32L4xx_HAL_Driver/Src/stm32l4xx_hal_tim_ex.c ****       htim->hdma[TIM_DMA_ID_CC2]->XferHalfCpltCallback = TIM_DMADelayPulseHalfCplt;
1166:Drivers/STM32L4xx_HAL_Driver/Src/stm32l4xx_hal_tim_ex.c **** 
1167:Drivers/STM32L4xx_HAL_Driver/Src/stm32l4xx_hal_tim_ex.c ****       /* Set the DMA error callback */
1168:Drivers/STM32L4xx_HAL_Driver/Src/stm32l4xx_hal_tim_ex.c ****       htim->hdma[TIM_DMA_ID_CC2]->XferErrorCallback = TIM_DMAError ;
1169:Drivers/STM32L4xx_HAL_Driver/Src/stm32l4xx_hal_tim_ex.c **** 
1170:Drivers/STM32L4xx_HAL_Driver/Src/stm32l4xx_hal_tim_ex.c ****       /* Enable the DMA channel */
1171:Drivers/STM32L4xx_HAL_Driver/Src/stm32l4xx_hal_tim_ex.c ****       if (HAL_DMA_Start_IT(htim->hdma[TIM_DMA_ID_CC2], (uint32_t)pData, (uint32_t)&htim->Instance->
1172:Drivers/STM32L4xx_HAL_Driver/Src/stm32l4xx_hal_tim_ex.c ****       {
1173:Drivers/STM32L4xx_HAL_Driver/Src/stm32l4xx_hal_tim_ex.c ****         return HAL_ERROR;
1174:Drivers/STM32L4xx_HAL_Driver/Src/stm32l4xx_hal_tim_ex.c ****       }
1175:Drivers/STM32L4xx_HAL_Driver/Src/stm32l4xx_hal_tim_ex.c ****       /* Enable the TIM Capture/Compare 2 DMA request */
1176:Drivers/STM32L4xx_HAL_Driver/Src/stm32l4xx_hal_tim_ex.c ****       __HAL_TIM_ENABLE_DMA(htim, TIM_DMA_CC2);
1177:Drivers/STM32L4xx_HAL_Driver/Src/stm32l4xx_hal_tim_ex.c ****       break;
1178:Drivers/STM32L4xx_HAL_Driver/Src/stm32l4xx_hal_tim_ex.c ****     }
1179:Drivers/STM32L4xx_HAL_Driver/Src/stm32l4xx_hal_tim_ex.c **** 
1180:Drivers/STM32L4xx_HAL_Driver/Src/stm32l4xx_hal_tim_ex.c ****     case TIM_CHANNEL_3:
1181:Drivers/STM32L4xx_HAL_Driver/Src/stm32l4xx_hal_tim_ex.c ****     {
1182:Drivers/STM32L4xx_HAL_Driver/Src/stm32l4xx_hal_tim_ex.c ****       /* Set the DMA compare callbacks */
1183:Drivers/STM32L4xx_HAL_Driver/Src/stm32l4xx_hal_tim_ex.c ****       htim->hdma[TIM_DMA_ID_CC3]->XferCpltCallback = TIM_DMADelayPulseCplt;
1184:Drivers/STM32L4xx_HAL_Driver/Src/stm32l4xx_hal_tim_ex.c ****       htim->hdma[TIM_DMA_ID_CC3]->XferHalfCpltCallback = TIM_DMADelayPulseHalfCplt;
1185:Drivers/STM32L4xx_HAL_Driver/Src/stm32l4xx_hal_tim_ex.c **** 
1186:Drivers/STM32L4xx_HAL_Driver/Src/stm32l4xx_hal_tim_ex.c ****       /* Set the DMA error callback */
1187:Drivers/STM32L4xx_HAL_Driver/Src/stm32l4xx_hal_tim_ex.c ****       htim->hdma[TIM_DMA_ID_CC3]->XferErrorCallback = TIM_DMAError ;
1188:Drivers/STM32L4xx_HAL_Driver/Src/stm32l4xx_hal_tim_ex.c **** 
1189:Drivers/STM32L4xx_HAL_Driver/Src/stm32l4xx_hal_tim_ex.c ****       /* Enable the DMA channel */
1190:Drivers/STM32L4xx_HAL_Driver/Src/stm32l4xx_hal_tim_ex.c ****       if (HAL_DMA_Start_IT(htim->hdma[TIM_DMA_ID_CC3], (uint32_t)pData, (uint32_t)&htim->Instance->
1191:Drivers/STM32L4xx_HAL_Driver/Src/stm32l4xx_hal_tim_ex.c ****       {
1192:Drivers/STM32L4xx_HAL_Driver/Src/stm32l4xx_hal_tim_ex.c ****         return HAL_ERROR;
ARM GAS  /tmp/cc9IMTcg.s 			page 67


1193:Drivers/STM32L4xx_HAL_Driver/Src/stm32l4xx_hal_tim_ex.c ****       }
1194:Drivers/STM32L4xx_HAL_Driver/Src/stm32l4xx_hal_tim_ex.c ****       /* Enable the TIM Capture/Compare 3 DMA request */
1195:Drivers/STM32L4xx_HAL_Driver/Src/stm32l4xx_hal_tim_ex.c ****       __HAL_TIM_ENABLE_DMA(htim, TIM_DMA_CC3);
1196:Drivers/STM32L4xx_HAL_Driver/Src/stm32l4xx_hal_tim_ex.c ****       break;
1197:Drivers/STM32L4xx_HAL_Driver/Src/stm32l4xx_hal_tim_ex.c ****     }
1198:Drivers/STM32L4xx_HAL_Driver/Src/stm32l4xx_hal_tim_ex.c **** 
1199:Drivers/STM32L4xx_HAL_Driver/Src/stm32l4xx_hal_tim_ex.c ****     default:
1200:Drivers/STM32L4xx_HAL_Driver/Src/stm32l4xx_hal_tim_ex.c ****       break;
 2537              		.loc 1 1200 7
 2538 005a 6BE0     		b	.L142
 2539              	.L135:
1145:Drivers/STM32L4xx_HAL_Driver/Src/stm32l4xx_hal_tim_ex.c ****       htim->hdma[TIM_DMA_ID_CC1]->XferHalfCpltCallback = TIM_DMADelayPulseHalfCplt;
 2540              		.loc 1 1145 17
 2541 005c FB68     		ldr	r3, [r7, #12]
 2542 005e 5B6A     		ldr	r3, [r3, #36]
1145:Drivers/STM32L4xx_HAL_Driver/Src/stm32l4xx_hal_tim_ex.c ****       htim->hdma[TIM_DMA_ID_CC1]->XferHalfCpltCallback = TIM_DMADelayPulseHalfCplt;
 2543              		.loc 1 1145 52
 2544 0060 494A     		ldr	r2, .L143
 2545 0062 DA62     		str	r2, [r3, #44]
1146:Drivers/STM32L4xx_HAL_Driver/Src/stm32l4xx_hal_tim_ex.c **** 
 2546              		.loc 1 1146 17
 2547 0064 FB68     		ldr	r3, [r7, #12]
 2548 0066 5B6A     		ldr	r3, [r3, #36]
1146:Drivers/STM32L4xx_HAL_Driver/Src/stm32l4xx_hal_tim_ex.c **** 
 2549              		.loc 1 1146 56
 2550 0068 484A     		ldr	r2, .L143+4
 2551 006a 1A63     		str	r2, [r3, #48]
1149:Drivers/STM32L4xx_HAL_Driver/Src/stm32l4xx_hal_tim_ex.c **** 
 2552              		.loc 1 1149 17
 2553 006c FB68     		ldr	r3, [r7, #12]
 2554 006e 5B6A     		ldr	r3, [r3, #36]
1149:Drivers/STM32L4xx_HAL_Driver/Src/stm32l4xx_hal_tim_ex.c **** 
 2555              		.loc 1 1149 53
 2556 0070 474A     		ldr	r2, .L143+8
 2557 0072 5A63     		str	r2, [r3, #52]
1152:Drivers/STM32L4xx_HAL_Driver/Src/stm32l4xx_hal_tim_ex.c ****       {
 2558              		.loc 1 1152 11
 2559 0074 FB68     		ldr	r3, [r7, #12]
 2560 0076 586A     		ldr	r0, [r3, #36]
 2561 0078 7968     		ldr	r1, [r7, #4]
1152:Drivers/STM32L4xx_HAL_Driver/Src/stm32l4xx_hal_tim_ex.c ****       {
 2562              		.loc 1 1152 88
 2563 007a FB68     		ldr	r3, [r7, #12]
 2564 007c 1B68     		ldr	r3, [r3]
1152:Drivers/STM32L4xx_HAL_Driver/Src/stm32l4xx_hal_tim_ex.c ****       {
 2565              		.loc 1 1152 83
 2566 007e 3433     		adds	r3, r3, #52
1152:Drivers/STM32L4xx_HAL_Driver/Src/stm32l4xx_hal_tim_ex.c ****       {
 2567              		.loc 1 1152 11
 2568 0080 1A46     		mov	r2, r3
 2569 0082 7B88     		ldrh	r3, [r7, #2]
 2570 0084 FFF7FEFF 		bl	HAL_DMA_Start_IT
 2571 0088 0346     		mov	r3, r0
1152:Drivers/STM32L4xx_HAL_Driver/Src/stm32l4xx_hal_tim_ex.c ****       {
 2572              		.loc 1 1152 10
 2573 008a 002B     		cmp	r3, #0
 2574 008c 01D0     		beq	.L137
ARM GAS  /tmp/cc9IMTcg.s 			page 68


1154:Drivers/STM32L4xx_HAL_Driver/Src/stm32l4xx_hal_tim_ex.c ****       }
 2575              		.loc 1 1154 16
 2576 008e 0123     		movs	r3, #1
 2577 0090 76E0     		b	.L130
 2578              	.L137:
1157:Drivers/STM32L4xx_HAL_Driver/Src/stm32l4xx_hal_tim_ex.c ****       break;
 2579              		.loc 1 1157 7
 2580 0092 FB68     		ldr	r3, [r7, #12]
 2581 0094 1B68     		ldr	r3, [r3]
 2582 0096 DA68     		ldr	r2, [r3, #12]
 2583 0098 FB68     		ldr	r3, [r7, #12]
 2584 009a 1B68     		ldr	r3, [r3]
 2585 009c 42F40072 		orr	r2, r2, #512
 2586 00a0 DA60     		str	r2, [r3, #12]
1158:Drivers/STM32L4xx_HAL_Driver/Src/stm32l4xx_hal_tim_ex.c ****     }
 2587              		.loc 1 1158 7
 2588 00a2 48E0     		b	.L138
 2589              	.L136:
1164:Drivers/STM32L4xx_HAL_Driver/Src/stm32l4xx_hal_tim_ex.c ****       htim->hdma[TIM_DMA_ID_CC2]->XferHalfCpltCallback = TIM_DMADelayPulseHalfCplt;
 2590              		.loc 1 1164 17
 2591 00a4 FB68     		ldr	r3, [r7, #12]
 2592 00a6 9B6A     		ldr	r3, [r3, #40]
1164:Drivers/STM32L4xx_HAL_Driver/Src/stm32l4xx_hal_tim_ex.c ****       htim->hdma[TIM_DMA_ID_CC2]->XferHalfCpltCallback = TIM_DMADelayPulseHalfCplt;
 2593              		.loc 1 1164 52
 2594 00a8 374A     		ldr	r2, .L143
 2595 00aa DA62     		str	r2, [r3, #44]
1165:Drivers/STM32L4xx_HAL_Driver/Src/stm32l4xx_hal_tim_ex.c **** 
 2596              		.loc 1 1165 17
 2597 00ac FB68     		ldr	r3, [r7, #12]
 2598 00ae 9B6A     		ldr	r3, [r3, #40]
1165:Drivers/STM32L4xx_HAL_Driver/Src/stm32l4xx_hal_tim_ex.c **** 
 2599              		.loc 1 1165 56
 2600 00b0 364A     		ldr	r2, .L143+4
 2601 00b2 1A63     		str	r2, [r3, #48]
1168:Drivers/STM32L4xx_HAL_Driver/Src/stm32l4xx_hal_tim_ex.c **** 
 2602              		.loc 1 1168 17
 2603 00b4 FB68     		ldr	r3, [r7, #12]
 2604 00b6 9B6A     		ldr	r3, [r3, #40]
1168:Drivers/STM32L4xx_HAL_Driver/Src/stm32l4xx_hal_tim_ex.c **** 
 2605              		.loc 1 1168 53
 2606 00b8 354A     		ldr	r2, .L143+8
 2607 00ba 5A63     		str	r2, [r3, #52]
1171:Drivers/STM32L4xx_HAL_Driver/Src/stm32l4xx_hal_tim_ex.c ****       {
 2608              		.loc 1 1171 11
 2609 00bc FB68     		ldr	r3, [r7, #12]
 2610 00be 986A     		ldr	r0, [r3, #40]
 2611 00c0 7968     		ldr	r1, [r7, #4]
1171:Drivers/STM32L4xx_HAL_Driver/Src/stm32l4xx_hal_tim_ex.c ****       {
 2612              		.loc 1 1171 88
 2613 00c2 FB68     		ldr	r3, [r7, #12]
 2614 00c4 1B68     		ldr	r3, [r3]
1171:Drivers/STM32L4xx_HAL_Driver/Src/stm32l4xx_hal_tim_ex.c ****       {
 2615              		.loc 1 1171 83
 2616 00c6 3833     		adds	r3, r3, #56
1171:Drivers/STM32L4xx_HAL_Driver/Src/stm32l4xx_hal_tim_ex.c ****       {
 2617              		.loc 1 1171 11
 2618 00c8 1A46     		mov	r2, r3
ARM GAS  /tmp/cc9IMTcg.s 			page 69


 2619 00ca 7B88     		ldrh	r3, [r7, #2]
 2620 00cc FFF7FEFF 		bl	HAL_DMA_Start_IT
 2621 00d0 0346     		mov	r3, r0
1171:Drivers/STM32L4xx_HAL_Driver/Src/stm32l4xx_hal_tim_ex.c ****       {
 2622              		.loc 1 1171 10
 2623 00d2 002B     		cmp	r3, #0
 2624 00d4 01D0     		beq	.L139
1173:Drivers/STM32L4xx_HAL_Driver/Src/stm32l4xx_hal_tim_ex.c ****       }
 2625              		.loc 1 1173 16
 2626 00d6 0123     		movs	r3, #1
 2627 00d8 52E0     		b	.L130
 2628              	.L139:
1176:Drivers/STM32L4xx_HAL_Driver/Src/stm32l4xx_hal_tim_ex.c ****       break;
 2629              		.loc 1 1176 7
 2630 00da FB68     		ldr	r3, [r7, #12]
 2631 00dc 1B68     		ldr	r3, [r3]
 2632 00de DA68     		ldr	r2, [r3, #12]
 2633 00e0 FB68     		ldr	r3, [r7, #12]
 2634 00e2 1B68     		ldr	r3, [r3]
 2635 00e4 42F48062 		orr	r2, r2, #1024
 2636 00e8 DA60     		str	r2, [r3, #12]
1177:Drivers/STM32L4xx_HAL_Driver/Src/stm32l4xx_hal_tim_ex.c ****     }
 2637              		.loc 1 1177 7
 2638 00ea 24E0     		b	.L138
 2639              	.L133:
1183:Drivers/STM32L4xx_HAL_Driver/Src/stm32l4xx_hal_tim_ex.c ****       htim->hdma[TIM_DMA_ID_CC3]->XferHalfCpltCallback = TIM_DMADelayPulseHalfCplt;
 2640              		.loc 1 1183 17
 2641 00ec FB68     		ldr	r3, [r7, #12]
 2642 00ee DB6A     		ldr	r3, [r3, #44]
1183:Drivers/STM32L4xx_HAL_Driver/Src/stm32l4xx_hal_tim_ex.c ****       htim->hdma[TIM_DMA_ID_CC3]->XferHalfCpltCallback = TIM_DMADelayPulseHalfCplt;
 2643              		.loc 1 1183 52
 2644 00f0 254A     		ldr	r2, .L143
 2645 00f2 DA62     		str	r2, [r3, #44]
1184:Drivers/STM32L4xx_HAL_Driver/Src/stm32l4xx_hal_tim_ex.c **** 
 2646              		.loc 1 1184 17
 2647 00f4 FB68     		ldr	r3, [r7, #12]
 2648 00f6 DB6A     		ldr	r3, [r3, #44]
1184:Drivers/STM32L4xx_HAL_Driver/Src/stm32l4xx_hal_tim_ex.c **** 
 2649              		.loc 1 1184 56
 2650 00f8 244A     		ldr	r2, .L143+4
 2651 00fa 1A63     		str	r2, [r3, #48]
1187:Drivers/STM32L4xx_HAL_Driver/Src/stm32l4xx_hal_tim_ex.c **** 
 2652              		.loc 1 1187 17
 2653 00fc FB68     		ldr	r3, [r7, #12]
 2654 00fe DB6A     		ldr	r3, [r3, #44]
1187:Drivers/STM32L4xx_HAL_Driver/Src/stm32l4xx_hal_tim_ex.c **** 
 2655              		.loc 1 1187 53
 2656 0100 234A     		ldr	r2, .L143+8
 2657 0102 5A63     		str	r2, [r3, #52]
1190:Drivers/STM32L4xx_HAL_Driver/Src/stm32l4xx_hal_tim_ex.c ****       {
 2658              		.loc 1 1190 11
 2659 0104 FB68     		ldr	r3, [r7, #12]
 2660 0106 D86A     		ldr	r0, [r3, #44]
 2661 0108 7968     		ldr	r1, [r7, #4]
1190:Drivers/STM32L4xx_HAL_Driver/Src/stm32l4xx_hal_tim_ex.c ****       {
 2662              		.loc 1 1190 88
 2663 010a FB68     		ldr	r3, [r7, #12]
ARM GAS  /tmp/cc9IMTcg.s 			page 70


 2664 010c 1B68     		ldr	r3, [r3]
1190:Drivers/STM32L4xx_HAL_Driver/Src/stm32l4xx_hal_tim_ex.c ****       {
 2665              		.loc 1 1190 83
 2666 010e 3C33     		adds	r3, r3, #60
1190:Drivers/STM32L4xx_HAL_Driver/Src/stm32l4xx_hal_tim_ex.c ****       {
 2667              		.loc 1 1190 11
 2668 0110 1A46     		mov	r2, r3
 2669 0112 7B88     		ldrh	r3, [r7, #2]
 2670 0114 FFF7FEFF 		bl	HAL_DMA_Start_IT
 2671 0118 0346     		mov	r3, r0
1190:Drivers/STM32L4xx_HAL_Driver/Src/stm32l4xx_hal_tim_ex.c ****       {
 2672              		.loc 1 1190 10
 2673 011a 002B     		cmp	r3, #0
 2674 011c 01D0     		beq	.L140
1192:Drivers/STM32L4xx_HAL_Driver/Src/stm32l4xx_hal_tim_ex.c ****       }
 2675              		.loc 1 1192 16
 2676 011e 0123     		movs	r3, #1
 2677 0120 2EE0     		b	.L130
 2678              	.L140:
1195:Drivers/STM32L4xx_HAL_Driver/Src/stm32l4xx_hal_tim_ex.c ****       break;
 2679              		.loc 1 1195 7
 2680 0122 FB68     		ldr	r3, [r7, #12]
 2681 0124 1B68     		ldr	r3, [r3]
 2682 0126 DA68     		ldr	r2, [r3, #12]
 2683 0128 FB68     		ldr	r3, [r7, #12]
 2684 012a 1B68     		ldr	r3, [r3]
 2685 012c 42F40062 		orr	r2, r2, #2048
 2686 0130 DA60     		str	r2, [r3, #12]
1196:Drivers/STM32L4xx_HAL_Driver/Src/stm32l4xx_hal_tim_ex.c ****     }
 2687              		.loc 1 1196 7
 2688 0132 00E0     		b	.L138
 2689              	.L142:
 2690              		.loc 1 1200 7
 2691 0134 00BF     		nop
 2692              	.L138:
1201:Drivers/STM32L4xx_HAL_Driver/Src/stm32l4xx_hal_tim_ex.c ****   }
1202:Drivers/STM32L4xx_HAL_Driver/Src/stm32l4xx_hal_tim_ex.c **** 
1203:Drivers/STM32L4xx_HAL_Driver/Src/stm32l4xx_hal_tim_ex.c ****   /* Enable the complementary PWM output  */
1204:Drivers/STM32L4xx_HAL_Driver/Src/stm32l4xx_hal_tim_ex.c ****   TIM_CCxNChannelCmd(htim->Instance, Channel, TIM_CCxN_ENABLE);
 2693              		.loc 1 1204 3
 2694 0136 FB68     		ldr	r3, [r7, #12]
 2695 0138 1B68     		ldr	r3, [r3]
 2696 013a 0422     		movs	r2, #4
 2697 013c B968     		ldr	r1, [r7, #8]
 2698 013e 1846     		mov	r0, r3
 2699 0140 FFF7FEFF 		bl	TIM_CCxNChannelCmd
1205:Drivers/STM32L4xx_HAL_Driver/Src/stm32l4xx_hal_tim_ex.c **** 
1206:Drivers/STM32L4xx_HAL_Driver/Src/stm32l4xx_hal_tim_ex.c ****   /* Enable the Main Output */
1207:Drivers/STM32L4xx_HAL_Driver/Src/stm32l4xx_hal_tim_ex.c ****   __HAL_TIM_MOE_ENABLE(htim);
 2700              		.loc 1 1207 3
 2701 0144 FB68     		ldr	r3, [r7, #12]
 2702 0146 1B68     		ldr	r3, [r3]
 2703 0148 5A6C     		ldr	r2, [r3, #68]
 2704 014a FB68     		ldr	r3, [r7, #12]
 2705 014c 1B68     		ldr	r3, [r3]
 2706 014e 42F40042 		orr	r2, r2, #32768
 2707 0152 5A64     		str	r2, [r3, #68]
ARM GAS  /tmp/cc9IMTcg.s 			page 71


1208:Drivers/STM32L4xx_HAL_Driver/Src/stm32l4xx_hal_tim_ex.c **** 
1209:Drivers/STM32L4xx_HAL_Driver/Src/stm32l4xx_hal_tim_ex.c ****   /* Enable the Peripheral, except in trigger mode where enable is automatically done with trigger 
1210:Drivers/STM32L4xx_HAL_Driver/Src/stm32l4xx_hal_tim_ex.c ****   tmpsmcr = htim->Instance->SMCR & TIM_SMCR_SMS;
 2708              		.loc 1 1210 17
 2709 0154 FB68     		ldr	r3, [r7, #12]
 2710 0156 1B68     		ldr	r3, [r3]
 2711              		.loc 1 1210 27
 2712 0158 9A68     		ldr	r2, [r3, #8]
 2713              		.loc 1 1210 11
 2714 015a 0E4B     		ldr	r3, .L143+12
 2715 015c 1340     		ands	r3, r3, r2
 2716 015e 7B61     		str	r3, [r7, #20]
1211:Drivers/STM32L4xx_HAL_Driver/Src/stm32l4xx_hal_tim_ex.c ****   if (!IS_TIM_SLAVEMODE_TRIGGER_ENABLED(tmpsmcr))
 2717              		.loc 1 1211 6
 2718 0160 7B69     		ldr	r3, [r7, #20]
 2719 0162 062B     		cmp	r3, #6
 2720 0164 0BD0     		beq	.L141
 2721              		.loc 1 1211 7 discriminator 1
 2722 0166 7B69     		ldr	r3, [r7, #20]
 2723 0168 B3F5803F 		cmp	r3, #65536
 2724 016c 07D0     		beq	.L141
1212:Drivers/STM32L4xx_HAL_Driver/Src/stm32l4xx_hal_tim_ex.c ****   {
1213:Drivers/STM32L4xx_HAL_Driver/Src/stm32l4xx_hal_tim_ex.c ****     __HAL_TIM_ENABLE(htim);
 2725              		.loc 1 1213 5
 2726 016e FB68     		ldr	r3, [r7, #12]
 2727 0170 1B68     		ldr	r3, [r3]
 2728 0172 1A68     		ldr	r2, [r3]
 2729 0174 FB68     		ldr	r3, [r7, #12]
 2730 0176 1B68     		ldr	r3, [r3]
 2731 0178 42F00102 		orr	r2, r2, #1
 2732 017c 1A60     		str	r2, [r3]
 2733              	.L141:
1214:Drivers/STM32L4xx_HAL_Driver/Src/stm32l4xx_hal_tim_ex.c ****   }
1215:Drivers/STM32L4xx_HAL_Driver/Src/stm32l4xx_hal_tim_ex.c **** 
1216:Drivers/STM32L4xx_HAL_Driver/Src/stm32l4xx_hal_tim_ex.c ****   /* Return function status */
1217:Drivers/STM32L4xx_HAL_Driver/Src/stm32l4xx_hal_tim_ex.c ****   return HAL_OK;
 2734              		.loc 1 1217 10
 2735 017e 0023     		movs	r3, #0
 2736              	.L130:
1218:Drivers/STM32L4xx_HAL_Driver/Src/stm32l4xx_hal_tim_ex.c **** }
 2737              		.loc 1 1218 1
 2738 0180 1846     		mov	r0, r3
 2739 0182 1837     		adds	r7, r7, #24
 2740              	.LCFI105:
 2741              		.cfi_def_cfa_offset 8
 2742 0184 BD46     		mov	sp, r7
 2743              	.LCFI106:
 2744              		.cfi_def_cfa_register 13
 2745              		@ sp needed
 2746 0186 80BD     		pop	{r7, pc}
 2747              	.L144:
 2748              		.align	2
 2749              	.L143:
 2750 0188 00000000 		.word	TIM_DMADelayPulseCplt
 2751 018c 00000000 		.word	TIM_DMADelayPulseHalfCplt
 2752 0190 00000000 		.word	TIM_DMAError
 2753 0194 07000100 		.word	65543
ARM GAS  /tmp/cc9IMTcg.s 			page 72


 2754              		.cfi_endproc
 2755              	.LFE150:
 2757              		.section	.text.HAL_TIMEx_PWMN_Stop_DMA,"ax",%progbits
 2758              		.align	1
 2759              		.global	HAL_TIMEx_PWMN_Stop_DMA
 2760              		.syntax unified
 2761              		.thumb
 2762              		.thumb_func
 2763              		.fpu fpv4-sp-d16
 2765              	HAL_TIMEx_PWMN_Stop_DMA:
 2766              	.LFB151:
1219:Drivers/STM32L4xx_HAL_Driver/Src/stm32l4xx_hal_tim_ex.c **** 
1220:Drivers/STM32L4xx_HAL_Driver/Src/stm32l4xx_hal_tim_ex.c **** /**
1221:Drivers/STM32L4xx_HAL_Driver/Src/stm32l4xx_hal_tim_ex.c ****   * @brief  Stops the TIM PWM signal generation in DMA mode on the complementary
1222:Drivers/STM32L4xx_HAL_Driver/Src/stm32l4xx_hal_tim_ex.c ****   *         output
1223:Drivers/STM32L4xx_HAL_Driver/Src/stm32l4xx_hal_tim_ex.c ****   * @param  htim TIM handle
1224:Drivers/STM32L4xx_HAL_Driver/Src/stm32l4xx_hal_tim_ex.c ****   * @param  Channel TIM Channel to be disabled
1225:Drivers/STM32L4xx_HAL_Driver/Src/stm32l4xx_hal_tim_ex.c ****   *          This parameter can be one of the following values:
1226:Drivers/STM32L4xx_HAL_Driver/Src/stm32l4xx_hal_tim_ex.c ****   *            @arg TIM_CHANNEL_1: TIM Channel 1 selected
1227:Drivers/STM32L4xx_HAL_Driver/Src/stm32l4xx_hal_tim_ex.c ****   *            @arg TIM_CHANNEL_2: TIM Channel 2 selected
1228:Drivers/STM32L4xx_HAL_Driver/Src/stm32l4xx_hal_tim_ex.c ****   *            @arg TIM_CHANNEL_3: TIM Channel 3 selected
1229:Drivers/STM32L4xx_HAL_Driver/Src/stm32l4xx_hal_tim_ex.c ****   * @retval HAL status
1230:Drivers/STM32L4xx_HAL_Driver/Src/stm32l4xx_hal_tim_ex.c ****   */
1231:Drivers/STM32L4xx_HAL_Driver/Src/stm32l4xx_hal_tim_ex.c **** HAL_StatusTypeDef HAL_TIMEx_PWMN_Stop_DMA(TIM_HandleTypeDef *htim, uint32_t Channel)
1232:Drivers/STM32L4xx_HAL_Driver/Src/stm32l4xx_hal_tim_ex.c **** {
 2767              		.loc 1 1232 1
 2768              		.cfi_startproc
 2769              		@ args = 0, pretend = 0, frame = 8
 2770              		@ frame_needed = 1, uses_anonymous_args = 0
 2771 0000 80B5     		push	{r7, lr}
 2772              	.LCFI107:
 2773              		.cfi_def_cfa_offset 8
 2774              		.cfi_offset 7, -8
 2775              		.cfi_offset 14, -4
 2776 0002 82B0     		sub	sp, sp, #8
 2777              	.LCFI108:
 2778              		.cfi_def_cfa_offset 16
 2779 0004 00AF     		add	r7, sp, #0
 2780              	.LCFI109:
 2781              		.cfi_def_cfa_register 7
 2782 0006 7860     		str	r0, [r7, #4]
 2783 0008 3960     		str	r1, [r7]
1233:Drivers/STM32L4xx_HAL_Driver/Src/stm32l4xx_hal_tim_ex.c ****   /* Check the parameters */
1234:Drivers/STM32L4xx_HAL_Driver/Src/stm32l4xx_hal_tim_ex.c ****   assert_param(IS_TIM_CCXN_INSTANCE(htim->Instance, Channel));
1235:Drivers/STM32L4xx_HAL_Driver/Src/stm32l4xx_hal_tim_ex.c **** 
1236:Drivers/STM32L4xx_HAL_Driver/Src/stm32l4xx_hal_tim_ex.c ****   switch (Channel)
 2784              		.loc 1 1236 3
 2785 000a 3B68     		ldr	r3, [r7]
 2786 000c 082B     		cmp	r3, #8
 2787 000e 25D0     		beq	.L146
 2788 0010 3B68     		ldr	r3, [r7]
 2789 0012 082B     		cmp	r3, #8
 2790 0014 30D8     		bhi	.L154
 2791 0016 3B68     		ldr	r3, [r7]
 2792 0018 002B     		cmp	r3, #0
 2793 001a 03D0     		beq	.L148
 2794 001c 3B68     		ldr	r3, [r7]
ARM GAS  /tmp/cc9IMTcg.s 			page 73


 2795 001e 042B     		cmp	r3, #4
 2796 0020 0ED0     		beq	.L149
1237:Drivers/STM32L4xx_HAL_Driver/Src/stm32l4xx_hal_tim_ex.c ****   {
1238:Drivers/STM32L4xx_HAL_Driver/Src/stm32l4xx_hal_tim_ex.c ****     case TIM_CHANNEL_1:
1239:Drivers/STM32L4xx_HAL_Driver/Src/stm32l4xx_hal_tim_ex.c ****     {
1240:Drivers/STM32L4xx_HAL_Driver/Src/stm32l4xx_hal_tim_ex.c ****       /* Disable the TIM Capture/Compare 1 DMA request */
1241:Drivers/STM32L4xx_HAL_Driver/Src/stm32l4xx_hal_tim_ex.c ****       __HAL_TIM_DISABLE_DMA(htim, TIM_DMA_CC1);
1242:Drivers/STM32L4xx_HAL_Driver/Src/stm32l4xx_hal_tim_ex.c ****       (void)HAL_DMA_Abort_IT(htim->hdma[TIM_DMA_ID_CC1]);
1243:Drivers/STM32L4xx_HAL_Driver/Src/stm32l4xx_hal_tim_ex.c ****       break;
1244:Drivers/STM32L4xx_HAL_Driver/Src/stm32l4xx_hal_tim_ex.c ****     }
1245:Drivers/STM32L4xx_HAL_Driver/Src/stm32l4xx_hal_tim_ex.c **** 
1246:Drivers/STM32L4xx_HAL_Driver/Src/stm32l4xx_hal_tim_ex.c ****     case TIM_CHANNEL_2:
1247:Drivers/STM32L4xx_HAL_Driver/Src/stm32l4xx_hal_tim_ex.c ****     {
1248:Drivers/STM32L4xx_HAL_Driver/Src/stm32l4xx_hal_tim_ex.c ****       /* Disable the TIM Capture/Compare 2 DMA request */
1249:Drivers/STM32L4xx_HAL_Driver/Src/stm32l4xx_hal_tim_ex.c ****       __HAL_TIM_DISABLE_DMA(htim, TIM_DMA_CC2);
1250:Drivers/STM32L4xx_HAL_Driver/Src/stm32l4xx_hal_tim_ex.c ****       (void)HAL_DMA_Abort_IT(htim->hdma[TIM_DMA_ID_CC2]);
1251:Drivers/STM32L4xx_HAL_Driver/Src/stm32l4xx_hal_tim_ex.c ****       break;
1252:Drivers/STM32L4xx_HAL_Driver/Src/stm32l4xx_hal_tim_ex.c ****     }
1253:Drivers/STM32L4xx_HAL_Driver/Src/stm32l4xx_hal_tim_ex.c **** 
1254:Drivers/STM32L4xx_HAL_Driver/Src/stm32l4xx_hal_tim_ex.c ****     case TIM_CHANNEL_3:
1255:Drivers/STM32L4xx_HAL_Driver/Src/stm32l4xx_hal_tim_ex.c ****     {
1256:Drivers/STM32L4xx_HAL_Driver/Src/stm32l4xx_hal_tim_ex.c ****       /* Disable the TIM Capture/Compare 3 DMA request */
1257:Drivers/STM32L4xx_HAL_Driver/Src/stm32l4xx_hal_tim_ex.c ****       __HAL_TIM_DISABLE_DMA(htim, TIM_DMA_CC3);
1258:Drivers/STM32L4xx_HAL_Driver/Src/stm32l4xx_hal_tim_ex.c ****       (void)HAL_DMA_Abort_IT(htim->hdma[TIM_DMA_ID_CC3]);
1259:Drivers/STM32L4xx_HAL_Driver/Src/stm32l4xx_hal_tim_ex.c ****       break;
1260:Drivers/STM32L4xx_HAL_Driver/Src/stm32l4xx_hal_tim_ex.c ****     }
1261:Drivers/STM32L4xx_HAL_Driver/Src/stm32l4xx_hal_tim_ex.c **** 
1262:Drivers/STM32L4xx_HAL_Driver/Src/stm32l4xx_hal_tim_ex.c ****     default:
1263:Drivers/STM32L4xx_HAL_Driver/Src/stm32l4xx_hal_tim_ex.c ****       break;
 2797              		.loc 1 1263 7
 2798 0022 29E0     		b	.L154
 2799              	.L148:
1241:Drivers/STM32L4xx_HAL_Driver/Src/stm32l4xx_hal_tim_ex.c ****       (void)HAL_DMA_Abort_IT(htim->hdma[TIM_DMA_ID_CC1]);
 2800              		.loc 1 1241 7
 2801 0024 7B68     		ldr	r3, [r7, #4]
 2802 0026 1B68     		ldr	r3, [r3]
 2803 0028 DA68     		ldr	r2, [r3, #12]
 2804 002a 7B68     		ldr	r3, [r7, #4]
 2805 002c 1B68     		ldr	r3, [r3]
 2806 002e 22F40072 		bic	r2, r2, #512
 2807 0032 DA60     		str	r2, [r3, #12]
1242:Drivers/STM32L4xx_HAL_Driver/Src/stm32l4xx_hal_tim_ex.c ****       break;
 2808              		.loc 1 1242 13
 2809 0034 7B68     		ldr	r3, [r7, #4]
 2810 0036 5B6A     		ldr	r3, [r3, #36]
 2811 0038 1846     		mov	r0, r3
 2812 003a FFF7FEFF 		bl	HAL_DMA_Abort_IT
1243:Drivers/STM32L4xx_HAL_Driver/Src/stm32l4xx_hal_tim_ex.c ****     }
 2813              		.loc 1 1243 7
 2814 003e 1CE0     		b	.L150
 2815              	.L149:
1249:Drivers/STM32L4xx_HAL_Driver/Src/stm32l4xx_hal_tim_ex.c ****       (void)HAL_DMA_Abort_IT(htim->hdma[TIM_DMA_ID_CC2]);
 2816              		.loc 1 1249 7
 2817 0040 7B68     		ldr	r3, [r7, #4]
 2818 0042 1B68     		ldr	r3, [r3]
 2819 0044 DA68     		ldr	r2, [r3, #12]
 2820 0046 7B68     		ldr	r3, [r7, #4]
ARM GAS  /tmp/cc9IMTcg.s 			page 74


 2821 0048 1B68     		ldr	r3, [r3]
 2822 004a 22F48062 		bic	r2, r2, #1024
 2823 004e DA60     		str	r2, [r3, #12]
1250:Drivers/STM32L4xx_HAL_Driver/Src/stm32l4xx_hal_tim_ex.c ****       break;
 2824              		.loc 1 1250 13
 2825 0050 7B68     		ldr	r3, [r7, #4]
 2826 0052 9B6A     		ldr	r3, [r3, #40]
 2827 0054 1846     		mov	r0, r3
 2828 0056 FFF7FEFF 		bl	HAL_DMA_Abort_IT
1251:Drivers/STM32L4xx_HAL_Driver/Src/stm32l4xx_hal_tim_ex.c ****     }
 2829              		.loc 1 1251 7
 2830 005a 0EE0     		b	.L150
 2831              	.L146:
1257:Drivers/STM32L4xx_HAL_Driver/Src/stm32l4xx_hal_tim_ex.c ****       (void)HAL_DMA_Abort_IT(htim->hdma[TIM_DMA_ID_CC3]);
 2832              		.loc 1 1257 7
 2833 005c 7B68     		ldr	r3, [r7, #4]
 2834 005e 1B68     		ldr	r3, [r3]
 2835 0060 DA68     		ldr	r2, [r3, #12]
 2836 0062 7B68     		ldr	r3, [r7, #4]
 2837 0064 1B68     		ldr	r3, [r3]
 2838 0066 22F40062 		bic	r2, r2, #2048
 2839 006a DA60     		str	r2, [r3, #12]
1258:Drivers/STM32L4xx_HAL_Driver/Src/stm32l4xx_hal_tim_ex.c ****       break;
 2840              		.loc 1 1258 13
 2841 006c 7B68     		ldr	r3, [r7, #4]
 2842 006e DB6A     		ldr	r3, [r3, #44]
 2843 0070 1846     		mov	r0, r3
 2844 0072 FFF7FEFF 		bl	HAL_DMA_Abort_IT
1259:Drivers/STM32L4xx_HAL_Driver/Src/stm32l4xx_hal_tim_ex.c ****     }
 2845              		.loc 1 1259 7
 2846 0076 00E0     		b	.L150
 2847              	.L154:
 2848              		.loc 1 1263 7
 2849 0078 00BF     		nop
 2850              	.L150:
1264:Drivers/STM32L4xx_HAL_Driver/Src/stm32l4xx_hal_tim_ex.c ****   }
1265:Drivers/STM32L4xx_HAL_Driver/Src/stm32l4xx_hal_tim_ex.c **** 
1266:Drivers/STM32L4xx_HAL_Driver/Src/stm32l4xx_hal_tim_ex.c ****   /* Disable the complementary PWM output */
1267:Drivers/STM32L4xx_HAL_Driver/Src/stm32l4xx_hal_tim_ex.c ****   TIM_CCxNChannelCmd(htim->Instance, Channel, TIM_CCxN_DISABLE);
 2851              		.loc 1 1267 3
 2852 007a 7B68     		ldr	r3, [r7, #4]
 2853 007c 1B68     		ldr	r3, [r3]
 2854 007e 0022     		movs	r2, #0
 2855 0080 3968     		ldr	r1, [r7]
 2856 0082 1846     		mov	r0, r3
 2857 0084 FFF7FEFF 		bl	TIM_CCxNChannelCmd
1268:Drivers/STM32L4xx_HAL_Driver/Src/stm32l4xx_hal_tim_ex.c **** 
1269:Drivers/STM32L4xx_HAL_Driver/Src/stm32l4xx_hal_tim_ex.c ****   /* Disable the Main Output */
1270:Drivers/STM32L4xx_HAL_Driver/Src/stm32l4xx_hal_tim_ex.c ****   __HAL_TIM_MOE_DISABLE(htim);
 2858              		.loc 1 1270 3
 2859 0088 7B68     		ldr	r3, [r7, #4]
 2860 008a 1B68     		ldr	r3, [r3]
 2861 008c 1A6A     		ldr	r2, [r3, #32]
 2862 008e 41F21113 		movw	r3, #4369
 2863 0092 1340     		ands	r3, r3, r2
 2864 0094 002B     		cmp	r3, #0
 2865 0096 0FD1     		bne	.L151
ARM GAS  /tmp/cc9IMTcg.s 			page 75


 2866              		.loc 1 1270 3 is_stmt 0 discriminator 1
 2867 0098 7B68     		ldr	r3, [r7, #4]
 2868 009a 1B68     		ldr	r3, [r3]
 2869 009c 1A6A     		ldr	r2, [r3, #32]
 2870 009e 40F24443 		movw	r3, #1092
 2871 00a2 1340     		ands	r3, r3, r2
 2872 00a4 002B     		cmp	r3, #0
 2873 00a6 07D1     		bne	.L151
 2874              		.loc 1 1270 3 discriminator 2
 2875 00a8 7B68     		ldr	r3, [r7, #4]
 2876 00aa 1B68     		ldr	r3, [r3]
 2877 00ac 5A6C     		ldr	r2, [r3, #68]
 2878 00ae 7B68     		ldr	r3, [r7, #4]
 2879 00b0 1B68     		ldr	r3, [r3]
 2880 00b2 22F40042 		bic	r2, r2, #32768
 2881 00b6 5A64     		str	r2, [r3, #68]
 2882              	.L151:
1271:Drivers/STM32L4xx_HAL_Driver/Src/stm32l4xx_hal_tim_ex.c **** 
1272:Drivers/STM32L4xx_HAL_Driver/Src/stm32l4xx_hal_tim_ex.c ****   /* Disable the Peripheral */
1273:Drivers/STM32L4xx_HAL_Driver/Src/stm32l4xx_hal_tim_ex.c ****   __HAL_TIM_DISABLE(htim);
 2883              		.loc 1 1273 3 is_stmt 1
 2884 00b8 7B68     		ldr	r3, [r7, #4]
 2885 00ba 1B68     		ldr	r3, [r3]
 2886 00bc 1A6A     		ldr	r2, [r3, #32]
 2887 00be 41F21113 		movw	r3, #4369
 2888 00c2 1340     		ands	r3, r3, r2
 2889 00c4 002B     		cmp	r3, #0
 2890 00c6 0FD1     		bne	.L152
 2891              		.loc 1 1273 3 is_stmt 0 discriminator 1
 2892 00c8 7B68     		ldr	r3, [r7, #4]
 2893 00ca 1B68     		ldr	r3, [r3]
 2894 00cc 1A6A     		ldr	r2, [r3, #32]
 2895 00ce 40F24443 		movw	r3, #1092
 2896 00d2 1340     		ands	r3, r3, r2
 2897 00d4 002B     		cmp	r3, #0
 2898 00d6 07D1     		bne	.L152
 2899              		.loc 1 1273 3 discriminator 2
 2900 00d8 7B68     		ldr	r3, [r7, #4]
 2901 00da 1B68     		ldr	r3, [r3]
 2902 00dc 1A68     		ldr	r2, [r3]
 2903 00de 7B68     		ldr	r3, [r7, #4]
 2904 00e0 1B68     		ldr	r3, [r3]
 2905 00e2 22F00102 		bic	r2, r2, #1
 2906 00e6 1A60     		str	r2, [r3]
 2907              	.L152:
1274:Drivers/STM32L4xx_HAL_Driver/Src/stm32l4xx_hal_tim_ex.c **** 
1275:Drivers/STM32L4xx_HAL_Driver/Src/stm32l4xx_hal_tim_ex.c ****   /* Change the htim state */
1276:Drivers/STM32L4xx_HAL_Driver/Src/stm32l4xx_hal_tim_ex.c ****   htim->State = HAL_TIM_STATE_READY;
 2908              		.loc 1 1276 15 is_stmt 1
 2909 00e8 7B68     		ldr	r3, [r7, #4]
 2910 00ea 0122     		movs	r2, #1
 2911 00ec 83F83D20 		strb	r2, [r3, #61]
1277:Drivers/STM32L4xx_HAL_Driver/Src/stm32l4xx_hal_tim_ex.c **** 
1278:Drivers/STM32L4xx_HAL_Driver/Src/stm32l4xx_hal_tim_ex.c ****   /* Return function status */
1279:Drivers/STM32L4xx_HAL_Driver/Src/stm32l4xx_hal_tim_ex.c ****   return HAL_OK;
 2912              		.loc 1 1279 10
 2913 00f0 0023     		movs	r3, #0
ARM GAS  /tmp/cc9IMTcg.s 			page 76


1280:Drivers/STM32L4xx_HAL_Driver/Src/stm32l4xx_hal_tim_ex.c **** }
 2914              		.loc 1 1280 1
 2915 00f2 1846     		mov	r0, r3
 2916 00f4 0837     		adds	r7, r7, #8
 2917              	.LCFI110:
 2918              		.cfi_def_cfa_offset 8
 2919 00f6 BD46     		mov	sp, r7
 2920              	.LCFI111:
 2921              		.cfi_def_cfa_register 13
 2922              		@ sp needed
 2923 00f8 80BD     		pop	{r7, pc}
 2924              		.cfi_endproc
 2925              	.LFE151:
 2927              		.section	.text.HAL_TIMEx_OnePulseN_Start,"ax",%progbits
 2928              		.align	1
 2929              		.global	HAL_TIMEx_OnePulseN_Start
 2930              		.syntax unified
 2931              		.thumb
 2932              		.thumb_func
 2933              		.fpu fpv4-sp-d16
 2935              	HAL_TIMEx_OnePulseN_Start:
 2936              	.LFB152:
1281:Drivers/STM32L4xx_HAL_Driver/Src/stm32l4xx_hal_tim_ex.c **** 
1282:Drivers/STM32L4xx_HAL_Driver/Src/stm32l4xx_hal_tim_ex.c **** /**
1283:Drivers/STM32L4xx_HAL_Driver/Src/stm32l4xx_hal_tim_ex.c ****   * @}
1284:Drivers/STM32L4xx_HAL_Driver/Src/stm32l4xx_hal_tim_ex.c ****   */
1285:Drivers/STM32L4xx_HAL_Driver/Src/stm32l4xx_hal_tim_ex.c **** 
1286:Drivers/STM32L4xx_HAL_Driver/Src/stm32l4xx_hal_tim_ex.c **** /** @defgroup TIMEx_Exported_Functions_Group4 Extended Timer Complementary One Pulse functions
1287:Drivers/STM32L4xx_HAL_Driver/Src/stm32l4xx_hal_tim_ex.c ****   * @brief    Timer Complementary One Pulse functions
1288:Drivers/STM32L4xx_HAL_Driver/Src/stm32l4xx_hal_tim_ex.c ****   *
1289:Drivers/STM32L4xx_HAL_Driver/Src/stm32l4xx_hal_tim_ex.c **** @verbatim
1290:Drivers/STM32L4xx_HAL_Driver/Src/stm32l4xx_hal_tim_ex.c ****   ==============================================================================
1291:Drivers/STM32L4xx_HAL_Driver/Src/stm32l4xx_hal_tim_ex.c ****                 ##### Timer Complementary One Pulse functions #####
1292:Drivers/STM32L4xx_HAL_Driver/Src/stm32l4xx_hal_tim_ex.c ****   ==============================================================================
1293:Drivers/STM32L4xx_HAL_Driver/Src/stm32l4xx_hal_tim_ex.c ****   [..]
1294:Drivers/STM32L4xx_HAL_Driver/Src/stm32l4xx_hal_tim_ex.c ****     This section provides functions allowing to:
1295:Drivers/STM32L4xx_HAL_Driver/Src/stm32l4xx_hal_tim_ex.c ****     (+) Start the Complementary One Pulse generation.
1296:Drivers/STM32L4xx_HAL_Driver/Src/stm32l4xx_hal_tim_ex.c ****     (+) Stop the Complementary One Pulse.
1297:Drivers/STM32L4xx_HAL_Driver/Src/stm32l4xx_hal_tim_ex.c ****     (+) Start the Complementary One Pulse and enable interrupts.
1298:Drivers/STM32L4xx_HAL_Driver/Src/stm32l4xx_hal_tim_ex.c ****     (+) Stop the Complementary One Pulse and disable interrupts.
1299:Drivers/STM32L4xx_HAL_Driver/Src/stm32l4xx_hal_tim_ex.c **** 
1300:Drivers/STM32L4xx_HAL_Driver/Src/stm32l4xx_hal_tim_ex.c **** @endverbatim
1301:Drivers/STM32L4xx_HAL_Driver/Src/stm32l4xx_hal_tim_ex.c ****   * @{
1302:Drivers/STM32L4xx_HAL_Driver/Src/stm32l4xx_hal_tim_ex.c ****   */
1303:Drivers/STM32L4xx_HAL_Driver/Src/stm32l4xx_hal_tim_ex.c **** 
1304:Drivers/STM32L4xx_HAL_Driver/Src/stm32l4xx_hal_tim_ex.c **** /**
1305:Drivers/STM32L4xx_HAL_Driver/Src/stm32l4xx_hal_tim_ex.c ****   * @brief  Starts the TIM One Pulse signal generation on the complementary
1306:Drivers/STM32L4xx_HAL_Driver/Src/stm32l4xx_hal_tim_ex.c ****   *         output.
1307:Drivers/STM32L4xx_HAL_Driver/Src/stm32l4xx_hal_tim_ex.c ****   * @param  htim TIM One Pulse handle
1308:Drivers/STM32L4xx_HAL_Driver/Src/stm32l4xx_hal_tim_ex.c ****   * @param  OutputChannel TIM Channel to be enabled
1309:Drivers/STM32L4xx_HAL_Driver/Src/stm32l4xx_hal_tim_ex.c ****   *          This parameter can be one of the following values:
1310:Drivers/STM32L4xx_HAL_Driver/Src/stm32l4xx_hal_tim_ex.c ****   *            @arg TIM_CHANNEL_1: TIM Channel 1 selected
1311:Drivers/STM32L4xx_HAL_Driver/Src/stm32l4xx_hal_tim_ex.c ****   *            @arg TIM_CHANNEL_2: TIM Channel 2 selected
1312:Drivers/STM32L4xx_HAL_Driver/Src/stm32l4xx_hal_tim_ex.c ****   * @retval HAL status
1313:Drivers/STM32L4xx_HAL_Driver/Src/stm32l4xx_hal_tim_ex.c ****   */
1314:Drivers/STM32L4xx_HAL_Driver/Src/stm32l4xx_hal_tim_ex.c **** HAL_StatusTypeDef HAL_TIMEx_OnePulseN_Start(TIM_HandleTypeDef *htim, uint32_t OutputChannel)
1315:Drivers/STM32L4xx_HAL_Driver/Src/stm32l4xx_hal_tim_ex.c **** {
ARM GAS  /tmp/cc9IMTcg.s 			page 77


 2937              		.loc 1 1315 1
 2938              		.cfi_startproc
 2939              		@ args = 0, pretend = 0, frame = 8
 2940              		@ frame_needed = 1, uses_anonymous_args = 0
 2941 0000 80B5     		push	{r7, lr}
 2942              	.LCFI112:
 2943              		.cfi_def_cfa_offset 8
 2944              		.cfi_offset 7, -8
 2945              		.cfi_offset 14, -4
 2946 0002 82B0     		sub	sp, sp, #8
 2947              	.LCFI113:
 2948              		.cfi_def_cfa_offset 16
 2949 0004 00AF     		add	r7, sp, #0
 2950              	.LCFI114:
 2951              		.cfi_def_cfa_register 7
 2952 0006 7860     		str	r0, [r7, #4]
 2953 0008 3960     		str	r1, [r7]
1316:Drivers/STM32L4xx_HAL_Driver/Src/stm32l4xx_hal_tim_ex.c ****   /* Check the parameters */
1317:Drivers/STM32L4xx_HAL_Driver/Src/stm32l4xx_hal_tim_ex.c ****   assert_param(IS_TIM_CCXN_INSTANCE(htim->Instance, OutputChannel));
1318:Drivers/STM32L4xx_HAL_Driver/Src/stm32l4xx_hal_tim_ex.c **** 
1319:Drivers/STM32L4xx_HAL_Driver/Src/stm32l4xx_hal_tim_ex.c ****   /* Enable the complementary One Pulse output */
1320:Drivers/STM32L4xx_HAL_Driver/Src/stm32l4xx_hal_tim_ex.c ****   TIM_CCxNChannelCmd(htim->Instance, OutputChannel, TIM_CCxN_ENABLE);
 2954              		.loc 1 1320 3
 2955 000a 7B68     		ldr	r3, [r7, #4]
 2956 000c 1B68     		ldr	r3, [r3]
 2957 000e 0422     		movs	r2, #4
 2958 0010 3968     		ldr	r1, [r7]
 2959 0012 1846     		mov	r0, r3
 2960 0014 FFF7FEFF 		bl	TIM_CCxNChannelCmd
1321:Drivers/STM32L4xx_HAL_Driver/Src/stm32l4xx_hal_tim_ex.c **** 
1322:Drivers/STM32L4xx_HAL_Driver/Src/stm32l4xx_hal_tim_ex.c ****   /* Enable the Main Output */
1323:Drivers/STM32L4xx_HAL_Driver/Src/stm32l4xx_hal_tim_ex.c ****   __HAL_TIM_MOE_ENABLE(htim);
 2961              		.loc 1 1323 3
 2962 0018 7B68     		ldr	r3, [r7, #4]
 2963 001a 1B68     		ldr	r3, [r3]
 2964 001c 5A6C     		ldr	r2, [r3, #68]
 2965 001e 7B68     		ldr	r3, [r7, #4]
 2966 0020 1B68     		ldr	r3, [r3]
 2967 0022 42F40042 		orr	r2, r2, #32768
 2968 0026 5A64     		str	r2, [r3, #68]
1324:Drivers/STM32L4xx_HAL_Driver/Src/stm32l4xx_hal_tim_ex.c **** 
1325:Drivers/STM32L4xx_HAL_Driver/Src/stm32l4xx_hal_tim_ex.c ****   /* Return function status */
1326:Drivers/STM32L4xx_HAL_Driver/Src/stm32l4xx_hal_tim_ex.c ****   return HAL_OK;
 2969              		.loc 1 1326 10
 2970 0028 0023     		movs	r3, #0
1327:Drivers/STM32L4xx_HAL_Driver/Src/stm32l4xx_hal_tim_ex.c **** }
 2971              		.loc 1 1327 1
 2972 002a 1846     		mov	r0, r3
 2973 002c 0837     		adds	r7, r7, #8
 2974              	.LCFI115:
 2975              		.cfi_def_cfa_offset 8
 2976 002e BD46     		mov	sp, r7
 2977              	.LCFI116:
 2978              		.cfi_def_cfa_register 13
 2979              		@ sp needed
 2980 0030 80BD     		pop	{r7, pc}
 2981              		.cfi_endproc
ARM GAS  /tmp/cc9IMTcg.s 			page 78


 2982              	.LFE152:
 2984              		.section	.text.HAL_TIMEx_OnePulseN_Stop,"ax",%progbits
 2985              		.align	1
 2986              		.global	HAL_TIMEx_OnePulseN_Stop
 2987              		.syntax unified
 2988              		.thumb
 2989              		.thumb_func
 2990              		.fpu fpv4-sp-d16
 2992              	HAL_TIMEx_OnePulseN_Stop:
 2993              	.LFB153:
1328:Drivers/STM32L4xx_HAL_Driver/Src/stm32l4xx_hal_tim_ex.c **** 
1329:Drivers/STM32L4xx_HAL_Driver/Src/stm32l4xx_hal_tim_ex.c **** /**
1330:Drivers/STM32L4xx_HAL_Driver/Src/stm32l4xx_hal_tim_ex.c ****   * @brief  Stops the TIM One Pulse signal generation on the complementary
1331:Drivers/STM32L4xx_HAL_Driver/Src/stm32l4xx_hal_tim_ex.c ****   *         output.
1332:Drivers/STM32L4xx_HAL_Driver/Src/stm32l4xx_hal_tim_ex.c ****   * @param  htim TIM One Pulse handle
1333:Drivers/STM32L4xx_HAL_Driver/Src/stm32l4xx_hal_tim_ex.c ****   * @param  OutputChannel TIM Channel to be disabled
1334:Drivers/STM32L4xx_HAL_Driver/Src/stm32l4xx_hal_tim_ex.c ****   *          This parameter can be one of the following values:
1335:Drivers/STM32L4xx_HAL_Driver/Src/stm32l4xx_hal_tim_ex.c ****   *            @arg TIM_CHANNEL_1: TIM Channel 1 selected
1336:Drivers/STM32L4xx_HAL_Driver/Src/stm32l4xx_hal_tim_ex.c ****   *            @arg TIM_CHANNEL_2: TIM Channel 2 selected
1337:Drivers/STM32L4xx_HAL_Driver/Src/stm32l4xx_hal_tim_ex.c ****   * @retval HAL status
1338:Drivers/STM32L4xx_HAL_Driver/Src/stm32l4xx_hal_tim_ex.c ****   */
1339:Drivers/STM32L4xx_HAL_Driver/Src/stm32l4xx_hal_tim_ex.c **** HAL_StatusTypeDef HAL_TIMEx_OnePulseN_Stop(TIM_HandleTypeDef *htim, uint32_t OutputChannel)
1340:Drivers/STM32L4xx_HAL_Driver/Src/stm32l4xx_hal_tim_ex.c **** {
 2994              		.loc 1 1340 1
 2995              		.cfi_startproc
 2996              		@ args = 0, pretend = 0, frame = 8
 2997              		@ frame_needed = 1, uses_anonymous_args = 0
 2998 0000 80B5     		push	{r7, lr}
 2999              	.LCFI117:
 3000              		.cfi_def_cfa_offset 8
 3001              		.cfi_offset 7, -8
 3002              		.cfi_offset 14, -4
 3003 0002 82B0     		sub	sp, sp, #8
 3004              	.LCFI118:
 3005              		.cfi_def_cfa_offset 16
 3006 0004 00AF     		add	r7, sp, #0
 3007              	.LCFI119:
 3008              		.cfi_def_cfa_register 7
 3009 0006 7860     		str	r0, [r7, #4]
 3010 0008 3960     		str	r1, [r7]
1341:Drivers/STM32L4xx_HAL_Driver/Src/stm32l4xx_hal_tim_ex.c **** 
1342:Drivers/STM32L4xx_HAL_Driver/Src/stm32l4xx_hal_tim_ex.c ****   /* Check the parameters */
1343:Drivers/STM32L4xx_HAL_Driver/Src/stm32l4xx_hal_tim_ex.c ****   assert_param(IS_TIM_CCXN_INSTANCE(htim->Instance, OutputChannel));
1344:Drivers/STM32L4xx_HAL_Driver/Src/stm32l4xx_hal_tim_ex.c **** 
1345:Drivers/STM32L4xx_HAL_Driver/Src/stm32l4xx_hal_tim_ex.c ****   /* Disable the complementary One Pulse output */
1346:Drivers/STM32L4xx_HAL_Driver/Src/stm32l4xx_hal_tim_ex.c ****   TIM_CCxNChannelCmd(htim->Instance, OutputChannel, TIM_CCxN_DISABLE);
 3011              		.loc 1 1346 3
 3012 000a 7B68     		ldr	r3, [r7, #4]
 3013 000c 1B68     		ldr	r3, [r3]
 3014 000e 0022     		movs	r2, #0
 3015 0010 3968     		ldr	r1, [r7]
 3016 0012 1846     		mov	r0, r3
 3017 0014 FFF7FEFF 		bl	TIM_CCxNChannelCmd
1347:Drivers/STM32L4xx_HAL_Driver/Src/stm32l4xx_hal_tim_ex.c **** 
1348:Drivers/STM32L4xx_HAL_Driver/Src/stm32l4xx_hal_tim_ex.c ****   /* Disable the Main Output */
1349:Drivers/STM32L4xx_HAL_Driver/Src/stm32l4xx_hal_tim_ex.c ****   __HAL_TIM_MOE_DISABLE(htim);
 3018              		.loc 1 1349 3
ARM GAS  /tmp/cc9IMTcg.s 			page 79


 3019 0018 7B68     		ldr	r3, [r7, #4]
 3020 001a 1B68     		ldr	r3, [r3]
 3021 001c 1A6A     		ldr	r2, [r3, #32]
 3022 001e 41F21113 		movw	r3, #4369
 3023 0022 1340     		ands	r3, r3, r2
 3024 0024 002B     		cmp	r3, #0
 3025 0026 0FD1     		bne	.L158
 3026              		.loc 1 1349 3 is_stmt 0 discriminator 1
 3027 0028 7B68     		ldr	r3, [r7, #4]
 3028 002a 1B68     		ldr	r3, [r3]
 3029 002c 1A6A     		ldr	r2, [r3, #32]
 3030 002e 40F24443 		movw	r3, #1092
 3031 0032 1340     		ands	r3, r3, r2
 3032 0034 002B     		cmp	r3, #0
 3033 0036 07D1     		bne	.L158
 3034              		.loc 1 1349 3 discriminator 2
 3035 0038 7B68     		ldr	r3, [r7, #4]
 3036 003a 1B68     		ldr	r3, [r3]
 3037 003c 5A6C     		ldr	r2, [r3, #68]
 3038 003e 7B68     		ldr	r3, [r7, #4]
 3039 0040 1B68     		ldr	r3, [r3]
 3040 0042 22F40042 		bic	r2, r2, #32768
 3041 0046 5A64     		str	r2, [r3, #68]
 3042              	.L158:
1350:Drivers/STM32L4xx_HAL_Driver/Src/stm32l4xx_hal_tim_ex.c **** 
1351:Drivers/STM32L4xx_HAL_Driver/Src/stm32l4xx_hal_tim_ex.c ****   /* Disable the Peripheral */
1352:Drivers/STM32L4xx_HAL_Driver/Src/stm32l4xx_hal_tim_ex.c ****   __HAL_TIM_DISABLE(htim);
 3043              		.loc 1 1352 3 is_stmt 1
 3044 0048 7B68     		ldr	r3, [r7, #4]
 3045 004a 1B68     		ldr	r3, [r3]
 3046 004c 1A6A     		ldr	r2, [r3, #32]
 3047 004e 41F21113 		movw	r3, #4369
 3048 0052 1340     		ands	r3, r3, r2
 3049 0054 002B     		cmp	r3, #0
 3050 0056 0FD1     		bne	.L159
 3051              		.loc 1 1352 3 is_stmt 0 discriminator 1
 3052 0058 7B68     		ldr	r3, [r7, #4]
 3053 005a 1B68     		ldr	r3, [r3]
 3054 005c 1A6A     		ldr	r2, [r3, #32]
 3055 005e 40F24443 		movw	r3, #1092
 3056 0062 1340     		ands	r3, r3, r2
 3057 0064 002B     		cmp	r3, #0
 3058 0066 07D1     		bne	.L159
 3059              		.loc 1 1352 3 discriminator 2
 3060 0068 7B68     		ldr	r3, [r7, #4]
 3061 006a 1B68     		ldr	r3, [r3]
 3062 006c 1A68     		ldr	r2, [r3]
 3063 006e 7B68     		ldr	r3, [r7, #4]
 3064 0070 1B68     		ldr	r3, [r3]
 3065 0072 22F00102 		bic	r2, r2, #1
 3066 0076 1A60     		str	r2, [r3]
 3067              	.L159:
1353:Drivers/STM32L4xx_HAL_Driver/Src/stm32l4xx_hal_tim_ex.c **** 
1354:Drivers/STM32L4xx_HAL_Driver/Src/stm32l4xx_hal_tim_ex.c ****   /* Return function status */
1355:Drivers/STM32L4xx_HAL_Driver/Src/stm32l4xx_hal_tim_ex.c ****   return HAL_OK;
 3068              		.loc 1 1355 10 is_stmt 1
 3069 0078 0023     		movs	r3, #0
ARM GAS  /tmp/cc9IMTcg.s 			page 80


1356:Drivers/STM32L4xx_HAL_Driver/Src/stm32l4xx_hal_tim_ex.c **** }
 3070              		.loc 1 1356 1
 3071 007a 1846     		mov	r0, r3
 3072 007c 0837     		adds	r7, r7, #8
 3073              	.LCFI120:
 3074              		.cfi_def_cfa_offset 8
 3075 007e BD46     		mov	sp, r7
 3076              	.LCFI121:
 3077              		.cfi_def_cfa_register 13
 3078              		@ sp needed
 3079 0080 80BD     		pop	{r7, pc}
 3080              		.cfi_endproc
 3081              	.LFE153:
 3083              		.section	.text.HAL_TIMEx_OnePulseN_Start_IT,"ax",%progbits
 3084              		.align	1
 3085              		.global	HAL_TIMEx_OnePulseN_Start_IT
 3086              		.syntax unified
 3087              		.thumb
 3088              		.thumb_func
 3089              		.fpu fpv4-sp-d16
 3091              	HAL_TIMEx_OnePulseN_Start_IT:
 3092              	.LFB154:
1357:Drivers/STM32L4xx_HAL_Driver/Src/stm32l4xx_hal_tim_ex.c **** 
1358:Drivers/STM32L4xx_HAL_Driver/Src/stm32l4xx_hal_tim_ex.c **** /**
1359:Drivers/STM32L4xx_HAL_Driver/Src/stm32l4xx_hal_tim_ex.c ****   * @brief  Starts the TIM One Pulse signal generation in interrupt mode on the
1360:Drivers/STM32L4xx_HAL_Driver/Src/stm32l4xx_hal_tim_ex.c ****   *         complementary channel.
1361:Drivers/STM32L4xx_HAL_Driver/Src/stm32l4xx_hal_tim_ex.c ****   * @param  htim TIM One Pulse handle
1362:Drivers/STM32L4xx_HAL_Driver/Src/stm32l4xx_hal_tim_ex.c ****   * @param  OutputChannel TIM Channel to be enabled
1363:Drivers/STM32L4xx_HAL_Driver/Src/stm32l4xx_hal_tim_ex.c ****   *          This parameter can be one of the following values:
1364:Drivers/STM32L4xx_HAL_Driver/Src/stm32l4xx_hal_tim_ex.c ****   *            @arg TIM_CHANNEL_1: TIM Channel 1 selected
1365:Drivers/STM32L4xx_HAL_Driver/Src/stm32l4xx_hal_tim_ex.c ****   *            @arg TIM_CHANNEL_2: TIM Channel 2 selected
1366:Drivers/STM32L4xx_HAL_Driver/Src/stm32l4xx_hal_tim_ex.c ****   * @retval HAL status
1367:Drivers/STM32L4xx_HAL_Driver/Src/stm32l4xx_hal_tim_ex.c ****   */
1368:Drivers/STM32L4xx_HAL_Driver/Src/stm32l4xx_hal_tim_ex.c **** HAL_StatusTypeDef HAL_TIMEx_OnePulseN_Start_IT(TIM_HandleTypeDef *htim, uint32_t OutputChannel)
1369:Drivers/STM32L4xx_HAL_Driver/Src/stm32l4xx_hal_tim_ex.c **** {
 3093              		.loc 1 1369 1
 3094              		.cfi_startproc
 3095              		@ args = 0, pretend = 0, frame = 8
 3096              		@ frame_needed = 1, uses_anonymous_args = 0
 3097 0000 80B5     		push	{r7, lr}
 3098              	.LCFI122:
 3099              		.cfi_def_cfa_offset 8
 3100              		.cfi_offset 7, -8
 3101              		.cfi_offset 14, -4
 3102 0002 82B0     		sub	sp, sp, #8
 3103              	.LCFI123:
 3104              		.cfi_def_cfa_offset 16
 3105 0004 00AF     		add	r7, sp, #0
 3106              	.LCFI124:
 3107              		.cfi_def_cfa_register 7
 3108 0006 7860     		str	r0, [r7, #4]
 3109 0008 3960     		str	r1, [r7]
1370:Drivers/STM32L4xx_HAL_Driver/Src/stm32l4xx_hal_tim_ex.c ****   /* Check the parameters */
1371:Drivers/STM32L4xx_HAL_Driver/Src/stm32l4xx_hal_tim_ex.c ****   assert_param(IS_TIM_CCXN_INSTANCE(htim->Instance, OutputChannel));
1372:Drivers/STM32L4xx_HAL_Driver/Src/stm32l4xx_hal_tim_ex.c **** 
1373:Drivers/STM32L4xx_HAL_Driver/Src/stm32l4xx_hal_tim_ex.c ****   /* Enable the TIM Capture/Compare 1 interrupt */
1374:Drivers/STM32L4xx_HAL_Driver/Src/stm32l4xx_hal_tim_ex.c ****   __HAL_TIM_ENABLE_IT(htim, TIM_IT_CC1);
ARM GAS  /tmp/cc9IMTcg.s 			page 81


 3110              		.loc 1 1374 3
 3111 000a 7B68     		ldr	r3, [r7, #4]
 3112 000c 1B68     		ldr	r3, [r3]
 3113 000e DA68     		ldr	r2, [r3, #12]
 3114 0010 7B68     		ldr	r3, [r7, #4]
 3115 0012 1B68     		ldr	r3, [r3]
 3116 0014 42F00202 		orr	r2, r2, #2
 3117 0018 DA60     		str	r2, [r3, #12]
1375:Drivers/STM32L4xx_HAL_Driver/Src/stm32l4xx_hal_tim_ex.c **** 
1376:Drivers/STM32L4xx_HAL_Driver/Src/stm32l4xx_hal_tim_ex.c ****   /* Enable the TIM Capture/Compare 2 interrupt */
1377:Drivers/STM32L4xx_HAL_Driver/Src/stm32l4xx_hal_tim_ex.c ****   __HAL_TIM_ENABLE_IT(htim, TIM_IT_CC2);
 3118              		.loc 1 1377 3
 3119 001a 7B68     		ldr	r3, [r7, #4]
 3120 001c 1B68     		ldr	r3, [r3]
 3121 001e DA68     		ldr	r2, [r3, #12]
 3122 0020 7B68     		ldr	r3, [r7, #4]
 3123 0022 1B68     		ldr	r3, [r3]
 3124 0024 42F00402 		orr	r2, r2, #4
 3125 0028 DA60     		str	r2, [r3, #12]
1378:Drivers/STM32L4xx_HAL_Driver/Src/stm32l4xx_hal_tim_ex.c **** 
1379:Drivers/STM32L4xx_HAL_Driver/Src/stm32l4xx_hal_tim_ex.c ****   /* Enable the complementary One Pulse output */
1380:Drivers/STM32L4xx_HAL_Driver/Src/stm32l4xx_hal_tim_ex.c ****   TIM_CCxNChannelCmd(htim->Instance, OutputChannel, TIM_CCxN_ENABLE);
 3126              		.loc 1 1380 3
 3127 002a 7B68     		ldr	r3, [r7, #4]
 3128 002c 1B68     		ldr	r3, [r3]
 3129 002e 0422     		movs	r2, #4
 3130 0030 3968     		ldr	r1, [r7]
 3131 0032 1846     		mov	r0, r3
 3132 0034 FFF7FEFF 		bl	TIM_CCxNChannelCmd
1381:Drivers/STM32L4xx_HAL_Driver/Src/stm32l4xx_hal_tim_ex.c **** 
1382:Drivers/STM32L4xx_HAL_Driver/Src/stm32l4xx_hal_tim_ex.c ****   /* Enable the Main Output */
1383:Drivers/STM32L4xx_HAL_Driver/Src/stm32l4xx_hal_tim_ex.c ****   __HAL_TIM_MOE_ENABLE(htim);
 3133              		.loc 1 1383 3
 3134 0038 7B68     		ldr	r3, [r7, #4]
 3135 003a 1B68     		ldr	r3, [r3]
 3136 003c 5A6C     		ldr	r2, [r3, #68]
 3137 003e 7B68     		ldr	r3, [r7, #4]
 3138 0040 1B68     		ldr	r3, [r3]
 3139 0042 42F40042 		orr	r2, r2, #32768
 3140 0046 5A64     		str	r2, [r3, #68]
1384:Drivers/STM32L4xx_HAL_Driver/Src/stm32l4xx_hal_tim_ex.c **** 
1385:Drivers/STM32L4xx_HAL_Driver/Src/stm32l4xx_hal_tim_ex.c ****   /* Return function status */
1386:Drivers/STM32L4xx_HAL_Driver/Src/stm32l4xx_hal_tim_ex.c ****   return HAL_OK;
 3141              		.loc 1 1386 10
 3142 0048 0023     		movs	r3, #0
1387:Drivers/STM32L4xx_HAL_Driver/Src/stm32l4xx_hal_tim_ex.c **** }
 3143              		.loc 1 1387 1
 3144 004a 1846     		mov	r0, r3
 3145 004c 0837     		adds	r7, r7, #8
 3146              	.LCFI125:
 3147              		.cfi_def_cfa_offset 8
 3148 004e BD46     		mov	sp, r7
 3149              	.LCFI126:
 3150              		.cfi_def_cfa_register 13
 3151              		@ sp needed
 3152 0050 80BD     		pop	{r7, pc}
 3153              		.cfi_endproc
ARM GAS  /tmp/cc9IMTcg.s 			page 82


 3154              	.LFE154:
 3156              		.section	.text.HAL_TIMEx_OnePulseN_Stop_IT,"ax",%progbits
 3157              		.align	1
 3158              		.global	HAL_TIMEx_OnePulseN_Stop_IT
 3159              		.syntax unified
 3160              		.thumb
 3161              		.thumb_func
 3162              		.fpu fpv4-sp-d16
 3164              	HAL_TIMEx_OnePulseN_Stop_IT:
 3165              	.LFB155:
1388:Drivers/STM32L4xx_HAL_Driver/Src/stm32l4xx_hal_tim_ex.c **** 
1389:Drivers/STM32L4xx_HAL_Driver/Src/stm32l4xx_hal_tim_ex.c **** /**
1390:Drivers/STM32L4xx_HAL_Driver/Src/stm32l4xx_hal_tim_ex.c ****   * @brief  Stops the TIM One Pulse signal generation in interrupt mode on the
1391:Drivers/STM32L4xx_HAL_Driver/Src/stm32l4xx_hal_tim_ex.c ****   *         complementary channel.
1392:Drivers/STM32L4xx_HAL_Driver/Src/stm32l4xx_hal_tim_ex.c ****   * @param  htim TIM One Pulse handle
1393:Drivers/STM32L4xx_HAL_Driver/Src/stm32l4xx_hal_tim_ex.c ****   * @param  OutputChannel TIM Channel to be disabled
1394:Drivers/STM32L4xx_HAL_Driver/Src/stm32l4xx_hal_tim_ex.c ****   *          This parameter can be one of the following values:
1395:Drivers/STM32L4xx_HAL_Driver/Src/stm32l4xx_hal_tim_ex.c ****   *            @arg TIM_CHANNEL_1: TIM Channel 1 selected
1396:Drivers/STM32L4xx_HAL_Driver/Src/stm32l4xx_hal_tim_ex.c ****   *            @arg TIM_CHANNEL_2: TIM Channel 2 selected
1397:Drivers/STM32L4xx_HAL_Driver/Src/stm32l4xx_hal_tim_ex.c ****   * @retval HAL status
1398:Drivers/STM32L4xx_HAL_Driver/Src/stm32l4xx_hal_tim_ex.c ****   */
1399:Drivers/STM32L4xx_HAL_Driver/Src/stm32l4xx_hal_tim_ex.c **** HAL_StatusTypeDef HAL_TIMEx_OnePulseN_Stop_IT(TIM_HandleTypeDef *htim, uint32_t OutputChannel)
1400:Drivers/STM32L4xx_HAL_Driver/Src/stm32l4xx_hal_tim_ex.c **** {
 3166              		.loc 1 1400 1
 3167              		.cfi_startproc
 3168              		@ args = 0, pretend = 0, frame = 8
 3169              		@ frame_needed = 1, uses_anonymous_args = 0
 3170 0000 80B5     		push	{r7, lr}
 3171              	.LCFI127:
 3172              		.cfi_def_cfa_offset 8
 3173              		.cfi_offset 7, -8
 3174              		.cfi_offset 14, -4
 3175 0002 82B0     		sub	sp, sp, #8
 3176              	.LCFI128:
 3177              		.cfi_def_cfa_offset 16
 3178 0004 00AF     		add	r7, sp, #0
 3179              	.LCFI129:
 3180              		.cfi_def_cfa_register 7
 3181 0006 7860     		str	r0, [r7, #4]
 3182 0008 3960     		str	r1, [r7]
1401:Drivers/STM32L4xx_HAL_Driver/Src/stm32l4xx_hal_tim_ex.c ****   /* Check the parameters */
1402:Drivers/STM32L4xx_HAL_Driver/Src/stm32l4xx_hal_tim_ex.c ****   assert_param(IS_TIM_CCXN_INSTANCE(htim->Instance, OutputChannel));
1403:Drivers/STM32L4xx_HAL_Driver/Src/stm32l4xx_hal_tim_ex.c **** 
1404:Drivers/STM32L4xx_HAL_Driver/Src/stm32l4xx_hal_tim_ex.c ****   /* Disable the TIM Capture/Compare 1 interrupt */
1405:Drivers/STM32L4xx_HAL_Driver/Src/stm32l4xx_hal_tim_ex.c ****   __HAL_TIM_DISABLE_IT(htim, TIM_IT_CC1);
 3183              		.loc 1 1405 3
 3184 000a 7B68     		ldr	r3, [r7, #4]
 3185 000c 1B68     		ldr	r3, [r3]
 3186 000e DA68     		ldr	r2, [r3, #12]
 3187 0010 7B68     		ldr	r3, [r7, #4]
 3188 0012 1B68     		ldr	r3, [r3]
 3189 0014 22F00202 		bic	r2, r2, #2
 3190 0018 DA60     		str	r2, [r3, #12]
1406:Drivers/STM32L4xx_HAL_Driver/Src/stm32l4xx_hal_tim_ex.c **** 
1407:Drivers/STM32L4xx_HAL_Driver/Src/stm32l4xx_hal_tim_ex.c ****   /* Disable the TIM Capture/Compare 2 interrupt */
1408:Drivers/STM32L4xx_HAL_Driver/Src/stm32l4xx_hal_tim_ex.c ****   __HAL_TIM_DISABLE_IT(htim, TIM_IT_CC2);
 3191              		.loc 1 1408 3
ARM GAS  /tmp/cc9IMTcg.s 			page 83


 3192 001a 7B68     		ldr	r3, [r7, #4]
 3193 001c 1B68     		ldr	r3, [r3]
 3194 001e DA68     		ldr	r2, [r3, #12]
 3195 0020 7B68     		ldr	r3, [r7, #4]
 3196 0022 1B68     		ldr	r3, [r3]
 3197 0024 22F00402 		bic	r2, r2, #4
 3198 0028 DA60     		str	r2, [r3, #12]
1409:Drivers/STM32L4xx_HAL_Driver/Src/stm32l4xx_hal_tim_ex.c **** 
1410:Drivers/STM32L4xx_HAL_Driver/Src/stm32l4xx_hal_tim_ex.c ****   /* Disable the complementary One Pulse output */
1411:Drivers/STM32L4xx_HAL_Driver/Src/stm32l4xx_hal_tim_ex.c ****   TIM_CCxNChannelCmd(htim->Instance, OutputChannel, TIM_CCxN_DISABLE);
 3199              		.loc 1 1411 3
 3200 002a 7B68     		ldr	r3, [r7, #4]
 3201 002c 1B68     		ldr	r3, [r3]
 3202 002e 0022     		movs	r2, #0
 3203 0030 3968     		ldr	r1, [r7]
 3204 0032 1846     		mov	r0, r3
 3205 0034 FFF7FEFF 		bl	TIM_CCxNChannelCmd
1412:Drivers/STM32L4xx_HAL_Driver/Src/stm32l4xx_hal_tim_ex.c **** 
1413:Drivers/STM32L4xx_HAL_Driver/Src/stm32l4xx_hal_tim_ex.c ****   /* Disable the Main Output */
1414:Drivers/STM32L4xx_HAL_Driver/Src/stm32l4xx_hal_tim_ex.c ****   __HAL_TIM_MOE_DISABLE(htim);
 3206              		.loc 1 1414 3
 3207 0038 7B68     		ldr	r3, [r7, #4]
 3208 003a 1B68     		ldr	r3, [r3]
 3209 003c 1A6A     		ldr	r2, [r3, #32]
 3210 003e 41F21113 		movw	r3, #4369
 3211 0042 1340     		ands	r3, r3, r2
 3212 0044 002B     		cmp	r3, #0
 3213 0046 0FD1     		bne	.L164
 3214              		.loc 1 1414 3 is_stmt 0 discriminator 1
 3215 0048 7B68     		ldr	r3, [r7, #4]
 3216 004a 1B68     		ldr	r3, [r3]
 3217 004c 1A6A     		ldr	r2, [r3, #32]
 3218 004e 40F24443 		movw	r3, #1092
 3219 0052 1340     		ands	r3, r3, r2
 3220 0054 002B     		cmp	r3, #0
 3221 0056 07D1     		bne	.L164
 3222              		.loc 1 1414 3 discriminator 2
 3223 0058 7B68     		ldr	r3, [r7, #4]
 3224 005a 1B68     		ldr	r3, [r3]
 3225 005c 5A6C     		ldr	r2, [r3, #68]
 3226 005e 7B68     		ldr	r3, [r7, #4]
 3227 0060 1B68     		ldr	r3, [r3]
 3228 0062 22F40042 		bic	r2, r2, #32768
 3229 0066 5A64     		str	r2, [r3, #68]
 3230              	.L164:
1415:Drivers/STM32L4xx_HAL_Driver/Src/stm32l4xx_hal_tim_ex.c **** 
1416:Drivers/STM32L4xx_HAL_Driver/Src/stm32l4xx_hal_tim_ex.c ****   /* Disable the Peripheral */
1417:Drivers/STM32L4xx_HAL_Driver/Src/stm32l4xx_hal_tim_ex.c ****   __HAL_TIM_DISABLE(htim);
 3231              		.loc 1 1417 3 is_stmt 1
 3232 0068 7B68     		ldr	r3, [r7, #4]
 3233 006a 1B68     		ldr	r3, [r3]
 3234 006c 1A6A     		ldr	r2, [r3, #32]
 3235 006e 41F21113 		movw	r3, #4369
 3236 0072 1340     		ands	r3, r3, r2
 3237 0074 002B     		cmp	r3, #0
 3238 0076 0FD1     		bne	.L165
 3239              		.loc 1 1417 3 is_stmt 0 discriminator 1
ARM GAS  /tmp/cc9IMTcg.s 			page 84


 3240 0078 7B68     		ldr	r3, [r7, #4]
 3241 007a 1B68     		ldr	r3, [r3]
 3242 007c 1A6A     		ldr	r2, [r3, #32]
 3243 007e 40F24443 		movw	r3, #1092
 3244 0082 1340     		ands	r3, r3, r2
 3245 0084 002B     		cmp	r3, #0
 3246 0086 07D1     		bne	.L165
 3247              		.loc 1 1417 3 discriminator 2
 3248 0088 7B68     		ldr	r3, [r7, #4]
 3249 008a 1B68     		ldr	r3, [r3]
 3250 008c 1A68     		ldr	r2, [r3]
 3251 008e 7B68     		ldr	r3, [r7, #4]
 3252 0090 1B68     		ldr	r3, [r3]
 3253 0092 22F00102 		bic	r2, r2, #1
 3254 0096 1A60     		str	r2, [r3]
 3255              	.L165:
1418:Drivers/STM32L4xx_HAL_Driver/Src/stm32l4xx_hal_tim_ex.c **** 
1419:Drivers/STM32L4xx_HAL_Driver/Src/stm32l4xx_hal_tim_ex.c ****   /* Return function status */
1420:Drivers/STM32L4xx_HAL_Driver/Src/stm32l4xx_hal_tim_ex.c ****   return HAL_OK;
 3256              		.loc 1 1420 10 is_stmt 1
 3257 0098 0023     		movs	r3, #0
1421:Drivers/STM32L4xx_HAL_Driver/Src/stm32l4xx_hal_tim_ex.c **** }
 3258              		.loc 1 1421 1
 3259 009a 1846     		mov	r0, r3
 3260 009c 0837     		adds	r7, r7, #8
 3261              	.LCFI130:
 3262              		.cfi_def_cfa_offset 8
 3263 009e BD46     		mov	sp, r7
 3264              	.LCFI131:
 3265              		.cfi_def_cfa_register 13
 3266              		@ sp needed
 3267 00a0 80BD     		pop	{r7, pc}
 3268              		.cfi_endproc
 3269              	.LFE155:
 3271              		.section	.text.HAL_TIMEx_ConfigCommutEvent,"ax",%progbits
 3272              		.align	1
 3273              		.global	HAL_TIMEx_ConfigCommutEvent
 3274              		.syntax unified
 3275              		.thumb
 3276              		.thumb_func
 3277              		.fpu fpv4-sp-d16
 3279              	HAL_TIMEx_ConfigCommutEvent:
 3280              	.LFB156:
1422:Drivers/STM32L4xx_HAL_Driver/Src/stm32l4xx_hal_tim_ex.c **** 
1423:Drivers/STM32L4xx_HAL_Driver/Src/stm32l4xx_hal_tim_ex.c **** /**
1424:Drivers/STM32L4xx_HAL_Driver/Src/stm32l4xx_hal_tim_ex.c ****   * @}
1425:Drivers/STM32L4xx_HAL_Driver/Src/stm32l4xx_hal_tim_ex.c ****   */
1426:Drivers/STM32L4xx_HAL_Driver/Src/stm32l4xx_hal_tim_ex.c **** 
1427:Drivers/STM32L4xx_HAL_Driver/Src/stm32l4xx_hal_tim_ex.c **** /** @defgroup TIMEx_Exported_Functions_Group5 Extended Peripheral Control functions
1428:Drivers/STM32L4xx_HAL_Driver/Src/stm32l4xx_hal_tim_ex.c ****   * @brief    Peripheral Control functions
1429:Drivers/STM32L4xx_HAL_Driver/Src/stm32l4xx_hal_tim_ex.c ****   *
1430:Drivers/STM32L4xx_HAL_Driver/Src/stm32l4xx_hal_tim_ex.c **** @verbatim
1431:Drivers/STM32L4xx_HAL_Driver/Src/stm32l4xx_hal_tim_ex.c ****   ==============================================================================
1432:Drivers/STM32L4xx_HAL_Driver/Src/stm32l4xx_hal_tim_ex.c ****                     ##### Peripheral Control functions #####
1433:Drivers/STM32L4xx_HAL_Driver/Src/stm32l4xx_hal_tim_ex.c ****   ==============================================================================
1434:Drivers/STM32L4xx_HAL_Driver/Src/stm32l4xx_hal_tim_ex.c ****   [..]
1435:Drivers/STM32L4xx_HAL_Driver/Src/stm32l4xx_hal_tim_ex.c ****     This section provides functions allowing to:
ARM GAS  /tmp/cc9IMTcg.s 			page 85


1436:Drivers/STM32L4xx_HAL_Driver/Src/stm32l4xx_hal_tim_ex.c ****       (+) Configure the commutation event in case of use of the Hall sensor interface.
1437:Drivers/STM32L4xx_HAL_Driver/Src/stm32l4xx_hal_tim_ex.c ****       (+) Configure Output channels for OC and PWM mode.
1438:Drivers/STM32L4xx_HAL_Driver/Src/stm32l4xx_hal_tim_ex.c **** 
1439:Drivers/STM32L4xx_HAL_Driver/Src/stm32l4xx_hal_tim_ex.c ****       (+) Configure Complementary channels, break features and dead time.
1440:Drivers/STM32L4xx_HAL_Driver/Src/stm32l4xx_hal_tim_ex.c ****       (+) Configure Master synchronization.
1441:Drivers/STM32L4xx_HAL_Driver/Src/stm32l4xx_hal_tim_ex.c ****       (+) Configure timer remapping capabilities.
1442:Drivers/STM32L4xx_HAL_Driver/Src/stm32l4xx_hal_tim_ex.c ****       (+) Enable or disable channel grouping.
1443:Drivers/STM32L4xx_HAL_Driver/Src/stm32l4xx_hal_tim_ex.c **** 
1444:Drivers/STM32L4xx_HAL_Driver/Src/stm32l4xx_hal_tim_ex.c **** @endverbatim
1445:Drivers/STM32L4xx_HAL_Driver/Src/stm32l4xx_hal_tim_ex.c ****   * @{
1446:Drivers/STM32L4xx_HAL_Driver/Src/stm32l4xx_hal_tim_ex.c ****   */
1447:Drivers/STM32L4xx_HAL_Driver/Src/stm32l4xx_hal_tim_ex.c **** 
1448:Drivers/STM32L4xx_HAL_Driver/Src/stm32l4xx_hal_tim_ex.c **** /**
1449:Drivers/STM32L4xx_HAL_Driver/Src/stm32l4xx_hal_tim_ex.c ****   * @brief  Configure the TIM commutation event sequence.
1450:Drivers/STM32L4xx_HAL_Driver/Src/stm32l4xx_hal_tim_ex.c ****   * @note  This function is mandatory to use the commutation event in order to
1451:Drivers/STM32L4xx_HAL_Driver/Src/stm32l4xx_hal_tim_ex.c ****   *        update the configuration at each commutation detection on the TRGI input of the Timer,
1452:Drivers/STM32L4xx_HAL_Driver/Src/stm32l4xx_hal_tim_ex.c ****   *        the typical use of this feature is with the use of another Timer(interface Timer)
1453:Drivers/STM32L4xx_HAL_Driver/Src/stm32l4xx_hal_tim_ex.c ****   *        configured in Hall sensor interface, this interface Timer will generate the
1454:Drivers/STM32L4xx_HAL_Driver/Src/stm32l4xx_hal_tim_ex.c ****   *        commutation at its TRGO output (connected to Timer used in this function) each time
1455:Drivers/STM32L4xx_HAL_Driver/Src/stm32l4xx_hal_tim_ex.c ****   *        the TI1 of the Interface Timer detect a commutation at its input TI1.
1456:Drivers/STM32L4xx_HAL_Driver/Src/stm32l4xx_hal_tim_ex.c ****   * @param  htim TIM handle
1457:Drivers/STM32L4xx_HAL_Driver/Src/stm32l4xx_hal_tim_ex.c ****   * @param  InputTrigger the Internal trigger corresponding to the Timer Interfacing with the Hall 
1458:Drivers/STM32L4xx_HAL_Driver/Src/stm32l4xx_hal_tim_ex.c ****   *          This parameter can be one of the following values:
1459:Drivers/STM32L4xx_HAL_Driver/Src/stm32l4xx_hal_tim_ex.c ****   *            @arg TIM_TS_ITR0: Internal trigger 0 selected
1460:Drivers/STM32L4xx_HAL_Driver/Src/stm32l4xx_hal_tim_ex.c ****   *            @arg TIM_TS_ITR1: Internal trigger 1 selected
1461:Drivers/STM32L4xx_HAL_Driver/Src/stm32l4xx_hal_tim_ex.c ****   *            @arg TIM_TS_ITR2: Internal trigger 2 selected
1462:Drivers/STM32L4xx_HAL_Driver/Src/stm32l4xx_hal_tim_ex.c ****   *            @arg TIM_TS_ITR3: Internal trigger 3 selected
1463:Drivers/STM32L4xx_HAL_Driver/Src/stm32l4xx_hal_tim_ex.c ****   *            @arg TIM_TS_NONE: No trigger is needed
1464:Drivers/STM32L4xx_HAL_Driver/Src/stm32l4xx_hal_tim_ex.c ****   * @param  CommutationSource the Commutation Event source
1465:Drivers/STM32L4xx_HAL_Driver/Src/stm32l4xx_hal_tim_ex.c ****   *          This parameter can be one of the following values:
1466:Drivers/STM32L4xx_HAL_Driver/Src/stm32l4xx_hal_tim_ex.c ****   *            @arg TIM_COMMUTATION_TRGI: Commutation source is the TRGI of the Interface Timer
1467:Drivers/STM32L4xx_HAL_Driver/Src/stm32l4xx_hal_tim_ex.c ****   *            @arg TIM_COMMUTATION_SOFTWARE:  Commutation source is set by software using the COMG
1468:Drivers/STM32L4xx_HAL_Driver/Src/stm32l4xx_hal_tim_ex.c ****   * @retval HAL status
1469:Drivers/STM32L4xx_HAL_Driver/Src/stm32l4xx_hal_tim_ex.c ****   */
1470:Drivers/STM32L4xx_HAL_Driver/Src/stm32l4xx_hal_tim_ex.c **** HAL_StatusTypeDef HAL_TIMEx_ConfigCommutEvent(TIM_HandleTypeDef *htim, uint32_t  InputTrigger,
1471:Drivers/STM32L4xx_HAL_Driver/Src/stm32l4xx_hal_tim_ex.c ****                                               uint32_t  CommutationSource)
1472:Drivers/STM32L4xx_HAL_Driver/Src/stm32l4xx_hal_tim_ex.c **** {
 3281              		.loc 1 1472 1
 3282              		.cfi_startproc
 3283              		@ args = 0, pretend = 0, frame = 16
 3284              		@ frame_needed = 1, uses_anonymous_args = 0
 3285              		@ link register save eliminated.
 3286 0000 80B4     		push	{r7}
 3287              	.LCFI132:
 3288              		.cfi_def_cfa_offset 4
 3289              		.cfi_offset 7, -4
 3290 0002 85B0     		sub	sp, sp, #20
 3291              	.LCFI133:
 3292              		.cfi_def_cfa_offset 24
 3293 0004 00AF     		add	r7, sp, #0
 3294              	.LCFI134:
 3295              		.cfi_def_cfa_register 7
 3296 0006 F860     		str	r0, [r7, #12]
 3297 0008 B960     		str	r1, [r7, #8]
 3298 000a 7A60     		str	r2, [r7, #4]
1473:Drivers/STM32L4xx_HAL_Driver/Src/stm32l4xx_hal_tim_ex.c ****   /* Check the parameters */
1474:Drivers/STM32L4xx_HAL_Driver/Src/stm32l4xx_hal_tim_ex.c ****   assert_param(IS_TIM_COMMUTATION_EVENT_INSTANCE(htim->Instance));
ARM GAS  /tmp/cc9IMTcg.s 			page 86


1475:Drivers/STM32L4xx_HAL_Driver/Src/stm32l4xx_hal_tim_ex.c ****   assert_param(IS_TIM_INTERNAL_TRIGGEREVENT_SELECTION(InputTrigger));
1476:Drivers/STM32L4xx_HAL_Driver/Src/stm32l4xx_hal_tim_ex.c **** 
1477:Drivers/STM32L4xx_HAL_Driver/Src/stm32l4xx_hal_tim_ex.c ****   __HAL_LOCK(htim);
 3299              		.loc 1 1477 3
 3300 000c FB68     		ldr	r3, [r7, #12]
 3301 000e 93F83C30 		ldrb	r3, [r3, #60]	@ zero_extendqisi2
 3302 0012 012B     		cmp	r3, #1
 3303 0014 01D1     		bne	.L168
 3304              		.loc 1 1477 3 is_stmt 0 discriminator 1
 3305 0016 0223     		movs	r3, #2
 3306 0018 4CE0     		b	.L169
 3307              	.L168:
 3308              		.loc 1 1477 3 discriminator 2
 3309 001a FB68     		ldr	r3, [r7, #12]
 3310 001c 0122     		movs	r2, #1
 3311 001e 83F83C20 		strb	r2, [r3, #60]
1478:Drivers/STM32L4xx_HAL_Driver/Src/stm32l4xx_hal_tim_ex.c **** 
1479:Drivers/STM32L4xx_HAL_Driver/Src/stm32l4xx_hal_tim_ex.c ****   if ((InputTrigger == TIM_TS_ITR0) || (InputTrigger == TIM_TS_ITR1) ||
 3312              		.loc 1 1479 6 is_stmt 1 discriminator 2
 3313 0022 BB68     		ldr	r3, [r7, #8]
 3314 0024 002B     		cmp	r3, #0
 3315 0026 08D0     		beq	.L170
 3316              		.loc 1 1479 37 discriminator 1
 3317 0028 BB68     		ldr	r3, [r7, #8]
 3318 002a 102B     		cmp	r3, #16
 3319 002c 05D0     		beq	.L170
 3320              		.loc 1 1479 70 discriminator 2
 3321 002e BB68     		ldr	r3, [r7, #8]
 3322 0030 202B     		cmp	r3, #32
 3323 0032 02D0     		beq	.L170
1480:Drivers/STM32L4xx_HAL_Driver/Src/stm32l4xx_hal_tim_ex.c ****       (InputTrigger == TIM_TS_ITR2) || (InputTrigger == TIM_TS_ITR3))
 3324              		.loc 1 1480 37
 3325 0034 BB68     		ldr	r3, [r7, #8]
 3326 0036 302B     		cmp	r3, #48
 3327 0038 0FD1     		bne	.L171
 3328              	.L170:
1481:Drivers/STM32L4xx_HAL_Driver/Src/stm32l4xx_hal_tim_ex.c ****   {
1482:Drivers/STM32L4xx_HAL_Driver/Src/stm32l4xx_hal_tim_ex.c ****     /* Select the Input trigger */
1483:Drivers/STM32L4xx_HAL_Driver/Src/stm32l4xx_hal_tim_ex.c ****     htim->Instance->SMCR &= ~TIM_SMCR_TS;
 3329              		.loc 1 1483 9
 3330 003a FB68     		ldr	r3, [r7, #12]
 3331 003c 1B68     		ldr	r3, [r3]
 3332              		.loc 1 1483 26
 3333 003e 9A68     		ldr	r2, [r3, #8]
 3334              		.loc 1 1483 9
 3335 0040 FB68     		ldr	r3, [r7, #12]
 3336 0042 1B68     		ldr	r3, [r3]
 3337              		.loc 1 1483 26
 3338 0044 22F07002 		bic	r2, r2, #112
 3339 0048 9A60     		str	r2, [r3, #8]
1484:Drivers/STM32L4xx_HAL_Driver/Src/stm32l4xx_hal_tim_ex.c ****     htim->Instance->SMCR |= InputTrigger;
 3340              		.loc 1 1484 9
 3341 004a FB68     		ldr	r3, [r7, #12]
 3342 004c 1B68     		ldr	r3, [r3]
 3343              		.loc 1 1484 26
 3344 004e 9968     		ldr	r1, [r3, #8]
 3345              		.loc 1 1484 9
ARM GAS  /tmp/cc9IMTcg.s 			page 87


 3346 0050 FB68     		ldr	r3, [r7, #12]
 3347 0052 1B68     		ldr	r3, [r3]
 3348              		.loc 1 1484 26
 3349 0054 BA68     		ldr	r2, [r7, #8]
 3350 0056 0A43     		orrs	r2, r2, r1
 3351 0058 9A60     		str	r2, [r3, #8]
 3352              	.L171:
1485:Drivers/STM32L4xx_HAL_Driver/Src/stm32l4xx_hal_tim_ex.c ****   }
1486:Drivers/STM32L4xx_HAL_Driver/Src/stm32l4xx_hal_tim_ex.c **** 
1487:Drivers/STM32L4xx_HAL_Driver/Src/stm32l4xx_hal_tim_ex.c ****   /* Select the Capture Compare preload feature */
1488:Drivers/STM32L4xx_HAL_Driver/Src/stm32l4xx_hal_tim_ex.c ****   htim->Instance->CR2 |= TIM_CR2_CCPC;
 3353              		.loc 1 1488 7
 3354 005a FB68     		ldr	r3, [r7, #12]
 3355 005c 1B68     		ldr	r3, [r3]
 3356              		.loc 1 1488 23
 3357 005e 5A68     		ldr	r2, [r3, #4]
 3358              		.loc 1 1488 7
 3359 0060 FB68     		ldr	r3, [r7, #12]
 3360 0062 1B68     		ldr	r3, [r3]
 3361              		.loc 1 1488 23
 3362 0064 42F00102 		orr	r2, r2, #1
 3363 0068 5A60     		str	r2, [r3, #4]
1489:Drivers/STM32L4xx_HAL_Driver/Src/stm32l4xx_hal_tim_ex.c ****   /* Select the Commutation event source */
1490:Drivers/STM32L4xx_HAL_Driver/Src/stm32l4xx_hal_tim_ex.c ****   htim->Instance->CR2 &= ~TIM_CR2_CCUS;
 3364              		.loc 1 1490 7
 3365 006a FB68     		ldr	r3, [r7, #12]
 3366 006c 1B68     		ldr	r3, [r3]
 3367              		.loc 1 1490 23
 3368 006e 5A68     		ldr	r2, [r3, #4]
 3369              		.loc 1 1490 7
 3370 0070 FB68     		ldr	r3, [r7, #12]
 3371 0072 1B68     		ldr	r3, [r3]
 3372              		.loc 1 1490 23
 3373 0074 22F00402 		bic	r2, r2, #4
 3374 0078 5A60     		str	r2, [r3, #4]
1491:Drivers/STM32L4xx_HAL_Driver/Src/stm32l4xx_hal_tim_ex.c ****   htim->Instance->CR2 |= CommutationSource;
 3375              		.loc 1 1491 7
 3376 007a FB68     		ldr	r3, [r7, #12]
 3377 007c 1B68     		ldr	r3, [r3]
 3378              		.loc 1 1491 23
 3379 007e 5968     		ldr	r1, [r3, #4]
 3380              		.loc 1 1491 7
 3381 0080 FB68     		ldr	r3, [r7, #12]
 3382 0082 1B68     		ldr	r3, [r3]
 3383              		.loc 1 1491 23
 3384 0084 7A68     		ldr	r2, [r7, #4]
 3385 0086 0A43     		orrs	r2, r2, r1
 3386 0088 5A60     		str	r2, [r3, #4]
1492:Drivers/STM32L4xx_HAL_Driver/Src/stm32l4xx_hal_tim_ex.c **** 
1493:Drivers/STM32L4xx_HAL_Driver/Src/stm32l4xx_hal_tim_ex.c ****   /* Disable Commutation Interrupt */
1494:Drivers/STM32L4xx_HAL_Driver/Src/stm32l4xx_hal_tim_ex.c ****   __HAL_TIM_DISABLE_IT(htim, TIM_IT_COM);
 3387              		.loc 1 1494 3
 3388 008a FB68     		ldr	r3, [r7, #12]
 3389 008c 1B68     		ldr	r3, [r3]
 3390 008e DA68     		ldr	r2, [r3, #12]
 3391 0090 FB68     		ldr	r3, [r7, #12]
 3392 0092 1B68     		ldr	r3, [r3]
ARM GAS  /tmp/cc9IMTcg.s 			page 88


 3393 0094 22F02002 		bic	r2, r2, #32
 3394 0098 DA60     		str	r2, [r3, #12]
1495:Drivers/STM32L4xx_HAL_Driver/Src/stm32l4xx_hal_tim_ex.c **** 
1496:Drivers/STM32L4xx_HAL_Driver/Src/stm32l4xx_hal_tim_ex.c ****   /* Disable Commutation DMA request */
1497:Drivers/STM32L4xx_HAL_Driver/Src/stm32l4xx_hal_tim_ex.c ****   __HAL_TIM_DISABLE_DMA(htim, TIM_DMA_COM);
 3395              		.loc 1 1497 3
 3396 009a FB68     		ldr	r3, [r7, #12]
 3397 009c 1B68     		ldr	r3, [r3]
 3398 009e DA68     		ldr	r2, [r3, #12]
 3399 00a0 FB68     		ldr	r3, [r7, #12]
 3400 00a2 1B68     		ldr	r3, [r3]
 3401 00a4 22F40052 		bic	r2, r2, #8192
 3402 00a8 DA60     		str	r2, [r3, #12]
1498:Drivers/STM32L4xx_HAL_Driver/Src/stm32l4xx_hal_tim_ex.c **** 
1499:Drivers/STM32L4xx_HAL_Driver/Src/stm32l4xx_hal_tim_ex.c ****   __HAL_UNLOCK(htim);
 3403              		.loc 1 1499 3
 3404 00aa FB68     		ldr	r3, [r7, #12]
 3405 00ac 0022     		movs	r2, #0
 3406 00ae 83F83C20 		strb	r2, [r3, #60]
1500:Drivers/STM32L4xx_HAL_Driver/Src/stm32l4xx_hal_tim_ex.c **** 
1501:Drivers/STM32L4xx_HAL_Driver/Src/stm32l4xx_hal_tim_ex.c ****   return HAL_OK;
 3407              		.loc 1 1501 10
 3408 00b2 0023     		movs	r3, #0
 3409              	.L169:
1502:Drivers/STM32L4xx_HAL_Driver/Src/stm32l4xx_hal_tim_ex.c **** }
 3410              		.loc 1 1502 1
 3411 00b4 1846     		mov	r0, r3
 3412 00b6 1437     		adds	r7, r7, #20
 3413              	.LCFI135:
 3414              		.cfi_def_cfa_offset 4
 3415 00b8 BD46     		mov	sp, r7
 3416              	.LCFI136:
 3417              		.cfi_def_cfa_register 13
 3418              		@ sp needed
 3419 00ba 5DF8047B 		ldr	r7, [sp], #4
 3420              	.LCFI137:
 3421              		.cfi_restore 7
 3422              		.cfi_def_cfa_offset 0
 3423 00be 7047     		bx	lr
 3424              		.cfi_endproc
 3425              	.LFE156:
 3427              		.section	.text.HAL_TIMEx_ConfigCommutEvent_IT,"ax",%progbits
 3428              		.align	1
 3429              		.global	HAL_TIMEx_ConfigCommutEvent_IT
 3430              		.syntax unified
 3431              		.thumb
 3432              		.thumb_func
 3433              		.fpu fpv4-sp-d16
 3435              	HAL_TIMEx_ConfigCommutEvent_IT:
 3436              	.LFB157:
1503:Drivers/STM32L4xx_HAL_Driver/Src/stm32l4xx_hal_tim_ex.c **** 
1504:Drivers/STM32L4xx_HAL_Driver/Src/stm32l4xx_hal_tim_ex.c **** /**
1505:Drivers/STM32L4xx_HAL_Driver/Src/stm32l4xx_hal_tim_ex.c ****   * @brief  Configure the TIM commutation event sequence with interrupt.
1506:Drivers/STM32L4xx_HAL_Driver/Src/stm32l4xx_hal_tim_ex.c ****   * @note  This function is mandatory to use the commutation event in order to
1507:Drivers/STM32L4xx_HAL_Driver/Src/stm32l4xx_hal_tim_ex.c ****   *        update the configuration at each commutation detection on the TRGI input of the Timer,
1508:Drivers/STM32L4xx_HAL_Driver/Src/stm32l4xx_hal_tim_ex.c ****   *        the typical use of this feature is with the use of another Timer(interface Timer)
1509:Drivers/STM32L4xx_HAL_Driver/Src/stm32l4xx_hal_tim_ex.c ****   *        configured in Hall sensor interface, this interface Timer will generate the
ARM GAS  /tmp/cc9IMTcg.s 			page 89


1510:Drivers/STM32L4xx_HAL_Driver/Src/stm32l4xx_hal_tim_ex.c ****   *        commutation at its TRGO output (connected to Timer used in this function) each time
1511:Drivers/STM32L4xx_HAL_Driver/Src/stm32l4xx_hal_tim_ex.c ****   *        the TI1 of the Interface Timer detect a commutation at its input TI1.
1512:Drivers/STM32L4xx_HAL_Driver/Src/stm32l4xx_hal_tim_ex.c ****   * @param  htim TIM handle
1513:Drivers/STM32L4xx_HAL_Driver/Src/stm32l4xx_hal_tim_ex.c ****   * @param  InputTrigger the Internal trigger corresponding to the Timer Interfacing with the Hall 
1514:Drivers/STM32L4xx_HAL_Driver/Src/stm32l4xx_hal_tim_ex.c ****   *          This parameter can be one of the following values:
1515:Drivers/STM32L4xx_HAL_Driver/Src/stm32l4xx_hal_tim_ex.c ****   *            @arg TIM_TS_ITR0: Internal trigger 0 selected
1516:Drivers/STM32L4xx_HAL_Driver/Src/stm32l4xx_hal_tim_ex.c ****   *            @arg TIM_TS_ITR1: Internal trigger 1 selected
1517:Drivers/STM32L4xx_HAL_Driver/Src/stm32l4xx_hal_tim_ex.c ****   *            @arg TIM_TS_ITR2: Internal trigger 2 selected
1518:Drivers/STM32L4xx_HAL_Driver/Src/stm32l4xx_hal_tim_ex.c ****   *            @arg TIM_TS_ITR3: Internal trigger 3 selected
1519:Drivers/STM32L4xx_HAL_Driver/Src/stm32l4xx_hal_tim_ex.c ****   *            @arg TIM_TS_NONE: No trigger is needed
1520:Drivers/STM32L4xx_HAL_Driver/Src/stm32l4xx_hal_tim_ex.c ****   * @param  CommutationSource the Commutation Event source
1521:Drivers/STM32L4xx_HAL_Driver/Src/stm32l4xx_hal_tim_ex.c ****   *          This parameter can be one of the following values:
1522:Drivers/STM32L4xx_HAL_Driver/Src/stm32l4xx_hal_tim_ex.c ****   *            @arg TIM_COMMUTATION_TRGI: Commutation source is the TRGI of the Interface Timer
1523:Drivers/STM32L4xx_HAL_Driver/Src/stm32l4xx_hal_tim_ex.c ****   *            @arg TIM_COMMUTATION_SOFTWARE:  Commutation source is set by software using the COMG
1524:Drivers/STM32L4xx_HAL_Driver/Src/stm32l4xx_hal_tim_ex.c ****   * @retval HAL status
1525:Drivers/STM32L4xx_HAL_Driver/Src/stm32l4xx_hal_tim_ex.c ****   */
1526:Drivers/STM32L4xx_HAL_Driver/Src/stm32l4xx_hal_tim_ex.c **** HAL_StatusTypeDef HAL_TIMEx_ConfigCommutEvent_IT(TIM_HandleTypeDef *htim, uint32_t  InputTrigger,
1527:Drivers/STM32L4xx_HAL_Driver/Src/stm32l4xx_hal_tim_ex.c ****                                                  uint32_t  CommutationSource)
1528:Drivers/STM32L4xx_HAL_Driver/Src/stm32l4xx_hal_tim_ex.c **** {
 3437              		.loc 1 1528 1
 3438              		.cfi_startproc
 3439              		@ args = 0, pretend = 0, frame = 16
 3440              		@ frame_needed = 1, uses_anonymous_args = 0
 3441              		@ link register save eliminated.
 3442 0000 80B4     		push	{r7}
 3443              	.LCFI138:
 3444              		.cfi_def_cfa_offset 4
 3445              		.cfi_offset 7, -4
 3446 0002 85B0     		sub	sp, sp, #20
 3447              	.LCFI139:
 3448              		.cfi_def_cfa_offset 24
 3449 0004 00AF     		add	r7, sp, #0
 3450              	.LCFI140:
 3451              		.cfi_def_cfa_register 7
 3452 0006 F860     		str	r0, [r7, #12]
 3453 0008 B960     		str	r1, [r7, #8]
 3454 000a 7A60     		str	r2, [r7, #4]
1529:Drivers/STM32L4xx_HAL_Driver/Src/stm32l4xx_hal_tim_ex.c ****   /* Check the parameters */
1530:Drivers/STM32L4xx_HAL_Driver/Src/stm32l4xx_hal_tim_ex.c ****   assert_param(IS_TIM_COMMUTATION_EVENT_INSTANCE(htim->Instance));
1531:Drivers/STM32L4xx_HAL_Driver/Src/stm32l4xx_hal_tim_ex.c ****   assert_param(IS_TIM_INTERNAL_TRIGGEREVENT_SELECTION(InputTrigger));
1532:Drivers/STM32L4xx_HAL_Driver/Src/stm32l4xx_hal_tim_ex.c **** 
1533:Drivers/STM32L4xx_HAL_Driver/Src/stm32l4xx_hal_tim_ex.c ****   __HAL_LOCK(htim);
 3455              		.loc 1 1533 3
 3456 000c FB68     		ldr	r3, [r7, #12]
 3457 000e 93F83C30 		ldrb	r3, [r3, #60]	@ zero_extendqisi2
 3458 0012 012B     		cmp	r3, #1
 3459 0014 01D1     		bne	.L173
 3460              		.loc 1 1533 3 is_stmt 0 discriminator 1
 3461 0016 0223     		movs	r3, #2
 3462 0018 4CE0     		b	.L174
 3463              	.L173:
 3464              		.loc 1 1533 3 discriminator 2
 3465 001a FB68     		ldr	r3, [r7, #12]
 3466 001c 0122     		movs	r2, #1
 3467 001e 83F83C20 		strb	r2, [r3, #60]
1534:Drivers/STM32L4xx_HAL_Driver/Src/stm32l4xx_hal_tim_ex.c **** 
1535:Drivers/STM32L4xx_HAL_Driver/Src/stm32l4xx_hal_tim_ex.c ****   if ((InputTrigger == TIM_TS_ITR0) || (InputTrigger == TIM_TS_ITR1) ||
ARM GAS  /tmp/cc9IMTcg.s 			page 90


 3468              		.loc 1 1535 6 is_stmt 1 discriminator 2
 3469 0022 BB68     		ldr	r3, [r7, #8]
 3470 0024 002B     		cmp	r3, #0
 3471 0026 08D0     		beq	.L175
 3472              		.loc 1 1535 37 discriminator 1
 3473 0028 BB68     		ldr	r3, [r7, #8]
 3474 002a 102B     		cmp	r3, #16
 3475 002c 05D0     		beq	.L175
 3476              		.loc 1 1535 70 discriminator 2
 3477 002e BB68     		ldr	r3, [r7, #8]
 3478 0030 202B     		cmp	r3, #32
 3479 0032 02D0     		beq	.L175
1536:Drivers/STM32L4xx_HAL_Driver/Src/stm32l4xx_hal_tim_ex.c ****       (InputTrigger == TIM_TS_ITR2) || (InputTrigger == TIM_TS_ITR3))
 3480              		.loc 1 1536 37
 3481 0034 BB68     		ldr	r3, [r7, #8]
 3482 0036 302B     		cmp	r3, #48
 3483 0038 0FD1     		bne	.L176
 3484              	.L175:
1537:Drivers/STM32L4xx_HAL_Driver/Src/stm32l4xx_hal_tim_ex.c ****   {
1538:Drivers/STM32L4xx_HAL_Driver/Src/stm32l4xx_hal_tim_ex.c ****     /* Select the Input trigger */
1539:Drivers/STM32L4xx_HAL_Driver/Src/stm32l4xx_hal_tim_ex.c ****     htim->Instance->SMCR &= ~TIM_SMCR_TS;
 3485              		.loc 1 1539 9
 3486 003a FB68     		ldr	r3, [r7, #12]
 3487 003c 1B68     		ldr	r3, [r3]
 3488              		.loc 1 1539 26
 3489 003e 9A68     		ldr	r2, [r3, #8]
 3490              		.loc 1 1539 9
 3491 0040 FB68     		ldr	r3, [r7, #12]
 3492 0042 1B68     		ldr	r3, [r3]
 3493              		.loc 1 1539 26
 3494 0044 22F07002 		bic	r2, r2, #112
 3495 0048 9A60     		str	r2, [r3, #8]
1540:Drivers/STM32L4xx_HAL_Driver/Src/stm32l4xx_hal_tim_ex.c ****     htim->Instance->SMCR |= InputTrigger;
 3496              		.loc 1 1540 9
 3497 004a FB68     		ldr	r3, [r7, #12]
 3498 004c 1B68     		ldr	r3, [r3]
 3499              		.loc 1 1540 26
 3500 004e 9968     		ldr	r1, [r3, #8]
 3501              		.loc 1 1540 9
 3502 0050 FB68     		ldr	r3, [r7, #12]
 3503 0052 1B68     		ldr	r3, [r3]
 3504              		.loc 1 1540 26
 3505 0054 BA68     		ldr	r2, [r7, #8]
 3506 0056 0A43     		orrs	r2, r2, r1
 3507 0058 9A60     		str	r2, [r3, #8]
 3508              	.L176:
1541:Drivers/STM32L4xx_HAL_Driver/Src/stm32l4xx_hal_tim_ex.c ****   }
1542:Drivers/STM32L4xx_HAL_Driver/Src/stm32l4xx_hal_tim_ex.c **** 
1543:Drivers/STM32L4xx_HAL_Driver/Src/stm32l4xx_hal_tim_ex.c ****   /* Select the Capture Compare preload feature */
1544:Drivers/STM32L4xx_HAL_Driver/Src/stm32l4xx_hal_tim_ex.c ****   htim->Instance->CR2 |= TIM_CR2_CCPC;
 3509              		.loc 1 1544 7
 3510 005a FB68     		ldr	r3, [r7, #12]
 3511 005c 1B68     		ldr	r3, [r3]
 3512              		.loc 1 1544 23
 3513 005e 5A68     		ldr	r2, [r3, #4]
 3514              		.loc 1 1544 7
 3515 0060 FB68     		ldr	r3, [r7, #12]
ARM GAS  /tmp/cc9IMTcg.s 			page 91


 3516 0062 1B68     		ldr	r3, [r3]
 3517              		.loc 1 1544 23
 3518 0064 42F00102 		orr	r2, r2, #1
 3519 0068 5A60     		str	r2, [r3, #4]
1545:Drivers/STM32L4xx_HAL_Driver/Src/stm32l4xx_hal_tim_ex.c ****   /* Select the Commutation event source */
1546:Drivers/STM32L4xx_HAL_Driver/Src/stm32l4xx_hal_tim_ex.c ****   htim->Instance->CR2 &= ~TIM_CR2_CCUS;
 3520              		.loc 1 1546 7
 3521 006a FB68     		ldr	r3, [r7, #12]
 3522 006c 1B68     		ldr	r3, [r3]
 3523              		.loc 1 1546 23
 3524 006e 5A68     		ldr	r2, [r3, #4]
 3525              		.loc 1 1546 7
 3526 0070 FB68     		ldr	r3, [r7, #12]
 3527 0072 1B68     		ldr	r3, [r3]
 3528              		.loc 1 1546 23
 3529 0074 22F00402 		bic	r2, r2, #4
 3530 0078 5A60     		str	r2, [r3, #4]
1547:Drivers/STM32L4xx_HAL_Driver/Src/stm32l4xx_hal_tim_ex.c ****   htim->Instance->CR2 |= CommutationSource;
 3531              		.loc 1 1547 7
 3532 007a FB68     		ldr	r3, [r7, #12]
 3533 007c 1B68     		ldr	r3, [r3]
 3534              		.loc 1 1547 23
 3535 007e 5968     		ldr	r1, [r3, #4]
 3536              		.loc 1 1547 7
 3537 0080 FB68     		ldr	r3, [r7, #12]
 3538 0082 1B68     		ldr	r3, [r3]
 3539              		.loc 1 1547 23
 3540 0084 7A68     		ldr	r2, [r7, #4]
 3541 0086 0A43     		orrs	r2, r2, r1
 3542 0088 5A60     		str	r2, [r3, #4]
1548:Drivers/STM32L4xx_HAL_Driver/Src/stm32l4xx_hal_tim_ex.c **** 
1549:Drivers/STM32L4xx_HAL_Driver/Src/stm32l4xx_hal_tim_ex.c ****   /* Disable Commutation DMA request */
1550:Drivers/STM32L4xx_HAL_Driver/Src/stm32l4xx_hal_tim_ex.c ****   __HAL_TIM_DISABLE_DMA(htim, TIM_DMA_COM);
 3543              		.loc 1 1550 3
 3544 008a FB68     		ldr	r3, [r7, #12]
 3545 008c 1B68     		ldr	r3, [r3]
 3546 008e DA68     		ldr	r2, [r3, #12]
 3547 0090 FB68     		ldr	r3, [r7, #12]
 3548 0092 1B68     		ldr	r3, [r3]
 3549 0094 22F40052 		bic	r2, r2, #8192
 3550 0098 DA60     		str	r2, [r3, #12]
1551:Drivers/STM32L4xx_HAL_Driver/Src/stm32l4xx_hal_tim_ex.c **** 
1552:Drivers/STM32L4xx_HAL_Driver/Src/stm32l4xx_hal_tim_ex.c ****   /* Enable the Commutation Interrupt */
1553:Drivers/STM32L4xx_HAL_Driver/Src/stm32l4xx_hal_tim_ex.c ****   __HAL_TIM_ENABLE_IT(htim, TIM_IT_COM);
 3551              		.loc 1 1553 3
 3552 009a FB68     		ldr	r3, [r7, #12]
 3553 009c 1B68     		ldr	r3, [r3]
 3554 009e DA68     		ldr	r2, [r3, #12]
 3555 00a0 FB68     		ldr	r3, [r7, #12]
 3556 00a2 1B68     		ldr	r3, [r3]
 3557 00a4 42F02002 		orr	r2, r2, #32
 3558 00a8 DA60     		str	r2, [r3, #12]
1554:Drivers/STM32L4xx_HAL_Driver/Src/stm32l4xx_hal_tim_ex.c **** 
1555:Drivers/STM32L4xx_HAL_Driver/Src/stm32l4xx_hal_tim_ex.c ****   __HAL_UNLOCK(htim);
 3559              		.loc 1 1555 3
 3560 00aa FB68     		ldr	r3, [r7, #12]
 3561 00ac 0022     		movs	r2, #0
ARM GAS  /tmp/cc9IMTcg.s 			page 92


 3562 00ae 83F83C20 		strb	r2, [r3, #60]
1556:Drivers/STM32L4xx_HAL_Driver/Src/stm32l4xx_hal_tim_ex.c **** 
1557:Drivers/STM32L4xx_HAL_Driver/Src/stm32l4xx_hal_tim_ex.c ****   return HAL_OK;
 3563              		.loc 1 1557 10
 3564 00b2 0023     		movs	r3, #0
 3565              	.L174:
1558:Drivers/STM32L4xx_HAL_Driver/Src/stm32l4xx_hal_tim_ex.c **** }
 3566              		.loc 1 1558 1
 3567 00b4 1846     		mov	r0, r3
 3568 00b6 1437     		adds	r7, r7, #20
 3569              	.LCFI141:
 3570              		.cfi_def_cfa_offset 4
 3571 00b8 BD46     		mov	sp, r7
 3572              	.LCFI142:
 3573              		.cfi_def_cfa_register 13
 3574              		@ sp needed
 3575 00ba 5DF8047B 		ldr	r7, [sp], #4
 3576              	.LCFI143:
 3577              		.cfi_restore 7
 3578              		.cfi_def_cfa_offset 0
 3579 00be 7047     		bx	lr
 3580              		.cfi_endproc
 3581              	.LFE157:
 3583              		.section	.text.HAL_TIMEx_ConfigCommutEvent_DMA,"ax",%progbits
 3584              		.align	1
 3585              		.global	HAL_TIMEx_ConfigCommutEvent_DMA
 3586              		.syntax unified
 3587              		.thumb
 3588              		.thumb_func
 3589              		.fpu fpv4-sp-d16
 3591              	HAL_TIMEx_ConfigCommutEvent_DMA:
 3592              	.LFB158:
1559:Drivers/STM32L4xx_HAL_Driver/Src/stm32l4xx_hal_tim_ex.c **** 
1560:Drivers/STM32L4xx_HAL_Driver/Src/stm32l4xx_hal_tim_ex.c **** /**
1561:Drivers/STM32L4xx_HAL_Driver/Src/stm32l4xx_hal_tim_ex.c ****   * @brief  Configure the TIM commutation event sequence with DMA.
1562:Drivers/STM32L4xx_HAL_Driver/Src/stm32l4xx_hal_tim_ex.c ****   * @note  This function is mandatory to use the commutation event in order to
1563:Drivers/STM32L4xx_HAL_Driver/Src/stm32l4xx_hal_tim_ex.c ****   *        update the configuration at each commutation detection on the TRGI input of the Timer,
1564:Drivers/STM32L4xx_HAL_Driver/Src/stm32l4xx_hal_tim_ex.c ****   *        the typical use of this feature is with the use of another Timer(interface Timer)
1565:Drivers/STM32L4xx_HAL_Driver/Src/stm32l4xx_hal_tim_ex.c ****   *        configured in Hall sensor interface, this interface Timer will generate the
1566:Drivers/STM32L4xx_HAL_Driver/Src/stm32l4xx_hal_tim_ex.c ****   *        commutation at its TRGO output (connected to Timer used in this function) each time
1567:Drivers/STM32L4xx_HAL_Driver/Src/stm32l4xx_hal_tim_ex.c ****   *        the TI1 of the Interface Timer detect a commutation at its input TI1.
1568:Drivers/STM32L4xx_HAL_Driver/Src/stm32l4xx_hal_tim_ex.c ****   * @note  The user should configure the DMA in his own software, in This function only the COMDE b
1569:Drivers/STM32L4xx_HAL_Driver/Src/stm32l4xx_hal_tim_ex.c ****   * @param  htim TIM handle
1570:Drivers/STM32L4xx_HAL_Driver/Src/stm32l4xx_hal_tim_ex.c ****   * @param  InputTrigger the Internal trigger corresponding to the Timer Interfacing with the Hall 
1571:Drivers/STM32L4xx_HAL_Driver/Src/stm32l4xx_hal_tim_ex.c ****   *          This parameter can be one of the following values:
1572:Drivers/STM32L4xx_HAL_Driver/Src/stm32l4xx_hal_tim_ex.c ****   *            @arg TIM_TS_ITR0: Internal trigger 0 selected
1573:Drivers/STM32L4xx_HAL_Driver/Src/stm32l4xx_hal_tim_ex.c ****   *            @arg TIM_TS_ITR1: Internal trigger 1 selected
1574:Drivers/STM32L4xx_HAL_Driver/Src/stm32l4xx_hal_tim_ex.c ****   *            @arg TIM_TS_ITR2: Internal trigger 2 selected
1575:Drivers/STM32L4xx_HAL_Driver/Src/stm32l4xx_hal_tim_ex.c ****   *            @arg TIM_TS_ITR3: Internal trigger 3 selected
1576:Drivers/STM32L4xx_HAL_Driver/Src/stm32l4xx_hal_tim_ex.c ****   *            @arg TIM_TS_NONE: No trigger is needed
1577:Drivers/STM32L4xx_HAL_Driver/Src/stm32l4xx_hal_tim_ex.c ****   * @param  CommutationSource the Commutation Event source
1578:Drivers/STM32L4xx_HAL_Driver/Src/stm32l4xx_hal_tim_ex.c ****   *          This parameter can be one of the following values:
1579:Drivers/STM32L4xx_HAL_Driver/Src/stm32l4xx_hal_tim_ex.c ****   *            @arg TIM_COMMUTATION_TRGI: Commutation source is the TRGI of the Interface Timer
1580:Drivers/STM32L4xx_HAL_Driver/Src/stm32l4xx_hal_tim_ex.c ****   *            @arg TIM_COMMUTATION_SOFTWARE:  Commutation source is set by software using the COMG
1581:Drivers/STM32L4xx_HAL_Driver/Src/stm32l4xx_hal_tim_ex.c ****   * @retval HAL status
1582:Drivers/STM32L4xx_HAL_Driver/Src/stm32l4xx_hal_tim_ex.c ****   */
1583:Drivers/STM32L4xx_HAL_Driver/Src/stm32l4xx_hal_tim_ex.c **** HAL_StatusTypeDef HAL_TIMEx_ConfigCommutEvent_DMA(TIM_HandleTypeDef *htim, uint32_t  InputTrigger,
ARM GAS  /tmp/cc9IMTcg.s 			page 93


1584:Drivers/STM32L4xx_HAL_Driver/Src/stm32l4xx_hal_tim_ex.c ****                                                   uint32_t  CommutationSource)
1585:Drivers/STM32L4xx_HAL_Driver/Src/stm32l4xx_hal_tim_ex.c **** {
 3593              		.loc 1 1585 1
 3594              		.cfi_startproc
 3595              		@ args = 0, pretend = 0, frame = 16
 3596              		@ frame_needed = 1, uses_anonymous_args = 0
 3597              		@ link register save eliminated.
 3598 0000 80B4     		push	{r7}
 3599              	.LCFI144:
 3600              		.cfi_def_cfa_offset 4
 3601              		.cfi_offset 7, -4
 3602 0002 85B0     		sub	sp, sp, #20
 3603              	.LCFI145:
 3604              		.cfi_def_cfa_offset 24
 3605 0004 00AF     		add	r7, sp, #0
 3606              	.LCFI146:
 3607              		.cfi_def_cfa_register 7
 3608 0006 F860     		str	r0, [r7, #12]
 3609 0008 B960     		str	r1, [r7, #8]
 3610 000a 7A60     		str	r2, [r7, #4]
1586:Drivers/STM32L4xx_HAL_Driver/Src/stm32l4xx_hal_tim_ex.c ****   /* Check the parameters */
1587:Drivers/STM32L4xx_HAL_Driver/Src/stm32l4xx_hal_tim_ex.c ****   assert_param(IS_TIM_COMMUTATION_EVENT_INSTANCE(htim->Instance));
1588:Drivers/STM32L4xx_HAL_Driver/Src/stm32l4xx_hal_tim_ex.c ****   assert_param(IS_TIM_INTERNAL_TRIGGEREVENT_SELECTION(InputTrigger));
1589:Drivers/STM32L4xx_HAL_Driver/Src/stm32l4xx_hal_tim_ex.c **** 
1590:Drivers/STM32L4xx_HAL_Driver/Src/stm32l4xx_hal_tim_ex.c ****   __HAL_LOCK(htim);
 3611              		.loc 1 1590 3
 3612 000c FB68     		ldr	r3, [r7, #12]
 3613 000e 93F83C30 		ldrb	r3, [r3, #60]	@ zero_extendqisi2
 3614 0012 012B     		cmp	r3, #1
 3615 0014 01D1     		bne	.L178
 3616              		.loc 1 1590 3 is_stmt 0 discriminator 1
 3617 0016 0223     		movs	r3, #2
 3618 0018 58E0     		b	.L179
 3619              	.L178:
 3620              		.loc 1 1590 3 discriminator 2
 3621 001a FB68     		ldr	r3, [r7, #12]
 3622 001c 0122     		movs	r2, #1
 3623 001e 83F83C20 		strb	r2, [r3, #60]
1591:Drivers/STM32L4xx_HAL_Driver/Src/stm32l4xx_hal_tim_ex.c **** 
1592:Drivers/STM32L4xx_HAL_Driver/Src/stm32l4xx_hal_tim_ex.c ****   if ((InputTrigger == TIM_TS_ITR0) || (InputTrigger == TIM_TS_ITR1) ||
 3624              		.loc 1 1592 6 is_stmt 1 discriminator 2
 3625 0022 BB68     		ldr	r3, [r7, #8]
 3626 0024 002B     		cmp	r3, #0
 3627 0026 08D0     		beq	.L180
 3628              		.loc 1 1592 37 discriminator 1
 3629 0028 BB68     		ldr	r3, [r7, #8]
 3630 002a 102B     		cmp	r3, #16
 3631 002c 05D0     		beq	.L180
 3632              		.loc 1 1592 70 discriminator 2
 3633 002e BB68     		ldr	r3, [r7, #8]
 3634 0030 202B     		cmp	r3, #32
 3635 0032 02D0     		beq	.L180
1593:Drivers/STM32L4xx_HAL_Driver/Src/stm32l4xx_hal_tim_ex.c ****       (InputTrigger == TIM_TS_ITR2) || (InputTrigger == TIM_TS_ITR3))
 3636              		.loc 1 1593 37
 3637 0034 BB68     		ldr	r3, [r7, #8]
 3638 0036 302B     		cmp	r3, #48
 3639 0038 0FD1     		bne	.L181
ARM GAS  /tmp/cc9IMTcg.s 			page 94


 3640              	.L180:
1594:Drivers/STM32L4xx_HAL_Driver/Src/stm32l4xx_hal_tim_ex.c ****   {
1595:Drivers/STM32L4xx_HAL_Driver/Src/stm32l4xx_hal_tim_ex.c ****     /* Select the Input trigger */
1596:Drivers/STM32L4xx_HAL_Driver/Src/stm32l4xx_hal_tim_ex.c ****     htim->Instance->SMCR &= ~TIM_SMCR_TS;
 3641              		.loc 1 1596 9
 3642 003a FB68     		ldr	r3, [r7, #12]
 3643 003c 1B68     		ldr	r3, [r3]
 3644              		.loc 1 1596 26
 3645 003e 9A68     		ldr	r2, [r3, #8]
 3646              		.loc 1 1596 9
 3647 0040 FB68     		ldr	r3, [r7, #12]
 3648 0042 1B68     		ldr	r3, [r3]
 3649              		.loc 1 1596 26
 3650 0044 22F07002 		bic	r2, r2, #112
 3651 0048 9A60     		str	r2, [r3, #8]
1597:Drivers/STM32L4xx_HAL_Driver/Src/stm32l4xx_hal_tim_ex.c ****     htim->Instance->SMCR |= InputTrigger;
 3652              		.loc 1 1597 9
 3653 004a FB68     		ldr	r3, [r7, #12]
 3654 004c 1B68     		ldr	r3, [r3]
 3655              		.loc 1 1597 26
 3656 004e 9968     		ldr	r1, [r3, #8]
 3657              		.loc 1 1597 9
 3658 0050 FB68     		ldr	r3, [r7, #12]
 3659 0052 1B68     		ldr	r3, [r3]
 3660              		.loc 1 1597 26
 3661 0054 BA68     		ldr	r2, [r7, #8]
 3662 0056 0A43     		orrs	r2, r2, r1
 3663 0058 9A60     		str	r2, [r3, #8]
 3664              	.L181:
1598:Drivers/STM32L4xx_HAL_Driver/Src/stm32l4xx_hal_tim_ex.c ****   }
1599:Drivers/STM32L4xx_HAL_Driver/Src/stm32l4xx_hal_tim_ex.c **** 
1600:Drivers/STM32L4xx_HAL_Driver/Src/stm32l4xx_hal_tim_ex.c ****   /* Select the Capture Compare preload feature */
1601:Drivers/STM32L4xx_HAL_Driver/Src/stm32l4xx_hal_tim_ex.c ****   htim->Instance->CR2 |= TIM_CR2_CCPC;
 3665              		.loc 1 1601 7
 3666 005a FB68     		ldr	r3, [r7, #12]
 3667 005c 1B68     		ldr	r3, [r3]
 3668              		.loc 1 1601 23
 3669 005e 5A68     		ldr	r2, [r3, #4]
 3670              		.loc 1 1601 7
 3671 0060 FB68     		ldr	r3, [r7, #12]
 3672 0062 1B68     		ldr	r3, [r3]
 3673              		.loc 1 1601 23
 3674 0064 42F00102 		orr	r2, r2, #1
 3675 0068 5A60     		str	r2, [r3, #4]
1602:Drivers/STM32L4xx_HAL_Driver/Src/stm32l4xx_hal_tim_ex.c ****   /* Select the Commutation event source */
1603:Drivers/STM32L4xx_HAL_Driver/Src/stm32l4xx_hal_tim_ex.c ****   htim->Instance->CR2 &= ~TIM_CR2_CCUS;
 3676              		.loc 1 1603 7
 3677 006a FB68     		ldr	r3, [r7, #12]
 3678 006c 1B68     		ldr	r3, [r3]
 3679              		.loc 1 1603 23
 3680 006e 5A68     		ldr	r2, [r3, #4]
 3681              		.loc 1 1603 7
 3682 0070 FB68     		ldr	r3, [r7, #12]
 3683 0072 1B68     		ldr	r3, [r3]
 3684              		.loc 1 1603 23
 3685 0074 22F00402 		bic	r2, r2, #4
 3686 0078 5A60     		str	r2, [r3, #4]
ARM GAS  /tmp/cc9IMTcg.s 			page 95


1604:Drivers/STM32L4xx_HAL_Driver/Src/stm32l4xx_hal_tim_ex.c ****   htim->Instance->CR2 |= CommutationSource;
 3687              		.loc 1 1604 7
 3688 007a FB68     		ldr	r3, [r7, #12]
 3689 007c 1B68     		ldr	r3, [r3]
 3690              		.loc 1 1604 23
 3691 007e 5968     		ldr	r1, [r3, #4]
 3692              		.loc 1 1604 7
 3693 0080 FB68     		ldr	r3, [r7, #12]
 3694 0082 1B68     		ldr	r3, [r3]
 3695              		.loc 1 1604 23
 3696 0084 7A68     		ldr	r2, [r7, #4]
 3697 0086 0A43     		orrs	r2, r2, r1
 3698 0088 5A60     		str	r2, [r3, #4]
1605:Drivers/STM32L4xx_HAL_Driver/Src/stm32l4xx_hal_tim_ex.c **** 
1606:Drivers/STM32L4xx_HAL_Driver/Src/stm32l4xx_hal_tim_ex.c ****   /* Enable the Commutation DMA Request */
1607:Drivers/STM32L4xx_HAL_Driver/Src/stm32l4xx_hal_tim_ex.c ****   /* Set the DMA Commutation Callback */
1608:Drivers/STM32L4xx_HAL_Driver/Src/stm32l4xx_hal_tim_ex.c ****   htim->hdma[TIM_DMA_ID_COMMUTATION]->XferCpltCallback = TIMEx_DMACommutationCplt;
 3699              		.loc 1 1608 13
 3700 008a FB68     		ldr	r3, [r7, #12]
 3701 008c 5B6B     		ldr	r3, [r3, #52]
 3702              		.loc 1 1608 56
 3703 008e 124A     		ldr	r2, .L182
 3704 0090 DA62     		str	r2, [r3, #44]
1609:Drivers/STM32L4xx_HAL_Driver/Src/stm32l4xx_hal_tim_ex.c ****   htim->hdma[TIM_DMA_ID_COMMUTATION]->XferHalfCpltCallback = TIMEx_DMACommutationHalfCplt;
 3705              		.loc 1 1609 13
 3706 0092 FB68     		ldr	r3, [r7, #12]
 3707 0094 5B6B     		ldr	r3, [r3, #52]
 3708              		.loc 1 1609 60
 3709 0096 114A     		ldr	r2, .L182+4
 3710 0098 1A63     		str	r2, [r3, #48]
1610:Drivers/STM32L4xx_HAL_Driver/Src/stm32l4xx_hal_tim_ex.c ****   /* Set the DMA error callback */
1611:Drivers/STM32L4xx_HAL_Driver/Src/stm32l4xx_hal_tim_ex.c ****   htim->hdma[TIM_DMA_ID_COMMUTATION]->XferErrorCallback = TIM_DMAError;
 3711              		.loc 1 1611 13
 3712 009a FB68     		ldr	r3, [r7, #12]
 3713 009c 5B6B     		ldr	r3, [r3, #52]
 3714              		.loc 1 1611 57
 3715 009e 104A     		ldr	r2, .L182+8
 3716 00a0 5A63     		str	r2, [r3, #52]
1612:Drivers/STM32L4xx_HAL_Driver/Src/stm32l4xx_hal_tim_ex.c **** 
1613:Drivers/STM32L4xx_HAL_Driver/Src/stm32l4xx_hal_tim_ex.c ****   /* Disable Commutation Interrupt */
1614:Drivers/STM32L4xx_HAL_Driver/Src/stm32l4xx_hal_tim_ex.c ****   __HAL_TIM_DISABLE_IT(htim, TIM_IT_COM);
 3717              		.loc 1 1614 3
 3718 00a2 FB68     		ldr	r3, [r7, #12]
 3719 00a4 1B68     		ldr	r3, [r3]
 3720 00a6 DA68     		ldr	r2, [r3, #12]
 3721 00a8 FB68     		ldr	r3, [r7, #12]
 3722 00aa 1B68     		ldr	r3, [r3]
 3723 00ac 22F02002 		bic	r2, r2, #32
 3724 00b0 DA60     		str	r2, [r3, #12]
1615:Drivers/STM32L4xx_HAL_Driver/Src/stm32l4xx_hal_tim_ex.c **** 
1616:Drivers/STM32L4xx_HAL_Driver/Src/stm32l4xx_hal_tim_ex.c ****   /* Enable the Commutation DMA Request */
1617:Drivers/STM32L4xx_HAL_Driver/Src/stm32l4xx_hal_tim_ex.c ****   __HAL_TIM_ENABLE_DMA(htim, TIM_DMA_COM);
 3725              		.loc 1 1617 3
 3726 00b2 FB68     		ldr	r3, [r7, #12]
 3727 00b4 1B68     		ldr	r3, [r3]
 3728 00b6 DA68     		ldr	r2, [r3, #12]
 3729 00b8 FB68     		ldr	r3, [r7, #12]
ARM GAS  /tmp/cc9IMTcg.s 			page 96


 3730 00ba 1B68     		ldr	r3, [r3]
 3731 00bc 42F40052 		orr	r2, r2, #8192
 3732 00c0 DA60     		str	r2, [r3, #12]
1618:Drivers/STM32L4xx_HAL_Driver/Src/stm32l4xx_hal_tim_ex.c **** 
1619:Drivers/STM32L4xx_HAL_Driver/Src/stm32l4xx_hal_tim_ex.c ****   __HAL_UNLOCK(htim);
 3733              		.loc 1 1619 3
 3734 00c2 FB68     		ldr	r3, [r7, #12]
 3735 00c4 0022     		movs	r2, #0
 3736 00c6 83F83C20 		strb	r2, [r3, #60]
1620:Drivers/STM32L4xx_HAL_Driver/Src/stm32l4xx_hal_tim_ex.c **** 
1621:Drivers/STM32L4xx_HAL_Driver/Src/stm32l4xx_hal_tim_ex.c ****   return HAL_OK;
 3737              		.loc 1 1621 10
 3738 00ca 0023     		movs	r3, #0
 3739              	.L179:
1622:Drivers/STM32L4xx_HAL_Driver/Src/stm32l4xx_hal_tim_ex.c **** }
 3740              		.loc 1 1622 1
 3741 00cc 1846     		mov	r0, r3
 3742 00ce 1437     		adds	r7, r7, #20
 3743              	.LCFI147:
 3744              		.cfi_def_cfa_offset 4
 3745 00d0 BD46     		mov	sp, r7
 3746              	.LCFI148:
 3747              		.cfi_def_cfa_register 13
 3748              		@ sp needed
 3749 00d2 5DF8047B 		ldr	r7, [sp], #4
 3750              	.LCFI149:
 3751              		.cfi_restore 7
 3752              		.cfi_def_cfa_offset 0
 3753 00d6 7047     		bx	lr
 3754              	.L183:
 3755              		.align	2
 3756              	.L182:
 3757 00d8 00000000 		.word	TIMEx_DMACommutationCplt
 3758 00dc 00000000 		.word	TIMEx_DMACommutationHalfCplt
 3759 00e0 00000000 		.word	TIM_DMAError
 3760              		.cfi_endproc
 3761              	.LFE158:
 3763              		.section	.text.HAL_TIMEx_MasterConfigSynchronization,"ax",%progbits
 3764              		.align	1
 3765              		.global	HAL_TIMEx_MasterConfigSynchronization
 3766              		.syntax unified
 3767              		.thumb
 3768              		.thumb_func
 3769              		.fpu fpv4-sp-d16
 3771              	HAL_TIMEx_MasterConfigSynchronization:
 3772              	.LFB159:
1623:Drivers/STM32L4xx_HAL_Driver/Src/stm32l4xx_hal_tim_ex.c **** 
1624:Drivers/STM32L4xx_HAL_Driver/Src/stm32l4xx_hal_tim_ex.c **** /**
1625:Drivers/STM32L4xx_HAL_Driver/Src/stm32l4xx_hal_tim_ex.c ****   * @brief  Configures the TIM in master mode.
1626:Drivers/STM32L4xx_HAL_Driver/Src/stm32l4xx_hal_tim_ex.c ****   * @param  htim TIM handle.
1627:Drivers/STM32L4xx_HAL_Driver/Src/stm32l4xx_hal_tim_ex.c ****   * @param  sMasterConfig pointer to a TIM_MasterConfigTypeDef structure that
1628:Drivers/STM32L4xx_HAL_Driver/Src/stm32l4xx_hal_tim_ex.c ****   *         contains the selected trigger output (TRGO) and the Master/Slave
1629:Drivers/STM32L4xx_HAL_Driver/Src/stm32l4xx_hal_tim_ex.c ****   *         mode.
1630:Drivers/STM32L4xx_HAL_Driver/Src/stm32l4xx_hal_tim_ex.c ****   * @retval HAL status
1631:Drivers/STM32L4xx_HAL_Driver/Src/stm32l4xx_hal_tim_ex.c ****   */
1632:Drivers/STM32L4xx_HAL_Driver/Src/stm32l4xx_hal_tim_ex.c **** HAL_StatusTypeDef HAL_TIMEx_MasterConfigSynchronization(TIM_HandleTypeDef *htim,
1633:Drivers/STM32L4xx_HAL_Driver/Src/stm32l4xx_hal_tim_ex.c ****                                                         TIM_MasterConfigTypeDef *sMasterConfig)
ARM GAS  /tmp/cc9IMTcg.s 			page 97


1634:Drivers/STM32L4xx_HAL_Driver/Src/stm32l4xx_hal_tim_ex.c **** {
 3773              		.loc 1 1634 1
 3774              		.cfi_startproc
 3775              		@ args = 0, pretend = 0, frame = 16
 3776              		@ frame_needed = 1, uses_anonymous_args = 0
 3777              		@ link register save eliminated.
 3778 0000 80B4     		push	{r7}
 3779              	.LCFI150:
 3780              		.cfi_def_cfa_offset 4
 3781              		.cfi_offset 7, -4
 3782 0002 85B0     		sub	sp, sp, #20
 3783              	.LCFI151:
 3784              		.cfi_def_cfa_offset 24
 3785 0004 00AF     		add	r7, sp, #0
 3786              	.LCFI152:
 3787              		.cfi_def_cfa_register 7
 3788 0006 7860     		str	r0, [r7, #4]
 3789 0008 3960     		str	r1, [r7]
1635:Drivers/STM32L4xx_HAL_Driver/Src/stm32l4xx_hal_tim_ex.c ****   uint32_t tmpcr2;
1636:Drivers/STM32L4xx_HAL_Driver/Src/stm32l4xx_hal_tim_ex.c ****   uint32_t tmpsmcr;
1637:Drivers/STM32L4xx_HAL_Driver/Src/stm32l4xx_hal_tim_ex.c **** 
1638:Drivers/STM32L4xx_HAL_Driver/Src/stm32l4xx_hal_tim_ex.c ****   /* Check the parameters */
1639:Drivers/STM32L4xx_HAL_Driver/Src/stm32l4xx_hal_tim_ex.c ****   assert_param(IS_TIM_MASTER_INSTANCE(htim->Instance));
1640:Drivers/STM32L4xx_HAL_Driver/Src/stm32l4xx_hal_tim_ex.c ****   assert_param(IS_TIM_TRGO_SOURCE(sMasterConfig->MasterOutputTrigger));
1641:Drivers/STM32L4xx_HAL_Driver/Src/stm32l4xx_hal_tim_ex.c ****   assert_param(IS_TIM_MSM_STATE(sMasterConfig->MasterSlaveMode));
1642:Drivers/STM32L4xx_HAL_Driver/Src/stm32l4xx_hal_tim_ex.c **** 
1643:Drivers/STM32L4xx_HAL_Driver/Src/stm32l4xx_hal_tim_ex.c ****   /* Check input state */
1644:Drivers/STM32L4xx_HAL_Driver/Src/stm32l4xx_hal_tim_ex.c ****   __HAL_LOCK(htim);
 3790              		.loc 1 1644 3
 3791 000a 7B68     		ldr	r3, [r7, #4]
 3792 000c 93F83C30 		ldrb	r3, [r3, #60]	@ zero_extendqisi2
 3793 0010 012B     		cmp	r3, #1
 3794 0012 01D1     		bne	.L185
 3795              		.loc 1 1644 3 is_stmt 0 discriminator 1
 3796 0014 0223     		movs	r3, #2
 3797 0016 4FE0     		b	.L186
 3798              	.L185:
 3799              		.loc 1 1644 3 discriminator 2
 3800 0018 7B68     		ldr	r3, [r7, #4]
 3801 001a 0122     		movs	r2, #1
 3802 001c 83F83C20 		strb	r2, [r3, #60]
1645:Drivers/STM32L4xx_HAL_Driver/Src/stm32l4xx_hal_tim_ex.c **** 
1646:Drivers/STM32L4xx_HAL_Driver/Src/stm32l4xx_hal_tim_ex.c ****   /* Change the handler state */
1647:Drivers/STM32L4xx_HAL_Driver/Src/stm32l4xx_hal_tim_ex.c ****   htim->State = HAL_TIM_STATE_BUSY;
 3803              		.loc 1 1647 15 is_stmt 1 discriminator 2
 3804 0020 7B68     		ldr	r3, [r7, #4]
 3805 0022 0222     		movs	r2, #2
 3806 0024 83F83D20 		strb	r2, [r3, #61]
1648:Drivers/STM32L4xx_HAL_Driver/Src/stm32l4xx_hal_tim_ex.c **** 
1649:Drivers/STM32L4xx_HAL_Driver/Src/stm32l4xx_hal_tim_ex.c ****   /* Get the TIMx CR2 register value */
1650:Drivers/STM32L4xx_HAL_Driver/Src/stm32l4xx_hal_tim_ex.c ****   tmpcr2 = htim->Instance->CR2;
 3807              		.loc 1 1650 16 discriminator 2
 3808 0028 7B68     		ldr	r3, [r7, #4]
 3809 002a 1B68     		ldr	r3, [r3]
 3810              		.loc 1 1650 10 discriminator 2
 3811 002c 5B68     		ldr	r3, [r3, #4]
 3812 002e FB60     		str	r3, [r7, #12]
ARM GAS  /tmp/cc9IMTcg.s 			page 98


1651:Drivers/STM32L4xx_HAL_Driver/Src/stm32l4xx_hal_tim_ex.c **** 
1652:Drivers/STM32L4xx_HAL_Driver/Src/stm32l4xx_hal_tim_ex.c ****   /* Get the TIMx SMCR register value */
1653:Drivers/STM32L4xx_HAL_Driver/Src/stm32l4xx_hal_tim_ex.c ****   tmpsmcr = htim->Instance->SMCR;
 3813              		.loc 1 1653 17 discriminator 2
 3814 0030 7B68     		ldr	r3, [r7, #4]
 3815 0032 1B68     		ldr	r3, [r3]
 3816              		.loc 1 1653 11 discriminator 2
 3817 0034 9B68     		ldr	r3, [r3, #8]
 3818 0036 BB60     		str	r3, [r7, #8]
1654:Drivers/STM32L4xx_HAL_Driver/Src/stm32l4xx_hal_tim_ex.c **** 
1655:Drivers/STM32L4xx_HAL_Driver/Src/stm32l4xx_hal_tim_ex.c ****   /* If the timer supports ADC synchronization through TRGO2, set the master mode selection 2 */
1656:Drivers/STM32L4xx_HAL_Driver/Src/stm32l4xx_hal_tim_ex.c ****   if (IS_TIM_TRGO2_INSTANCE(htim->Instance))
 3819              		.loc 1 1656 7 discriminator 2
 3820 0038 7B68     		ldr	r3, [r7, #4]
 3821 003a 1B68     		ldr	r3, [r3]
 3822              		.loc 1 1656 6 discriminator 2
 3823 003c 214A     		ldr	r2, .L190
 3824 003e 9342     		cmp	r3, r2
 3825 0040 08D1     		bne	.L187
1657:Drivers/STM32L4xx_HAL_Driver/Src/stm32l4xx_hal_tim_ex.c ****   {
1658:Drivers/STM32L4xx_HAL_Driver/Src/stm32l4xx_hal_tim_ex.c ****     /* Check the parameters */
1659:Drivers/STM32L4xx_HAL_Driver/Src/stm32l4xx_hal_tim_ex.c ****     assert_param(IS_TIM_TRGO2_SOURCE(sMasterConfig->MasterOutputTrigger2));
1660:Drivers/STM32L4xx_HAL_Driver/Src/stm32l4xx_hal_tim_ex.c **** 
1661:Drivers/STM32L4xx_HAL_Driver/Src/stm32l4xx_hal_tim_ex.c ****     /* Clear the MMS2 bits */
1662:Drivers/STM32L4xx_HAL_Driver/Src/stm32l4xx_hal_tim_ex.c ****     tmpcr2 &= ~TIM_CR2_MMS2;
 3826              		.loc 1 1662 12
 3827 0042 FB68     		ldr	r3, [r7, #12]
 3828 0044 23F47003 		bic	r3, r3, #15728640
 3829 0048 FB60     		str	r3, [r7, #12]
1663:Drivers/STM32L4xx_HAL_Driver/Src/stm32l4xx_hal_tim_ex.c ****     /* Select the TRGO2 source*/
1664:Drivers/STM32L4xx_HAL_Driver/Src/stm32l4xx_hal_tim_ex.c ****     tmpcr2 |= sMasterConfig->MasterOutputTrigger2;
 3830              		.loc 1 1664 28
 3831 004a 3B68     		ldr	r3, [r7]
 3832 004c 5B68     		ldr	r3, [r3, #4]
 3833              		.loc 1 1664 12
 3834 004e FA68     		ldr	r2, [r7, #12]
 3835 0050 1343     		orrs	r3, r3, r2
 3836 0052 FB60     		str	r3, [r7, #12]
 3837              	.L187:
1665:Drivers/STM32L4xx_HAL_Driver/Src/stm32l4xx_hal_tim_ex.c ****   }
1666:Drivers/STM32L4xx_HAL_Driver/Src/stm32l4xx_hal_tim_ex.c **** 
1667:Drivers/STM32L4xx_HAL_Driver/Src/stm32l4xx_hal_tim_ex.c ****   /* Reset the MMS Bits */
1668:Drivers/STM32L4xx_HAL_Driver/Src/stm32l4xx_hal_tim_ex.c ****   tmpcr2 &= ~TIM_CR2_MMS;
 3838              		.loc 1 1668 10
 3839 0054 FB68     		ldr	r3, [r7, #12]
 3840 0056 23F07003 		bic	r3, r3, #112
 3841 005a FB60     		str	r3, [r7, #12]
1669:Drivers/STM32L4xx_HAL_Driver/Src/stm32l4xx_hal_tim_ex.c ****   /* Select the TRGO source */
1670:Drivers/STM32L4xx_HAL_Driver/Src/stm32l4xx_hal_tim_ex.c ****   tmpcr2 |=  sMasterConfig->MasterOutputTrigger;
 3842              		.loc 1 1670 27
 3843 005c 3B68     		ldr	r3, [r7]
 3844 005e 1B68     		ldr	r3, [r3]
 3845              		.loc 1 1670 10
 3846 0060 FA68     		ldr	r2, [r7, #12]
 3847 0062 1343     		orrs	r3, r3, r2
 3848 0064 FB60     		str	r3, [r7, #12]
1671:Drivers/STM32L4xx_HAL_Driver/Src/stm32l4xx_hal_tim_ex.c **** 
ARM GAS  /tmp/cc9IMTcg.s 			page 99


1672:Drivers/STM32L4xx_HAL_Driver/Src/stm32l4xx_hal_tim_ex.c ****   /* Update TIMx CR2 */
1673:Drivers/STM32L4xx_HAL_Driver/Src/stm32l4xx_hal_tim_ex.c ****   htim->Instance->CR2 = tmpcr2;
 3849              		.loc 1 1673 7
 3850 0066 7B68     		ldr	r3, [r7, #4]
 3851 0068 1B68     		ldr	r3, [r3]
 3852              		.loc 1 1673 23
 3853 006a FA68     		ldr	r2, [r7, #12]
 3854 006c 5A60     		str	r2, [r3, #4]
1674:Drivers/STM32L4xx_HAL_Driver/Src/stm32l4xx_hal_tim_ex.c **** 
1675:Drivers/STM32L4xx_HAL_Driver/Src/stm32l4xx_hal_tim_ex.c ****   if (IS_TIM_SLAVE_INSTANCE(htim->Instance))
 3855              		.loc 1 1675 7
 3856 006e 7B68     		ldr	r3, [r7, #4]
 3857 0070 1B68     		ldr	r3, [r3]
 3858              		.loc 1 1675 6
 3859 0072 144A     		ldr	r2, .L190
 3860 0074 9342     		cmp	r3, r2
 3861 0076 09D0     		beq	.L188
 3862              		.loc 1 1675 7 discriminator 1
 3863 0078 7B68     		ldr	r3, [r7, #4]
 3864 007a 1B68     		ldr	r3, [r3]
 3865 007c B3F1804F 		cmp	r3, #1073741824
 3866 0080 04D0     		beq	.L188
 3867              		.loc 1 1675 7 is_stmt 0 discriminator 2
 3868 0082 7B68     		ldr	r3, [r7, #4]
 3869 0084 1B68     		ldr	r3, [r3]
 3870 0086 104A     		ldr	r2, .L190+4
 3871 0088 9342     		cmp	r3, r2
 3872 008a 0CD1     		bne	.L189
 3873              	.L188:
1676:Drivers/STM32L4xx_HAL_Driver/Src/stm32l4xx_hal_tim_ex.c ****   {
1677:Drivers/STM32L4xx_HAL_Driver/Src/stm32l4xx_hal_tim_ex.c ****     /* Reset the MSM Bit */
1678:Drivers/STM32L4xx_HAL_Driver/Src/stm32l4xx_hal_tim_ex.c ****     tmpsmcr &= ~TIM_SMCR_MSM;
 3874              		.loc 1 1678 13 is_stmt 1
 3875 008c BB68     		ldr	r3, [r7, #8]
 3876 008e 23F08003 		bic	r3, r3, #128
 3877 0092 BB60     		str	r3, [r7, #8]
1679:Drivers/STM32L4xx_HAL_Driver/Src/stm32l4xx_hal_tim_ex.c ****     /* Set master mode */
1680:Drivers/STM32L4xx_HAL_Driver/Src/stm32l4xx_hal_tim_ex.c ****     tmpsmcr |= sMasterConfig->MasterSlaveMode;
 3878              		.loc 1 1680 29
 3879 0094 3B68     		ldr	r3, [r7]
 3880 0096 9B68     		ldr	r3, [r3, #8]
 3881              		.loc 1 1680 13
 3882 0098 BA68     		ldr	r2, [r7, #8]
 3883 009a 1343     		orrs	r3, r3, r2
 3884 009c BB60     		str	r3, [r7, #8]
1681:Drivers/STM32L4xx_HAL_Driver/Src/stm32l4xx_hal_tim_ex.c **** 
1682:Drivers/STM32L4xx_HAL_Driver/Src/stm32l4xx_hal_tim_ex.c ****     /* Update TIMx SMCR */
1683:Drivers/STM32L4xx_HAL_Driver/Src/stm32l4xx_hal_tim_ex.c ****     htim->Instance->SMCR = tmpsmcr;
 3885              		.loc 1 1683 9
 3886 009e 7B68     		ldr	r3, [r7, #4]
 3887 00a0 1B68     		ldr	r3, [r3]
 3888              		.loc 1 1683 26
 3889 00a2 BA68     		ldr	r2, [r7, #8]
 3890 00a4 9A60     		str	r2, [r3, #8]
 3891              	.L189:
1684:Drivers/STM32L4xx_HAL_Driver/Src/stm32l4xx_hal_tim_ex.c ****   }
1685:Drivers/STM32L4xx_HAL_Driver/Src/stm32l4xx_hal_tim_ex.c **** 
ARM GAS  /tmp/cc9IMTcg.s 			page 100


1686:Drivers/STM32L4xx_HAL_Driver/Src/stm32l4xx_hal_tim_ex.c ****   /* Change the htim state */
1687:Drivers/STM32L4xx_HAL_Driver/Src/stm32l4xx_hal_tim_ex.c ****   htim->State = HAL_TIM_STATE_READY;
 3892              		.loc 1 1687 15
 3893 00a6 7B68     		ldr	r3, [r7, #4]
 3894 00a8 0122     		movs	r2, #1
 3895 00aa 83F83D20 		strb	r2, [r3, #61]
1688:Drivers/STM32L4xx_HAL_Driver/Src/stm32l4xx_hal_tim_ex.c **** 
1689:Drivers/STM32L4xx_HAL_Driver/Src/stm32l4xx_hal_tim_ex.c ****   __HAL_UNLOCK(htim);
 3896              		.loc 1 1689 3
 3897 00ae 7B68     		ldr	r3, [r7, #4]
 3898 00b0 0022     		movs	r2, #0
 3899 00b2 83F83C20 		strb	r2, [r3, #60]
1690:Drivers/STM32L4xx_HAL_Driver/Src/stm32l4xx_hal_tim_ex.c **** 
1691:Drivers/STM32L4xx_HAL_Driver/Src/stm32l4xx_hal_tim_ex.c ****   return HAL_OK;
 3900              		.loc 1 1691 10
 3901 00b6 0023     		movs	r3, #0
 3902              	.L186:
1692:Drivers/STM32L4xx_HAL_Driver/Src/stm32l4xx_hal_tim_ex.c **** }
 3903              		.loc 1 1692 1
 3904 00b8 1846     		mov	r0, r3
 3905 00ba 1437     		adds	r7, r7, #20
 3906              	.LCFI153:
 3907              		.cfi_def_cfa_offset 4
 3908 00bc BD46     		mov	sp, r7
 3909              	.LCFI154:
 3910              		.cfi_def_cfa_register 13
 3911              		@ sp needed
 3912 00be 5DF8047B 		ldr	r7, [sp], #4
 3913              	.LCFI155:
 3914              		.cfi_restore 7
 3915              		.cfi_def_cfa_offset 0
 3916 00c2 7047     		bx	lr
 3917              	.L191:
 3918              		.align	2
 3919              	.L190:
 3920 00c4 002C0140 		.word	1073818624
 3921 00c8 00400140 		.word	1073823744
 3922              		.cfi_endproc
 3923              	.LFE159:
 3925              		.section	.text.HAL_TIMEx_ConfigBreakDeadTime,"ax",%progbits
 3926              		.align	1
 3927              		.global	HAL_TIMEx_ConfigBreakDeadTime
 3928              		.syntax unified
 3929              		.thumb
 3930              		.thumb_func
 3931              		.fpu fpv4-sp-d16
 3933              	HAL_TIMEx_ConfigBreakDeadTime:
 3934              	.LFB160:
1693:Drivers/STM32L4xx_HAL_Driver/Src/stm32l4xx_hal_tim_ex.c **** 
1694:Drivers/STM32L4xx_HAL_Driver/Src/stm32l4xx_hal_tim_ex.c **** /**
1695:Drivers/STM32L4xx_HAL_Driver/Src/stm32l4xx_hal_tim_ex.c ****   * @brief  Configures the Break feature, dead time, Lock level, OSSI/OSSR State
1696:Drivers/STM32L4xx_HAL_Driver/Src/stm32l4xx_hal_tim_ex.c ****   *         and the AOE(automatic output enable).
1697:Drivers/STM32L4xx_HAL_Driver/Src/stm32l4xx_hal_tim_ex.c ****   * @param  htim TIM handle
1698:Drivers/STM32L4xx_HAL_Driver/Src/stm32l4xx_hal_tim_ex.c ****   * @param  sBreakDeadTimeConfig pointer to a TIM_ConfigBreakDeadConfigTypeDef structure that
1699:Drivers/STM32L4xx_HAL_Driver/Src/stm32l4xx_hal_tim_ex.c ****   *         contains the BDTR Register configuration  information for the TIM peripheral.
1700:Drivers/STM32L4xx_HAL_Driver/Src/stm32l4xx_hal_tim_ex.c ****   * @note   Interrupts can be generated when an active level is detected on the
1701:Drivers/STM32L4xx_HAL_Driver/Src/stm32l4xx_hal_tim_ex.c ****   *         break input, the break 2 input or the system break input. Break
ARM GAS  /tmp/cc9IMTcg.s 			page 101


1702:Drivers/STM32L4xx_HAL_Driver/Src/stm32l4xx_hal_tim_ex.c ****   *         interrupt can be enabled by calling the @ref __HAL_TIM_ENABLE_IT macro.
1703:Drivers/STM32L4xx_HAL_Driver/Src/stm32l4xx_hal_tim_ex.c ****   * @retval HAL status
1704:Drivers/STM32L4xx_HAL_Driver/Src/stm32l4xx_hal_tim_ex.c ****   */
1705:Drivers/STM32L4xx_HAL_Driver/Src/stm32l4xx_hal_tim_ex.c **** HAL_StatusTypeDef HAL_TIMEx_ConfigBreakDeadTime(TIM_HandleTypeDef *htim,
1706:Drivers/STM32L4xx_HAL_Driver/Src/stm32l4xx_hal_tim_ex.c ****                                                 TIM_BreakDeadTimeConfigTypeDef *sBreakDeadTimeConfi
1707:Drivers/STM32L4xx_HAL_Driver/Src/stm32l4xx_hal_tim_ex.c **** {
 3935              		.loc 1 1707 1
 3936              		.cfi_startproc
 3937              		@ args = 0, pretend = 0, frame = 16
 3938              		@ frame_needed = 1, uses_anonymous_args = 0
 3939              		@ link register save eliminated.
 3940 0000 80B4     		push	{r7}
 3941              	.LCFI156:
 3942              		.cfi_def_cfa_offset 4
 3943              		.cfi_offset 7, -4
 3944 0002 85B0     		sub	sp, sp, #20
 3945              	.LCFI157:
 3946              		.cfi_def_cfa_offset 24
 3947 0004 00AF     		add	r7, sp, #0
 3948              	.LCFI158:
 3949              		.cfi_def_cfa_register 7
 3950 0006 7860     		str	r0, [r7, #4]
 3951 0008 3960     		str	r1, [r7]
1708:Drivers/STM32L4xx_HAL_Driver/Src/stm32l4xx_hal_tim_ex.c ****   /* Keep this variable initialized to 0 as it is used to configure BDTR register */
1709:Drivers/STM32L4xx_HAL_Driver/Src/stm32l4xx_hal_tim_ex.c ****   uint32_t tmpbdtr = 0U;
 3952              		.loc 1 1709 12
 3953 000a 0023     		movs	r3, #0
 3954 000c FB60     		str	r3, [r7, #12]
1710:Drivers/STM32L4xx_HAL_Driver/Src/stm32l4xx_hal_tim_ex.c **** 
1711:Drivers/STM32L4xx_HAL_Driver/Src/stm32l4xx_hal_tim_ex.c ****   /* Check the parameters */
1712:Drivers/STM32L4xx_HAL_Driver/Src/stm32l4xx_hal_tim_ex.c ****   assert_param(IS_TIM_BREAK_INSTANCE(htim->Instance));
1713:Drivers/STM32L4xx_HAL_Driver/Src/stm32l4xx_hal_tim_ex.c ****   assert_param(IS_TIM_OSSR_STATE(sBreakDeadTimeConfig->OffStateRunMode));
1714:Drivers/STM32L4xx_HAL_Driver/Src/stm32l4xx_hal_tim_ex.c ****   assert_param(IS_TIM_OSSI_STATE(sBreakDeadTimeConfig->OffStateIDLEMode));
1715:Drivers/STM32L4xx_HAL_Driver/Src/stm32l4xx_hal_tim_ex.c ****   assert_param(IS_TIM_LOCK_LEVEL(sBreakDeadTimeConfig->LockLevel));
1716:Drivers/STM32L4xx_HAL_Driver/Src/stm32l4xx_hal_tim_ex.c ****   assert_param(IS_TIM_DEADTIME(sBreakDeadTimeConfig->DeadTime));
1717:Drivers/STM32L4xx_HAL_Driver/Src/stm32l4xx_hal_tim_ex.c ****   assert_param(IS_TIM_BREAK_STATE(sBreakDeadTimeConfig->BreakState));
1718:Drivers/STM32L4xx_HAL_Driver/Src/stm32l4xx_hal_tim_ex.c ****   assert_param(IS_TIM_BREAK_POLARITY(sBreakDeadTimeConfig->BreakPolarity));
1719:Drivers/STM32L4xx_HAL_Driver/Src/stm32l4xx_hal_tim_ex.c ****   assert_param(IS_TIM_BREAK_FILTER(sBreakDeadTimeConfig->BreakFilter));
1720:Drivers/STM32L4xx_HAL_Driver/Src/stm32l4xx_hal_tim_ex.c ****   assert_param(IS_TIM_AUTOMATIC_OUTPUT_STATE(sBreakDeadTimeConfig->AutomaticOutput));
1721:Drivers/STM32L4xx_HAL_Driver/Src/stm32l4xx_hal_tim_ex.c **** 
1722:Drivers/STM32L4xx_HAL_Driver/Src/stm32l4xx_hal_tim_ex.c ****   /* Check input state */
1723:Drivers/STM32L4xx_HAL_Driver/Src/stm32l4xx_hal_tim_ex.c ****   __HAL_LOCK(htim);
 3955              		.loc 1 1723 3
 3956 000e 7B68     		ldr	r3, [r7, #4]
 3957 0010 93F83C30 		ldrb	r3, [r3, #60]	@ zero_extendqisi2
 3958 0014 012B     		cmp	r3, #1
 3959 0016 01D1     		bne	.L193
 3960              		.loc 1 1723 3 is_stmt 0 discriminator 1
 3961 0018 0223     		movs	r3, #2
 3962 001a 60E0     		b	.L194
 3963              	.L193:
 3964              		.loc 1 1723 3 discriminator 2
 3965 001c 7B68     		ldr	r3, [r7, #4]
 3966 001e 0122     		movs	r2, #1
 3967 0020 83F83C20 		strb	r2, [r3, #60]
1724:Drivers/STM32L4xx_HAL_Driver/Src/stm32l4xx_hal_tim_ex.c **** 
1725:Drivers/STM32L4xx_HAL_Driver/Src/stm32l4xx_hal_tim_ex.c ****   /* Set the Lock level, the Break enable Bit and the Polarity, the OSSR State,
ARM GAS  /tmp/cc9IMTcg.s 			page 102


1726:Drivers/STM32L4xx_HAL_Driver/Src/stm32l4xx_hal_tim_ex.c ****      the OSSI State, the dead time value and the Automatic Output Enable Bit */
1727:Drivers/STM32L4xx_HAL_Driver/Src/stm32l4xx_hal_tim_ex.c **** 
1728:Drivers/STM32L4xx_HAL_Driver/Src/stm32l4xx_hal_tim_ex.c ****   /* Set the BDTR bits */
1729:Drivers/STM32L4xx_HAL_Driver/Src/stm32l4xx_hal_tim_ex.c ****   MODIFY_REG(tmpbdtr, TIM_BDTR_DTG, sBreakDeadTimeConfig->DeadTime);
 3968              		.loc 1 1729 3 is_stmt 1 discriminator 2
 3969 0024 FB68     		ldr	r3, [r7, #12]
 3970 0026 23F0FF02 		bic	r2, r3, #255
 3971 002a 3B68     		ldr	r3, [r7]
 3972 002c DB68     		ldr	r3, [r3, #12]
 3973 002e 1343     		orrs	r3, r3, r2
 3974 0030 FB60     		str	r3, [r7, #12]
1730:Drivers/STM32L4xx_HAL_Driver/Src/stm32l4xx_hal_tim_ex.c ****   MODIFY_REG(tmpbdtr, TIM_BDTR_LOCK, sBreakDeadTimeConfig->LockLevel);
 3975              		.loc 1 1730 3 discriminator 2
 3976 0032 FB68     		ldr	r3, [r7, #12]
 3977 0034 23F44072 		bic	r2, r3, #768
 3978 0038 3B68     		ldr	r3, [r7]
 3979 003a 9B68     		ldr	r3, [r3, #8]
 3980 003c 1343     		orrs	r3, r3, r2
 3981 003e FB60     		str	r3, [r7, #12]
1731:Drivers/STM32L4xx_HAL_Driver/Src/stm32l4xx_hal_tim_ex.c ****   MODIFY_REG(tmpbdtr, TIM_BDTR_OSSI, sBreakDeadTimeConfig->OffStateIDLEMode);
 3982              		.loc 1 1731 3 discriminator 2
 3983 0040 FB68     		ldr	r3, [r7, #12]
 3984 0042 23F48062 		bic	r2, r3, #1024
 3985 0046 3B68     		ldr	r3, [r7]
 3986 0048 5B68     		ldr	r3, [r3, #4]
 3987 004a 1343     		orrs	r3, r3, r2
 3988 004c FB60     		str	r3, [r7, #12]
1732:Drivers/STM32L4xx_HAL_Driver/Src/stm32l4xx_hal_tim_ex.c ****   MODIFY_REG(tmpbdtr, TIM_BDTR_OSSR, sBreakDeadTimeConfig->OffStateRunMode);
 3989              		.loc 1 1732 3 discriminator 2
 3990 004e FB68     		ldr	r3, [r7, #12]
 3991 0050 23F40062 		bic	r2, r3, #2048
 3992 0054 3B68     		ldr	r3, [r7]
 3993 0056 1B68     		ldr	r3, [r3]
 3994 0058 1343     		orrs	r3, r3, r2
 3995 005a FB60     		str	r3, [r7, #12]
1733:Drivers/STM32L4xx_HAL_Driver/Src/stm32l4xx_hal_tim_ex.c ****   MODIFY_REG(tmpbdtr, TIM_BDTR_BKE, sBreakDeadTimeConfig->BreakState);
 3996              		.loc 1 1733 3 discriminator 2
 3997 005c FB68     		ldr	r3, [r7, #12]
 3998 005e 23F48052 		bic	r2, r3, #4096
 3999 0062 3B68     		ldr	r3, [r7]
 4000 0064 1B69     		ldr	r3, [r3, #16]
 4001 0066 1343     		orrs	r3, r3, r2
 4002 0068 FB60     		str	r3, [r7, #12]
1734:Drivers/STM32L4xx_HAL_Driver/Src/stm32l4xx_hal_tim_ex.c ****   MODIFY_REG(tmpbdtr, TIM_BDTR_BKP, sBreakDeadTimeConfig->BreakPolarity);
 4003              		.loc 1 1734 3 discriminator 2
 4004 006a FB68     		ldr	r3, [r7, #12]
 4005 006c 23F40052 		bic	r2, r3, #8192
 4006 0070 3B68     		ldr	r3, [r7]
 4007 0072 5B69     		ldr	r3, [r3, #20]
 4008 0074 1343     		orrs	r3, r3, r2
 4009 0076 FB60     		str	r3, [r7, #12]
1735:Drivers/STM32L4xx_HAL_Driver/Src/stm32l4xx_hal_tim_ex.c ****   MODIFY_REG(tmpbdtr, TIM_BDTR_AOE, sBreakDeadTimeConfig->AutomaticOutput);
 4010              		.loc 1 1735 3 discriminator 2
 4011 0078 FB68     		ldr	r3, [r7, #12]
 4012 007a 23F48042 		bic	r2, r3, #16384
 4013 007e 3B68     		ldr	r3, [r7]
 4014 0080 9B6A     		ldr	r3, [r3, #40]
ARM GAS  /tmp/cc9IMTcg.s 			page 103


 4015 0082 1343     		orrs	r3, r3, r2
 4016 0084 FB60     		str	r3, [r7, #12]
1736:Drivers/STM32L4xx_HAL_Driver/Src/stm32l4xx_hal_tim_ex.c ****   MODIFY_REG(tmpbdtr, TIM_BDTR_BKF, (sBreakDeadTimeConfig->BreakFilter << TIM_BDTR_BKF_Pos));
 4017              		.loc 1 1736 3 discriminator 2
 4018 0086 FB68     		ldr	r3, [r7, #12]
 4019 0088 23F47022 		bic	r2, r3, #983040
 4020 008c 3B68     		ldr	r3, [r7]
 4021 008e 9B69     		ldr	r3, [r3, #24]
 4022 0090 1B04     		lsls	r3, r3, #16
 4023 0092 1343     		orrs	r3, r3, r2
 4024 0094 FB60     		str	r3, [r7, #12]
1737:Drivers/STM32L4xx_HAL_Driver/Src/stm32l4xx_hal_tim_ex.c **** 
1738:Drivers/STM32L4xx_HAL_Driver/Src/stm32l4xx_hal_tim_ex.c ****   if (IS_TIM_BKIN2_INSTANCE(htim->Instance))
 4025              		.loc 1 1738 7 discriminator 2
 4026 0096 7B68     		ldr	r3, [r7, #4]
 4027 0098 1B68     		ldr	r3, [r3]
 4028              		.loc 1 1738 6 discriminator 2
 4029 009a 144A     		ldr	r2, .L196
 4030 009c 9342     		cmp	r3, r2
 4031 009e 15D1     		bne	.L195
1739:Drivers/STM32L4xx_HAL_Driver/Src/stm32l4xx_hal_tim_ex.c ****   {
1740:Drivers/STM32L4xx_HAL_Driver/Src/stm32l4xx_hal_tim_ex.c ****     /* Check the parameters */
1741:Drivers/STM32L4xx_HAL_Driver/Src/stm32l4xx_hal_tim_ex.c ****     assert_param(IS_TIM_BREAK2_STATE(sBreakDeadTimeConfig->Break2State));
1742:Drivers/STM32L4xx_HAL_Driver/Src/stm32l4xx_hal_tim_ex.c ****     assert_param(IS_TIM_BREAK2_POLARITY(sBreakDeadTimeConfig->Break2Polarity));
1743:Drivers/STM32L4xx_HAL_Driver/Src/stm32l4xx_hal_tim_ex.c ****     assert_param(IS_TIM_BREAK_FILTER(sBreakDeadTimeConfig->Break2Filter));
1744:Drivers/STM32L4xx_HAL_Driver/Src/stm32l4xx_hal_tim_ex.c **** 
1745:Drivers/STM32L4xx_HAL_Driver/Src/stm32l4xx_hal_tim_ex.c ****     /* Set the BREAK2 input related BDTR bits */
1746:Drivers/STM32L4xx_HAL_Driver/Src/stm32l4xx_hal_tim_ex.c ****     MODIFY_REG(tmpbdtr, TIM_BDTR_BK2F, (sBreakDeadTimeConfig->Break2Filter << TIM_BDTR_BK2F_Pos));
 4032              		.loc 1 1746 5
 4033 00a0 FB68     		ldr	r3, [r7, #12]
 4034 00a2 23F47002 		bic	r2, r3, #15728640
 4035 00a6 3B68     		ldr	r3, [r7]
 4036 00a8 5B6A     		ldr	r3, [r3, #36]
 4037 00aa 1B05     		lsls	r3, r3, #20
 4038 00ac 1343     		orrs	r3, r3, r2
 4039 00ae FB60     		str	r3, [r7, #12]
1747:Drivers/STM32L4xx_HAL_Driver/Src/stm32l4xx_hal_tim_ex.c ****     MODIFY_REG(tmpbdtr, TIM_BDTR_BK2E, sBreakDeadTimeConfig->Break2State);
 4040              		.loc 1 1747 5
 4041 00b0 FB68     		ldr	r3, [r7, #12]
 4042 00b2 23F08072 		bic	r2, r3, #16777216
 4043 00b6 3B68     		ldr	r3, [r7]
 4044 00b8 DB69     		ldr	r3, [r3, #28]
 4045 00ba 1343     		orrs	r3, r3, r2
 4046 00bc FB60     		str	r3, [r7, #12]
1748:Drivers/STM32L4xx_HAL_Driver/Src/stm32l4xx_hal_tim_ex.c ****     MODIFY_REG(tmpbdtr, TIM_BDTR_BK2P, sBreakDeadTimeConfig->Break2Polarity);
 4047              		.loc 1 1748 5
 4048 00be FB68     		ldr	r3, [r7, #12]
 4049 00c0 23F00072 		bic	r2, r3, #33554432
 4050 00c4 3B68     		ldr	r3, [r7]
 4051 00c6 1B6A     		ldr	r3, [r3, #32]
 4052 00c8 1343     		orrs	r3, r3, r2
 4053 00ca FB60     		str	r3, [r7, #12]
 4054              	.L195:
1749:Drivers/STM32L4xx_HAL_Driver/Src/stm32l4xx_hal_tim_ex.c ****   }
1750:Drivers/STM32L4xx_HAL_Driver/Src/stm32l4xx_hal_tim_ex.c **** 
1751:Drivers/STM32L4xx_HAL_Driver/Src/stm32l4xx_hal_tim_ex.c ****   /* Set TIMx_BDTR */
1752:Drivers/STM32L4xx_HAL_Driver/Src/stm32l4xx_hal_tim_ex.c ****   htim->Instance->BDTR = tmpbdtr;
ARM GAS  /tmp/cc9IMTcg.s 			page 104


 4055              		.loc 1 1752 7
 4056 00cc 7B68     		ldr	r3, [r7, #4]
 4057 00ce 1B68     		ldr	r3, [r3]
 4058              		.loc 1 1752 24
 4059 00d0 FA68     		ldr	r2, [r7, #12]
 4060 00d2 5A64     		str	r2, [r3, #68]
1753:Drivers/STM32L4xx_HAL_Driver/Src/stm32l4xx_hal_tim_ex.c **** 
1754:Drivers/STM32L4xx_HAL_Driver/Src/stm32l4xx_hal_tim_ex.c ****   __HAL_UNLOCK(htim);
 4061              		.loc 1 1754 3
 4062 00d4 7B68     		ldr	r3, [r7, #4]
 4063 00d6 0022     		movs	r2, #0
 4064 00d8 83F83C20 		strb	r2, [r3, #60]
1755:Drivers/STM32L4xx_HAL_Driver/Src/stm32l4xx_hal_tim_ex.c **** 
1756:Drivers/STM32L4xx_HAL_Driver/Src/stm32l4xx_hal_tim_ex.c ****   return HAL_OK;
 4065              		.loc 1 1756 10
 4066 00dc 0023     		movs	r3, #0
 4067              	.L194:
1757:Drivers/STM32L4xx_HAL_Driver/Src/stm32l4xx_hal_tim_ex.c **** }
 4068              		.loc 1 1757 1
 4069 00de 1846     		mov	r0, r3
 4070 00e0 1437     		adds	r7, r7, #20
 4071              	.LCFI159:
 4072              		.cfi_def_cfa_offset 4
 4073 00e2 BD46     		mov	sp, r7
 4074              	.LCFI160:
 4075              		.cfi_def_cfa_register 13
 4076              		@ sp needed
 4077 00e4 5DF8047B 		ldr	r7, [sp], #4
 4078              	.LCFI161:
 4079              		.cfi_restore 7
 4080              		.cfi_def_cfa_offset 0
 4081 00e8 7047     		bx	lr
 4082              	.L197:
 4083 00ea 00BF     		.align	2
 4084              	.L196:
 4085 00ec 002C0140 		.word	1073818624
 4086              		.cfi_endproc
 4087              	.LFE160:
 4089              		.section	.text.HAL_TIMEx_ConfigBreakInput,"ax",%progbits
 4090              		.align	1
 4091              		.global	HAL_TIMEx_ConfigBreakInput
 4092              		.syntax unified
 4093              		.thumb
 4094              		.thumb_func
 4095              		.fpu fpv4-sp-d16
 4097              	HAL_TIMEx_ConfigBreakInput:
 4098              	.LFB161:
1758:Drivers/STM32L4xx_HAL_Driver/Src/stm32l4xx_hal_tim_ex.c **** 
1759:Drivers/STM32L4xx_HAL_Driver/Src/stm32l4xx_hal_tim_ex.c **** /**
1760:Drivers/STM32L4xx_HAL_Driver/Src/stm32l4xx_hal_tim_ex.c ****   * @brief  Configures the break input source.
1761:Drivers/STM32L4xx_HAL_Driver/Src/stm32l4xx_hal_tim_ex.c ****   * @param  htim TIM handle.
1762:Drivers/STM32L4xx_HAL_Driver/Src/stm32l4xx_hal_tim_ex.c ****   * @param  BreakInput Break input to configure
1763:Drivers/STM32L4xx_HAL_Driver/Src/stm32l4xx_hal_tim_ex.c ****   *          This parameter can be one of the following values:
1764:Drivers/STM32L4xx_HAL_Driver/Src/stm32l4xx_hal_tim_ex.c ****   *            @arg TIM_BREAKINPUT_BRK: Timer break input
1765:Drivers/STM32L4xx_HAL_Driver/Src/stm32l4xx_hal_tim_ex.c ****   *            @arg TIM_BREAKINPUT_BRK2: Timer break 2 input
1766:Drivers/STM32L4xx_HAL_Driver/Src/stm32l4xx_hal_tim_ex.c ****   * @param  sBreakInputConfig Break input source configuration
1767:Drivers/STM32L4xx_HAL_Driver/Src/stm32l4xx_hal_tim_ex.c ****   * @retval HAL status
ARM GAS  /tmp/cc9IMTcg.s 			page 105


1768:Drivers/STM32L4xx_HAL_Driver/Src/stm32l4xx_hal_tim_ex.c ****   */
1769:Drivers/STM32L4xx_HAL_Driver/Src/stm32l4xx_hal_tim_ex.c **** HAL_StatusTypeDef HAL_TIMEx_ConfigBreakInput(TIM_HandleTypeDef *htim,
1770:Drivers/STM32L4xx_HAL_Driver/Src/stm32l4xx_hal_tim_ex.c ****                                              uint32_t BreakInput,
1771:Drivers/STM32L4xx_HAL_Driver/Src/stm32l4xx_hal_tim_ex.c ****                                              TIMEx_BreakInputConfigTypeDef *sBreakInputConfig)
1772:Drivers/STM32L4xx_HAL_Driver/Src/stm32l4xx_hal_tim_ex.c **** 
1773:Drivers/STM32L4xx_HAL_Driver/Src/stm32l4xx_hal_tim_ex.c **** {
 4099              		.loc 1 1773 1
 4100              		.cfi_startproc
 4101              		@ args = 0, pretend = 0, frame = 40
 4102              		@ frame_needed = 1, uses_anonymous_args = 0
 4103              		@ link register save eliminated.
 4104 0000 80B4     		push	{r7}
 4105              	.LCFI162:
 4106              		.cfi_def_cfa_offset 4
 4107              		.cfi_offset 7, -4
 4108 0002 8BB0     		sub	sp, sp, #44
 4109              	.LCFI163:
 4110              		.cfi_def_cfa_offset 48
 4111 0004 00AF     		add	r7, sp, #0
 4112              	.LCFI164:
 4113              		.cfi_def_cfa_register 7
 4114 0006 F860     		str	r0, [r7, #12]
 4115 0008 B960     		str	r1, [r7, #8]
 4116 000a 7A60     		str	r2, [r7, #4]
1774:Drivers/STM32L4xx_HAL_Driver/Src/stm32l4xx_hal_tim_ex.c ****   uint32_t tmporx;
1775:Drivers/STM32L4xx_HAL_Driver/Src/stm32l4xx_hal_tim_ex.c ****   uint32_t bkin_enable_mask;
1776:Drivers/STM32L4xx_HAL_Driver/Src/stm32l4xx_hal_tim_ex.c ****   uint32_t bkin_polarity_mask;
1777:Drivers/STM32L4xx_HAL_Driver/Src/stm32l4xx_hal_tim_ex.c ****   uint32_t bkin_enable_bitpos;
1778:Drivers/STM32L4xx_HAL_Driver/Src/stm32l4xx_hal_tim_ex.c ****   uint32_t bkin_polarity_bitpos;
1779:Drivers/STM32L4xx_HAL_Driver/Src/stm32l4xx_hal_tim_ex.c **** 
1780:Drivers/STM32L4xx_HAL_Driver/Src/stm32l4xx_hal_tim_ex.c ****   /* Check the parameters */
1781:Drivers/STM32L4xx_HAL_Driver/Src/stm32l4xx_hal_tim_ex.c ****   assert_param(IS_TIM_BREAK_INSTANCE(htim->Instance));
1782:Drivers/STM32L4xx_HAL_Driver/Src/stm32l4xx_hal_tim_ex.c ****   assert_param(IS_TIM_BREAKINPUT(BreakInput));
1783:Drivers/STM32L4xx_HAL_Driver/Src/stm32l4xx_hal_tim_ex.c ****   assert_param(IS_TIM_BREAKINPUTSOURCE(sBreakInputConfig->Source));
1784:Drivers/STM32L4xx_HAL_Driver/Src/stm32l4xx_hal_tim_ex.c ****   assert_param(IS_TIM_BREAKINPUTSOURCE_STATE(sBreakInputConfig->Enable));
1785:Drivers/STM32L4xx_HAL_Driver/Src/stm32l4xx_hal_tim_ex.c **** #if defined(DFSDM1_Channel0)
1786:Drivers/STM32L4xx_HAL_Driver/Src/stm32l4xx_hal_tim_ex.c ****   if (sBreakInputConfig->Source != TIM_BREAKINPUTSOURCE_DFSDM1)
1787:Drivers/STM32L4xx_HAL_Driver/Src/stm32l4xx_hal_tim_ex.c ****   {
1788:Drivers/STM32L4xx_HAL_Driver/Src/stm32l4xx_hal_tim_ex.c ****     assert_param(IS_TIM_BREAKINPUTSOURCE_POLARITY(sBreakInputConfig->Polarity));
1789:Drivers/STM32L4xx_HAL_Driver/Src/stm32l4xx_hal_tim_ex.c ****   }
1790:Drivers/STM32L4xx_HAL_Driver/Src/stm32l4xx_hal_tim_ex.c **** #else
1791:Drivers/STM32L4xx_HAL_Driver/Src/stm32l4xx_hal_tim_ex.c ****   assert_param(IS_TIM_BREAKINPUTSOURCE_POLARITY(sBreakInputConfig->Polarity));
1792:Drivers/STM32L4xx_HAL_Driver/Src/stm32l4xx_hal_tim_ex.c **** #endif /* DFSDM1_Channel0 */
1793:Drivers/STM32L4xx_HAL_Driver/Src/stm32l4xx_hal_tim_ex.c **** 
1794:Drivers/STM32L4xx_HAL_Driver/Src/stm32l4xx_hal_tim_ex.c ****   /* Check input state */
1795:Drivers/STM32L4xx_HAL_Driver/Src/stm32l4xx_hal_tim_ex.c ****   __HAL_LOCK(htim);
 4117              		.loc 1 1795 3
 4118 000c FB68     		ldr	r3, [r7, #12]
 4119 000e 93F83C30 		ldrb	r3, [r3, #60]	@ zero_extendqisi2
 4120 0012 012B     		cmp	r3, #1
 4121 0014 01D1     		bne	.L199
 4122              		.loc 1 1795 3 is_stmt 0 discriminator 1
 4123 0016 0223     		movs	r3, #2
 4124 0018 8BE0     		b	.L200
 4125              	.L199:
 4126              		.loc 1 1795 3 discriminator 2
 4127 001a FB68     		ldr	r3, [r7, #12]
ARM GAS  /tmp/cc9IMTcg.s 			page 106


 4128 001c 0122     		movs	r2, #1
 4129 001e 83F83C20 		strb	r2, [r3, #60]
1796:Drivers/STM32L4xx_HAL_Driver/Src/stm32l4xx_hal_tim_ex.c **** 
1797:Drivers/STM32L4xx_HAL_Driver/Src/stm32l4xx_hal_tim_ex.c ****   switch (sBreakInputConfig->Source)
 4130              		.loc 1 1797 28 is_stmt 1 discriminator 2
 4131 0022 7B68     		ldr	r3, [r7, #4]
 4132 0024 1B68     		ldr	r3, [r3]
 4133              		.loc 1 1797 3 discriminator 2
 4134 0026 042B     		cmp	r3, #4
 4135 0028 1AD0     		beq	.L201
 4136              		.loc 1 1797 3 is_stmt 0
 4137 002a 042B     		cmp	r3, #4
 4138 002c 22D8     		bhi	.L202
 4139 002e 012B     		cmp	r3, #1
 4140 0030 02D0     		beq	.L203
 4141 0032 022B     		cmp	r3, #2
 4142 0034 0AD0     		beq	.L204
 4143 0036 1DE0     		b	.L202
 4144              	.L203:
1798:Drivers/STM32L4xx_HAL_Driver/Src/stm32l4xx_hal_tim_ex.c ****   {
1799:Drivers/STM32L4xx_HAL_Driver/Src/stm32l4xx_hal_tim_ex.c ****     case TIM_BREAKINPUTSOURCE_BKIN:
1800:Drivers/STM32L4xx_HAL_Driver/Src/stm32l4xx_hal_tim_ex.c ****     {
1801:Drivers/STM32L4xx_HAL_Driver/Src/stm32l4xx_hal_tim_ex.c ****       bkin_enable_mask = TIM1_OR2_BKINE;
 4145              		.loc 1 1801 24 is_stmt 1
 4146 0038 0123     		movs	r3, #1
 4147 003a 7B62     		str	r3, [r7, #36]
1802:Drivers/STM32L4xx_HAL_Driver/Src/stm32l4xx_hal_tim_ex.c ****       bkin_enable_bitpos = TIM1_OR2_BKINE_Pos;
 4148              		.loc 1 1802 26
 4149 003c 0023     		movs	r3, #0
 4150 003e FB61     		str	r3, [r7, #28]
1803:Drivers/STM32L4xx_HAL_Driver/Src/stm32l4xx_hal_tim_ex.c ****       bkin_polarity_mask = TIM1_OR2_BKINP;
 4151              		.loc 1 1803 26
 4152 0040 4FF40073 		mov	r3, #512
 4153 0044 3B62     		str	r3, [r7, #32]
1804:Drivers/STM32L4xx_HAL_Driver/Src/stm32l4xx_hal_tim_ex.c ****       bkin_polarity_bitpos = TIM1_OR2_BKINP_Pos;
 4154              		.loc 1 1804 28
 4155 0046 0923     		movs	r3, #9
 4156 0048 BB61     		str	r3, [r7, #24]
1805:Drivers/STM32L4xx_HAL_Driver/Src/stm32l4xx_hal_tim_ex.c ****       break;
 4157              		.loc 1 1805 7
 4158 004a 1CE0     		b	.L205
 4159              	.L204:
1806:Drivers/STM32L4xx_HAL_Driver/Src/stm32l4xx_hal_tim_ex.c ****     }
1807:Drivers/STM32L4xx_HAL_Driver/Src/stm32l4xx_hal_tim_ex.c ****     case TIM_BREAKINPUTSOURCE_COMP1:
1808:Drivers/STM32L4xx_HAL_Driver/Src/stm32l4xx_hal_tim_ex.c ****     {
1809:Drivers/STM32L4xx_HAL_Driver/Src/stm32l4xx_hal_tim_ex.c ****       bkin_enable_mask = TIM1_OR2_BKCMP1E;
 4160              		.loc 1 1809 24
 4161 004c 0223     		movs	r3, #2
 4162 004e 7B62     		str	r3, [r7, #36]
1810:Drivers/STM32L4xx_HAL_Driver/Src/stm32l4xx_hal_tim_ex.c ****       bkin_enable_bitpos = TIM1_OR2_BKCMP1E_Pos;
 4163              		.loc 1 1810 26
 4164 0050 0123     		movs	r3, #1
 4165 0052 FB61     		str	r3, [r7, #28]
1811:Drivers/STM32L4xx_HAL_Driver/Src/stm32l4xx_hal_tim_ex.c ****       bkin_polarity_mask = TIM1_OR2_BKCMP1P;
 4166              		.loc 1 1811 26
 4167 0054 4FF48063 		mov	r3, #1024
 4168 0058 3B62     		str	r3, [r7, #32]
ARM GAS  /tmp/cc9IMTcg.s 			page 107


1812:Drivers/STM32L4xx_HAL_Driver/Src/stm32l4xx_hal_tim_ex.c ****       bkin_polarity_bitpos = TIM1_OR2_BKCMP1P_Pos;
 4169              		.loc 1 1812 28
 4170 005a 0A23     		movs	r3, #10
 4171 005c BB61     		str	r3, [r7, #24]
1813:Drivers/STM32L4xx_HAL_Driver/Src/stm32l4xx_hal_tim_ex.c ****       break;
 4172              		.loc 1 1813 7
 4173 005e 12E0     		b	.L205
 4174              	.L201:
1814:Drivers/STM32L4xx_HAL_Driver/Src/stm32l4xx_hal_tim_ex.c ****     }
1815:Drivers/STM32L4xx_HAL_Driver/Src/stm32l4xx_hal_tim_ex.c ****     case TIM_BREAKINPUTSOURCE_COMP2:
1816:Drivers/STM32L4xx_HAL_Driver/Src/stm32l4xx_hal_tim_ex.c ****     {
1817:Drivers/STM32L4xx_HAL_Driver/Src/stm32l4xx_hal_tim_ex.c ****       bkin_enable_mask = TIM1_OR2_BKCMP2E;
 4175              		.loc 1 1817 24
 4176 0060 0423     		movs	r3, #4
 4177 0062 7B62     		str	r3, [r7, #36]
1818:Drivers/STM32L4xx_HAL_Driver/Src/stm32l4xx_hal_tim_ex.c ****       bkin_enable_bitpos = TIM1_OR2_BKCMP2E_Pos;
 4178              		.loc 1 1818 26
 4179 0064 0223     		movs	r3, #2
 4180 0066 FB61     		str	r3, [r7, #28]
1819:Drivers/STM32L4xx_HAL_Driver/Src/stm32l4xx_hal_tim_ex.c ****       bkin_polarity_mask = TIM1_OR2_BKCMP2P;
 4181              		.loc 1 1819 26
 4182 0068 4FF40063 		mov	r3, #2048
 4183 006c 3B62     		str	r3, [r7, #32]
1820:Drivers/STM32L4xx_HAL_Driver/Src/stm32l4xx_hal_tim_ex.c ****       bkin_polarity_bitpos = TIM1_OR2_BKCMP2P_Pos;
 4184              		.loc 1 1820 28
 4185 006e 0B23     		movs	r3, #11
 4186 0070 BB61     		str	r3, [r7, #24]
1821:Drivers/STM32L4xx_HAL_Driver/Src/stm32l4xx_hal_tim_ex.c ****       break;
 4187              		.loc 1 1821 7
 4188 0072 08E0     		b	.L205
 4189              	.L202:
1822:Drivers/STM32L4xx_HAL_Driver/Src/stm32l4xx_hal_tim_ex.c ****     }
1823:Drivers/STM32L4xx_HAL_Driver/Src/stm32l4xx_hal_tim_ex.c **** #if defined(DFSDM1_Channel0)
1824:Drivers/STM32L4xx_HAL_Driver/Src/stm32l4xx_hal_tim_ex.c ****     case TIM_BREAKINPUTSOURCE_DFSDM1:
1825:Drivers/STM32L4xx_HAL_Driver/Src/stm32l4xx_hal_tim_ex.c ****     {
1826:Drivers/STM32L4xx_HAL_Driver/Src/stm32l4xx_hal_tim_ex.c ****       bkin_enable_mask = TIM1_OR2_BKDF1BK0E;
1827:Drivers/STM32L4xx_HAL_Driver/Src/stm32l4xx_hal_tim_ex.c ****       bkin_enable_bitpos = 8U;
1828:Drivers/STM32L4xx_HAL_Driver/Src/stm32l4xx_hal_tim_ex.c ****       bkin_polarity_mask = 0U;
1829:Drivers/STM32L4xx_HAL_Driver/Src/stm32l4xx_hal_tim_ex.c ****       bkin_polarity_bitpos = 0U;
1830:Drivers/STM32L4xx_HAL_Driver/Src/stm32l4xx_hal_tim_ex.c ****       break;
1831:Drivers/STM32L4xx_HAL_Driver/Src/stm32l4xx_hal_tim_ex.c ****     }
1832:Drivers/STM32L4xx_HAL_Driver/Src/stm32l4xx_hal_tim_ex.c **** #endif /* DFSDM1_Channel0 */
1833:Drivers/STM32L4xx_HAL_Driver/Src/stm32l4xx_hal_tim_ex.c **** 
1834:Drivers/STM32L4xx_HAL_Driver/Src/stm32l4xx_hal_tim_ex.c ****     default:
1835:Drivers/STM32L4xx_HAL_Driver/Src/stm32l4xx_hal_tim_ex.c ****     {
1836:Drivers/STM32L4xx_HAL_Driver/Src/stm32l4xx_hal_tim_ex.c ****       bkin_enable_mask = 0U;
 4190              		.loc 1 1836 24
 4191 0074 0023     		movs	r3, #0
 4192 0076 7B62     		str	r3, [r7, #36]
1837:Drivers/STM32L4xx_HAL_Driver/Src/stm32l4xx_hal_tim_ex.c ****       bkin_polarity_mask = 0U;
 4193              		.loc 1 1837 26
 4194 0078 0023     		movs	r3, #0
 4195 007a 3B62     		str	r3, [r7, #32]
1838:Drivers/STM32L4xx_HAL_Driver/Src/stm32l4xx_hal_tim_ex.c ****       bkin_enable_bitpos = 0U;
 4196              		.loc 1 1838 26
 4197 007c 0023     		movs	r3, #0
 4198 007e FB61     		str	r3, [r7, #28]
ARM GAS  /tmp/cc9IMTcg.s 			page 108


1839:Drivers/STM32L4xx_HAL_Driver/Src/stm32l4xx_hal_tim_ex.c ****       bkin_polarity_bitpos = 0U;
 4199              		.loc 1 1839 28
 4200 0080 0023     		movs	r3, #0
 4201 0082 BB61     		str	r3, [r7, #24]
1840:Drivers/STM32L4xx_HAL_Driver/Src/stm32l4xx_hal_tim_ex.c ****       break;
 4202              		.loc 1 1840 7
 4203 0084 00BF     		nop
 4204              	.L205:
1841:Drivers/STM32L4xx_HAL_Driver/Src/stm32l4xx_hal_tim_ex.c ****     }
1842:Drivers/STM32L4xx_HAL_Driver/Src/stm32l4xx_hal_tim_ex.c ****   }
1843:Drivers/STM32L4xx_HAL_Driver/Src/stm32l4xx_hal_tim_ex.c **** 
1844:Drivers/STM32L4xx_HAL_Driver/Src/stm32l4xx_hal_tim_ex.c ****   switch (BreakInput)
 4205              		.loc 1 1844 3
 4206 0086 BB68     		ldr	r3, [r7, #8]
 4207 0088 012B     		cmp	r3, #1
 4208 008a 03D0     		beq	.L206
 4209 008c BB68     		ldr	r3, [r7, #8]
 4210 008e 022B     		cmp	r3, #2
 4211 0090 25D0     		beq	.L207
1845:Drivers/STM32L4xx_HAL_Driver/Src/stm32l4xx_hal_tim_ex.c ****   {
1846:Drivers/STM32L4xx_HAL_Driver/Src/stm32l4xx_hal_tim_ex.c ****     case TIM_BREAKINPUT_BRK:
1847:Drivers/STM32L4xx_HAL_Driver/Src/stm32l4xx_hal_tim_ex.c ****     {
1848:Drivers/STM32L4xx_HAL_Driver/Src/stm32l4xx_hal_tim_ex.c ****       /* Get the TIMx_OR2 register value */
1849:Drivers/STM32L4xx_HAL_Driver/Src/stm32l4xx_hal_tim_ex.c ****       tmporx = htim->Instance->OR2;
1850:Drivers/STM32L4xx_HAL_Driver/Src/stm32l4xx_hal_tim_ex.c **** 
1851:Drivers/STM32L4xx_HAL_Driver/Src/stm32l4xx_hal_tim_ex.c ****       /* Enable the break input */
1852:Drivers/STM32L4xx_HAL_Driver/Src/stm32l4xx_hal_tim_ex.c ****       tmporx &= ~bkin_enable_mask;
1853:Drivers/STM32L4xx_HAL_Driver/Src/stm32l4xx_hal_tim_ex.c ****       tmporx |= (sBreakInputConfig->Enable << bkin_enable_bitpos) & bkin_enable_mask;
1854:Drivers/STM32L4xx_HAL_Driver/Src/stm32l4xx_hal_tim_ex.c **** 
1855:Drivers/STM32L4xx_HAL_Driver/Src/stm32l4xx_hal_tim_ex.c ****       /* Set the break input polarity */
1856:Drivers/STM32L4xx_HAL_Driver/Src/stm32l4xx_hal_tim_ex.c **** #if defined(DFSDM1_Channel0)
1857:Drivers/STM32L4xx_HAL_Driver/Src/stm32l4xx_hal_tim_ex.c ****       if (sBreakInputConfig->Source != TIM_BREAKINPUTSOURCE_DFSDM1)
1858:Drivers/STM32L4xx_HAL_Driver/Src/stm32l4xx_hal_tim_ex.c **** #endif /* DFSDM1_Channel0 */
1859:Drivers/STM32L4xx_HAL_Driver/Src/stm32l4xx_hal_tim_ex.c ****       {
1860:Drivers/STM32L4xx_HAL_Driver/Src/stm32l4xx_hal_tim_ex.c ****         tmporx &= ~bkin_polarity_mask;
1861:Drivers/STM32L4xx_HAL_Driver/Src/stm32l4xx_hal_tim_ex.c ****         tmporx |= (sBreakInputConfig->Polarity << bkin_polarity_bitpos) & bkin_polarity_mask;
1862:Drivers/STM32L4xx_HAL_Driver/Src/stm32l4xx_hal_tim_ex.c ****       }
1863:Drivers/STM32L4xx_HAL_Driver/Src/stm32l4xx_hal_tim_ex.c **** 
1864:Drivers/STM32L4xx_HAL_Driver/Src/stm32l4xx_hal_tim_ex.c ****       /* Set TIMx_OR2 */
1865:Drivers/STM32L4xx_HAL_Driver/Src/stm32l4xx_hal_tim_ex.c ****       htim->Instance->OR2 = tmporx;
1866:Drivers/STM32L4xx_HAL_Driver/Src/stm32l4xx_hal_tim_ex.c ****       break;
1867:Drivers/STM32L4xx_HAL_Driver/Src/stm32l4xx_hal_tim_ex.c ****     }
1868:Drivers/STM32L4xx_HAL_Driver/Src/stm32l4xx_hal_tim_ex.c ****     case TIM_BREAKINPUT_BRK2:
1869:Drivers/STM32L4xx_HAL_Driver/Src/stm32l4xx_hal_tim_ex.c ****     {
1870:Drivers/STM32L4xx_HAL_Driver/Src/stm32l4xx_hal_tim_ex.c ****       /* Get the TIMx_OR3 register value */
1871:Drivers/STM32L4xx_HAL_Driver/Src/stm32l4xx_hal_tim_ex.c ****       tmporx = htim->Instance->OR3;
1872:Drivers/STM32L4xx_HAL_Driver/Src/stm32l4xx_hal_tim_ex.c **** 
1873:Drivers/STM32L4xx_HAL_Driver/Src/stm32l4xx_hal_tim_ex.c ****       /* Enable the break input */
1874:Drivers/STM32L4xx_HAL_Driver/Src/stm32l4xx_hal_tim_ex.c ****       tmporx &= ~bkin_enable_mask;
1875:Drivers/STM32L4xx_HAL_Driver/Src/stm32l4xx_hal_tim_ex.c ****       tmporx |= (sBreakInputConfig->Enable << bkin_enable_bitpos) & bkin_enable_mask;
1876:Drivers/STM32L4xx_HAL_Driver/Src/stm32l4xx_hal_tim_ex.c **** 
1877:Drivers/STM32L4xx_HAL_Driver/Src/stm32l4xx_hal_tim_ex.c ****       /* Set the break input polarity */
1878:Drivers/STM32L4xx_HAL_Driver/Src/stm32l4xx_hal_tim_ex.c **** #if defined(DFSDM1_Channel0)
1879:Drivers/STM32L4xx_HAL_Driver/Src/stm32l4xx_hal_tim_ex.c ****       if (sBreakInputConfig->Source != TIM_BREAKINPUTSOURCE_DFSDM1)
1880:Drivers/STM32L4xx_HAL_Driver/Src/stm32l4xx_hal_tim_ex.c **** #endif /* DFSDM1_Channel0 */
1881:Drivers/STM32L4xx_HAL_Driver/Src/stm32l4xx_hal_tim_ex.c ****       {
1882:Drivers/STM32L4xx_HAL_Driver/Src/stm32l4xx_hal_tim_ex.c ****         tmporx &= ~bkin_polarity_mask;
ARM GAS  /tmp/cc9IMTcg.s 			page 109


1883:Drivers/STM32L4xx_HAL_Driver/Src/stm32l4xx_hal_tim_ex.c ****         tmporx |= (sBreakInputConfig->Polarity << bkin_polarity_bitpos) & bkin_polarity_mask;
1884:Drivers/STM32L4xx_HAL_Driver/Src/stm32l4xx_hal_tim_ex.c ****       }
1885:Drivers/STM32L4xx_HAL_Driver/Src/stm32l4xx_hal_tim_ex.c **** 
1886:Drivers/STM32L4xx_HAL_Driver/Src/stm32l4xx_hal_tim_ex.c ****       /* Set TIMx_OR3 */
1887:Drivers/STM32L4xx_HAL_Driver/Src/stm32l4xx_hal_tim_ex.c ****       htim->Instance->OR3 = tmporx;
1888:Drivers/STM32L4xx_HAL_Driver/Src/stm32l4xx_hal_tim_ex.c ****       break;
1889:Drivers/STM32L4xx_HAL_Driver/Src/stm32l4xx_hal_tim_ex.c ****     }
1890:Drivers/STM32L4xx_HAL_Driver/Src/stm32l4xx_hal_tim_ex.c ****     default:
1891:Drivers/STM32L4xx_HAL_Driver/Src/stm32l4xx_hal_tim_ex.c ****       break;
 4212              		.loc 1 1891 7
 4213 0092 49E0     		b	.L209
 4214              	.L206:
1849:Drivers/STM32L4xx_HAL_Driver/Src/stm32l4xx_hal_tim_ex.c **** 
 4215              		.loc 1 1849 20
 4216 0094 FB68     		ldr	r3, [r7, #12]
 4217 0096 1B68     		ldr	r3, [r3]
1849:Drivers/STM32L4xx_HAL_Driver/Src/stm32l4xx_hal_tim_ex.c **** 
 4218              		.loc 1 1849 14
 4219 0098 1B6E     		ldr	r3, [r3, #96]
 4220 009a 7B61     		str	r3, [r7, #20]
1852:Drivers/STM32L4xx_HAL_Driver/Src/stm32l4xx_hal_tim_ex.c ****       tmporx |= (sBreakInputConfig->Enable << bkin_enable_bitpos) & bkin_enable_mask;
 4221              		.loc 1 1852 17
 4222 009c 7B6A     		ldr	r3, [r7, #36]
 4223 009e DB43     		mvns	r3, r3
1852:Drivers/STM32L4xx_HAL_Driver/Src/stm32l4xx_hal_tim_ex.c ****       tmporx |= (sBreakInputConfig->Enable << bkin_enable_bitpos) & bkin_enable_mask;
 4224              		.loc 1 1852 14
 4225 00a0 7A69     		ldr	r2, [r7, #20]
 4226 00a2 1340     		ands	r3, r3, r2
 4227 00a4 7B61     		str	r3, [r7, #20]
1853:Drivers/STM32L4xx_HAL_Driver/Src/stm32l4xx_hal_tim_ex.c **** 
 4228              		.loc 1 1853 35
 4229 00a6 7B68     		ldr	r3, [r7, #4]
 4230 00a8 5A68     		ldr	r2, [r3, #4]
1853:Drivers/STM32L4xx_HAL_Driver/Src/stm32l4xx_hal_tim_ex.c **** 
 4231              		.loc 1 1853 44
 4232 00aa FB69     		ldr	r3, [r7, #28]
 4233 00ac 9A40     		lsls	r2, r2, r3
1853:Drivers/STM32L4xx_HAL_Driver/Src/stm32l4xx_hal_tim_ex.c **** 
 4234              		.loc 1 1853 67
 4235 00ae 7B6A     		ldr	r3, [r7, #36]
 4236 00b0 1340     		ands	r3, r3, r2
1853:Drivers/STM32L4xx_HAL_Driver/Src/stm32l4xx_hal_tim_ex.c **** 
 4237              		.loc 1 1853 14
 4238 00b2 7A69     		ldr	r2, [r7, #20]
 4239 00b4 1343     		orrs	r3, r3, r2
 4240 00b6 7B61     		str	r3, [r7, #20]
1860:Drivers/STM32L4xx_HAL_Driver/Src/stm32l4xx_hal_tim_ex.c ****         tmporx |= (sBreakInputConfig->Polarity << bkin_polarity_bitpos) & bkin_polarity_mask;
 4241              		.loc 1 1860 19
 4242 00b8 3B6A     		ldr	r3, [r7, #32]
 4243 00ba DB43     		mvns	r3, r3
1860:Drivers/STM32L4xx_HAL_Driver/Src/stm32l4xx_hal_tim_ex.c ****         tmporx |= (sBreakInputConfig->Polarity << bkin_polarity_bitpos) & bkin_polarity_mask;
 4244              		.loc 1 1860 16
 4245 00bc 7A69     		ldr	r2, [r7, #20]
 4246 00be 1340     		ands	r3, r3, r2
 4247 00c0 7B61     		str	r3, [r7, #20]
1861:Drivers/STM32L4xx_HAL_Driver/Src/stm32l4xx_hal_tim_ex.c ****       }
 4248              		.loc 1 1861 37
ARM GAS  /tmp/cc9IMTcg.s 			page 110


 4249 00c2 7B68     		ldr	r3, [r7, #4]
 4250 00c4 9A68     		ldr	r2, [r3, #8]
1861:Drivers/STM32L4xx_HAL_Driver/Src/stm32l4xx_hal_tim_ex.c ****       }
 4251              		.loc 1 1861 48
 4252 00c6 BB69     		ldr	r3, [r7, #24]
 4253 00c8 9A40     		lsls	r2, r2, r3
1861:Drivers/STM32L4xx_HAL_Driver/Src/stm32l4xx_hal_tim_ex.c ****       }
 4254              		.loc 1 1861 73
 4255 00ca 3B6A     		ldr	r3, [r7, #32]
 4256 00cc 1340     		ands	r3, r3, r2
1861:Drivers/STM32L4xx_HAL_Driver/Src/stm32l4xx_hal_tim_ex.c ****       }
 4257              		.loc 1 1861 16
 4258 00ce 7A69     		ldr	r2, [r7, #20]
 4259 00d0 1343     		orrs	r3, r3, r2
 4260 00d2 7B61     		str	r3, [r7, #20]
1865:Drivers/STM32L4xx_HAL_Driver/Src/stm32l4xx_hal_tim_ex.c ****       break;
 4261              		.loc 1 1865 11
 4262 00d4 FB68     		ldr	r3, [r7, #12]
 4263 00d6 1B68     		ldr	r3, [r3]
1865:Drivers/STM32L4xx_HAL_Driver/Src/stm32l4xx_hal_tim_ex.c ****       break;
 4264              		.loc 1 1865 27
 4265 00d8 7A69     		ldr	r2, [r7, #20]
 4266 00da 1A66     		str	r2, [r3, #96]
1866:Drivers/STM32L4xx_HAL_Driver/Src/stm32l4xx_hal_tim_ex.c ****     }
 4267              		.loc 1 1866 7
 4268 00dc 24E0     		b	.L209
 4269              	.L207:
1871:Drivers/STM32L4xx_HAL_Driver/Src/stm32l4xx_hal_tim_ex.c **** 
 4270              		.loc 1 1871 20
 4271 00de FB68     		ldr	r3, [r7, #12]
 4272 00e0 1B68     		ldr	r3, [r3]
1871:Drivers/STM32L4xx_HAL_Driver/Src/stm32l4xx_hal_tim_ex.c **** 
 4273              		.loc 1 1871 14
 4274 00e2 5B6E     		ldr	r3, [r3, #100]
 4275 00e4 7B61     		str	r3, [r7, #20]
1874:Drivers/STM32L4xx_HAL_Driver/Src/stm32l4xx_hal_tim_ex.c ****       tmporx |= (sBreakInputConfig->Enable << bkin_enable_bitpos) & bkin_enable_mask;
 4276              		.loc 1 1874 17
 4277 00e6 7B6A     		ldr	r3, [r7, #36]
 4278 00e8 DB43     		mvns	r3, r3
1874:Drivers/STM32L4xx_HAL_Driver/Src/stm32l4xx_hal_tim_ex.c ****       tmporx |= (sBreakInputConfig->Enable << bkin_enable_bitpos) & bkin_enable_mask;
 4279              		.loc 1 1874 14
 4280 00ea 7A69     		ldr	r2, [r7, #20]
 4281 00ec 1340     		ands	r3, r3, r2
 4282 00ee 7B61     		str	r3, [r7, #20]
1875:Drivers/STM32L4xx_HAL_Driver/Src/stm32l4xx_hal_tim_ex.c **** 
 4283              		.loc 1 1875 35
 4284 00f0 7B68     		ldr	r3, [r7, #4]
 4285 00f2 5A68     		ldr	r2, [r3, #4]
1875:Drivers/STM32L4xx_HAL_Driver/Src/stm32l4xx_hal_tim_ex.c **** 
 4286              		.loc 1 1875 44
 4287 00f4 FB69     		ldr	r3, [r7, #28]
 4288 00f6 9A40     		lsls	r2, r2, r3
1875:Drivers/STM32L4xx_HAL_Driver/Src/stm32l4xx_hal_tim_ex.c **** 
 4289              		.loc 1 1875 67
 4290 00f8 7B6A     		ldr	r3, [r7, #36]
 4291 00fa 1340     		ands	r3, r3, r2
1875:Drivers/STM32L4xx_HAL_Driver/Src/stm32l4xx_hal_tim_ex.c **** 
ARM GAS  /tmp/cc9IMTcg.s 			page 111


 4292              		.loc 1 1875 14
 4293 00fc 7A69     		ldr	r2, [r7, #20]
 4294 00fe 1343     		orrs	r3, r3, r2
 4295 0100 7B61     		str	r3, [r7, #20]
1882:Drivers/STM32L4xx_HAL_Driver/Src/stm32l4xx_hal_tim_ex.c ****         tmporx |= (sBreakInputConfig->Polarity << bkin_polarity_bitpos) & bkin_polarity_mask;
 4296              		.loc 1 1882 19
 4297 0102 3B6A     		ldr	r3, [r7, #32]
 4298 0104 DB43     		mvns	r3, r3
1882:Drivers/STM32L4xx_HAL_Driver/Src/stm32l4xx_hal_tim_ex.c ****         tmporx |= (sBreakInputConfig->Polarity << bkin_polarity_bitpos) & bkin_polarity_mask;
 4299              		.loc 1 1882 16
 4300 0106 7A69     		ldr	r2, [r7, #20]
 4301 0108 1340     		ands	r3, r3, r2
 4302 010a 7B61     		str	r3, [r7, #20]
1883:Drivers/STM32L4xx_HAL_Driver/Src/stm32l4xx_hal_tim_ex.c ****       }
 4303              		.loc 1 1883 37
 4304 010c 7B68     		ldr	r3, [r7, #4]
 4305 010e 9A68     		ldr	r2, [r3, #8]
1883:Drivers/STM32L4xx_HAL_Driver/Src/stm32l4xx_hal_tim_ex.c ****       }
 4306              		.loc 1 1883 48
 4307 0110 BB69     		ldr	r3, [r7, #24]
 4308 0112 9A40     		lsls	r2, r2, r3
1883:Drivers/STM32L4xx_HAL_Driver/Src/stm32l4xx_hal_tim_ex.c ****       }
 4309              		.loc 1 1883 73
 4310 0114 3B6A     		ldr	r3, [r7, #32]
 4311 0116 1340     		ands	r3, r3, r2
1883:Drivers/STM32L4xx_HAL_Driver/Src/stm32l4xx_hal_tim_ex.c ****       }
 4312              		.loc 1 1883 16
 4313 0118 7A69     		ldr	r2, [r7, #20]
 4314 011a 1343     		orrs	r3, r3, r2
 4315 011c 7B61     		str	r3, [r7, #20]
1887:Drivers/STM32L4xx_HAL_Driver/Src/stm32l4xx_hal_tim_ex.c ****       break;
 4316              		.loc 1 1887 11
 4317 011e FB68     		ldr	r3, [r7, #12]
 4318 0120 1B68     		ldr	r3, [r3]
1887:Drivers/STM32L4xx_HAL_Driver/Src/stm32l4xx_hal_tim_ex.c ****       break;
 4319              		.loc 1 1887 27
 4320 0122 7A69     		ldr	r2, [r7, #20]
 4321 0124 5A66     		str	r2, [r3, #100]
1888:Drivers/STM32L4xx_HAL_Driver/Src/stm32l4xx_hal_tim_ex.c ****     }
 4322              		.loc 1 1888 7
 4323 0126 00BF     		nop
 4324              	.L209:
1892:Drivers/STM32L4xx_HAL_Driver/Src/stm32l4xx_hal_tim_ex.c ****   }
1893:Drivers/STM32L4xx_HAL_Driver/Src/stm32l4xx_hal_tim_ex.c **** 
1894:Drivers/STM32L4xx_HAL_Driver/Src/stm32l4xx_hal_tim_ex.c ****   __HAL_UNLOCK(htim);
 4325              		.loc 1 1894 3
 4326 0128 FB68     		ldr	r3, [r7, #12]
 4327 012a 0022     		movs	r2, #0
 4328 012c 83F83C20 		strb	r2, [r3, #60]
1895:Drivers/STM32L4xx_HAL_Driver/Src/stm32l4xx_hal_tim_ex.c **** 
1896:Drivers/STM32L4xx_HAL_Driver/Src/stm32l4xx_hal_tim_ex.c ****   return HAL_OK;
 4329              		.loc 1 1896 10
 4330 0130 0023     		movs	r3, #0
 4331              	.L200:
1897:Drivers/STM32L4xx_HAL_Driver/Src/stm32l4xx_hal_tim_ex.c **** }
 4332              		.loc 1 1897 1
 4333 0132 1846     		mov	r0, r3
ARM GAS  /tmp/cc9IMTcg.s 			page 112


 4334 0134 2C37     		adds	r7, r7, #44
 4335              	.LCFI165:
 4336              		.cfi_def_cfa_offset 4
 4337 0136 BD46     		mov	sp, r7
 4338              	.LCFI166:
 4339              		.cfi_def_cfa_register 13
 4340              		@ sp needed
 4341 0138 5DF8047B 		ldr	r7, [sp], #4
 4342              	.LCFI167:
 4343              		.cfi_restore 7
 4344              		.cfi_def_cfa_offset 0
 4345 013c 7047     		bx	lr
 4346              		.cfi_endproc
 4347              	.LFE161:
 4349              		.section	.text.HAL_TIMEx_RemapConfig,"ax",%progbits
 4350              		.align	1
 4351              		.global	HAL_TIMEx_RemapConfig
 4352              		.syntax unified
 4353              		.thumb
 4354              		.thumb_func
 4355              		.fpu fpv4-sp-d16
 4357              	HAL_TIMEx_RemapConfig:
 4358              	.LFB162:
1898:Drivers/STM32L4xx_HAL_Driver/Src/stm32l4xx_hal_tim_ex.c **** 
1899:Drivers/STM32L4xx_HAL_Driver/Src/stm32l4xx_hal_tim_ex.c **** /**
1900:Drivers/STM32L4xx_HAL_Driver/Src/stm32l4xx_hal_tim_ex.c ****   * @brief  Configures the TIMx Remapping input capabilities.
1901:Drivers/STM32L4xx_HAL_Driver/Src/stm32l4xx_hal_tim_ex.c ****   * @param  htim TIM handle.
1902:Drivers/STM32L4xx_HAL_Driver/Src/stm32l4xx_hal_tim_ex.c ****   * @param  Remap specifies the TIM remapping source.
1903:Drivers/STM32L4xx_HAL_Driver/Src/stm32l4xx_hal_tim_ex.c ****     @if STM32L422xx
1904:Drivers/STM32L4xx_HAL_Driver/Src/stm32l4xx_hal_tim_ex.c ****   *         For TIM1, the parameter is a combination of 2 fields (field1 | field2):
1905:Drivers/STM32L4xx_HAL_Driver/Src/stm32l4xx_hal_tim_ex.c ****   *
1906:Drivers/STM32L4xx_HAL_Driver/Src/stm32l4xx_hal_tim_ex.c ****   *                   field1 can have the following values:
1907:Drivers/STM32L4xx_HAL_Driver/Src/stm32l4xx_hal_tim_ex.c ****   *            @arg TIM_TIM1_ETR_ADC1_NONE:           TIM1_ETR is not connected to any ADC1 AWD (an
1908:Drivers/STM32L4xx_HAL_Driver/Src/stm32l4xx_hal_tim_ex.c ****   *            @arg TIM_TIM1_ETR_ADC1_AWD1:           TIM1_ETR is connected to ADC1 AWD1
1909:Drivers/STM32L4xx_HAL_Driver/Src/stm32l4xx_hal_tim_ex.c ****   *            @arg TIM_TIM1_ETR_ADC1_AWD2:           TIM1_ETR is connected to ADC1 AWD2
1910:Drivers/STM32L4xx_HAL_Driver/Src/stm32l4xx_hal_tim_ex.c ****   *            @arg TIM_TIM1_ETR_ADC1_AWD3:           TIM1_ETR is connected to ADC1 AWD3
1911:Drivers/STM32L4xx_HAL_Driver/Src/stm32l4xx_hal_tim_ex.c ****   *
1912:Drivers/STM32L4xx_HAL_Driver/Src/stm32l4xx_hal_tim_ex.c ****   *                   field2 can have the following values:
1913:Drivers/STM32L4xx_HAL_Driver/Src/stm32l4xx_hal_tim_ex.c ****   *            @arg TIM_TIM1_TI1_GPIO:                TIM1 TI1 is connected to GPIO
1914:Drivers/STM32L4xx_HAL_Driver/Src/stm32l4xx_hal_tim_ex.c ****   *            @arg TIM_TIM1_TI1_COMP1:               TIM1 TI1 is connected to COMP1 output
1915:Drivers/STM32L4xx_HAL_Driver/Src/stm32l4xx_hal_tim_ex.c ****   *
1916:Drivers/STM32L4xx_HAL_Driver/Src/stm32l4xx_hal_tim_ex.c ****   @endif
1917:Drivers/STM32L4xx_HAL_Driver/Src/stm32l4xx_hal_tim_ex.c **** @if STM32L486xx
1918:Drivers/STM32L4xx_HAL_Driver/Src/stm32l4xx_hal_tim_ex.c ****   *         For TIM1, the parameter is a combination of 4 fields (field1 | field2 | field3 | field4
1919:Drivers/STM32L4xx_HAL_Driver/Src/stm32l4xx_hal_tim_ex.c ****   *
1920:Drivers/STM32L4xx_HAL_Driver/Src/stm32l4xx_hal_tim_ex.c ****   *                   field1 can have the following values:
1921:Drivers/STM32L4xx_HAL_Driver/Src/stm32l4xx_hal_tim_ex.c ****   *            @arg TIM_TIM1_ETR_ADC1_NONE:           TIM1_ETR is not connected to any ADC1 AWD (an
1922:Drivers/STM32L4xx_HAL_Driver/Src/stm32l4xx_hal_tim_ex.c ****   *            @arg TIM_TIM1_ETR_ADC1_AWD1:           TIM1_ETR is connected to ADC1 AWD1
1923:Drivers/STM32L4xx_HAL_Driver/Src/stm32l4xx_hal_tim_ex.c ****   *            @arg TIM_TIM1_ETR_ADC1_AWD2:           TIM1_ETR is connected to ADC1 AWD2
1924:Drivers/STM32L4xx_HAL_Driver/Src/stm32l4xx_hal_tim_ex.c ****   *            @arg TIM_TIM1_ETR_ADC1_AWD3:           TIM1_ETR is connected to ADC1 AWD3
1925:Drivers/STM32L4xx_HAL_Driver/Src/stm32l4xx_hal_tim_ex.c ****   *
1926:Drivers/STM32L4xx_HAL_Driver/Src/stm32l4xx_hal_tim_ex.c ****   *                   field2 can have the following values:
1927:Drivers/STM32L4xx_HAL_Driver/Src/stm32l4xx_hal_tim_ex.c ****   *            @arg TIM_TIM1_ETR_ADC3_NONE:           TIM1_ETR is not connected to any ADC3 AWD (an
1928:Drivers/STM32L4xx_HAL_Driver/Src/stm32l4xx_hal_tim_ex.c ****   *            @arg TIM_TIM1_ETR_ADC3_AWD1:           TIM1_ETR is connected to ADC3 AWD1
1929:Drivers/STM32L4xx_HAL_Driver/Src/stm32l4xx_hal_tim_ex.c ****   *            @arg TIM_TIM1_ETR_ADC3_AWD2:           TIM1_ETR is connected to ADC3 AWD2
1930:Drivers/STM32L4xx_HAL_Driver/Src/stm32l4xx_hal_tim_ex.c ****   *            @arg TIM_TIM1_ETR_ADC3_AWD3:           TIM1_ETR is connected to ADC3 AWD3
1931:Drivers/STM32L4xx_HAL_Driver/Src/stm32l4xx_hal_tim_ex.c ****   *
ARM GAS  /tmp/cc9IMTcg.s 			page 113


1932:Drivers/STM32L4xx_HAL_Driver/Src/stm32l4xx_hal_tim_ex.c ****   *                   field3 can have the following values:
1933:Drivers/STM32L4xx_HAL_Driver/Src/stm32l4xx_hal_tim_ex.c ****   *            @arg TIM_TIM1_TI1_GPIO:                TIM1 TI1 is connected to GPIO
1934:Drivers/STM32L4xx_HAL_Driver/Src/stm32l4xx_hal_tim_ex.c ****   *            @arg TIM_TIM1_TI1_COMP1:               TIM1 TI1 is connected to COMP1 output
1935:Drivers/STM32L4xx_HAL_Driver/Src/stm32l4xx_hal_tim_ex.c ****   *
1936:Drivers/STM32L4xx_HAL_Driver/Src/stm32l4xx_hal_tim_ex.c ****   *                   field4 can have the following values:
1937:Drivers/STM32L4xx_HAL_Driver/Src/stm32l4xx_hal_tim_ex.c ****   *            @arg TIM_TIM1_ETR_COMP1:               TIM1_ETR is connected to COMP1 output
1938:Drivers/STM32L4xx_HAL_Driver/Src/stm32l4xx_hal_tim_ex.c ****   *            @arg TIM_TIM1_ETR_COMP2:               TIM1_ETR is connected to COMP2 output
1939:Drivers/STM32L4xx_HAL_Driver/Src/stm32l4xx_hal_tim_ex.c ****   *            @note  When field4 is set to TIM_TIM1_ETR_COMP1 or TIM_TIM1_ETR_COMP2 field1 and fie
1940:Drivers/STM32L4xx_HAL_Driver/Src/stm32l4xx_hal_tim_ex.c ****   @endif
1941:Drivers/STM32L4xx_HAL_Driver/Src/stm32l4xx_hal_tim_ex.c ****   @if STM32L443xx
1942:Drivers/STM32L4xx_HAL_Driver/Src/stm32l4xx_hal_tim_ex.c ****   *         For TIM1, the parameter is a combination of 3 fields (field1 | field2 | field3):
1943:Drivers/STM32L4xx_HAL_Driver/Src/stm32l4xx_hal_tim_ex.c ****   *
1944:Drivers/STM32L4xx_HAL_Driver/Src/stm32l4xx_hal_tim_ex.c ****   *                   field1 can have the following values:
1945:Drivers/STM32L4xx_HAL_Driver/Src/stm32l4xx_hal_tim_ex.c ****   *            @arg TIM_TIM1_ETR_ADC1_NONE:           TIM1_ETR is not connected to any ADC1 AWD (an
1946:Drivers/STM32L4xx_HAL_Driver/Src/stm32l4xx_hal_tim_ex.c ****   *            @arg TIM_TIM1_ETR_ADC1_AWD1:           TIM1_ETR is connected to ADC1 AWD1
1947:Drivers/STM32L4xx_HAL_Driver/Src/stm32l4xx_hal_tim_ex.c ****   *            @arg TIM_TIM1_ETR_ADC1_AWD2:           TIM1_ETR is connected to ADC1 AWD2
1948:Drivers/STM32L4xx_HAL_Driver/Src/stm32l4xx_hal_tim_ex.c ****   *            @arg TIM_TIM1_ETR_ADC1_AWD3:           TIM1_ETR is connected to ADC1 AWD3
1949:Drivers/STM32L4xx_HAL_Driver/Src/stm32l4xx_hal_tim_ex.c ****   *
1950:Drivers/STM32L4xx_HAL_Driver/Src/stm32l4xx_hal_tim_ex.c ****   *                   field2 can have the following values:
1951:Drivers/STM32L4xx_HAL_Driver/Src/stm32l4xx_hal_tim_ex.c ****   *            @arg TIM_TIM1_TI1_GPIO:                TIM1 TI1 is connected to GPIO
1952:Drivers/STM32L4xx_HAL_Driver/Src/stm32l4xx_hal_tim_ex.c ****   *            @arg TIM_TIM1_TI1_COMP1:               TIM1 TI1 is connected to COMP1 output
1953:Drivers/STM32L4xx_HAL_Driver/Src/stm32l4xx_hal_tim_ex.c ****   *
1954:Drivers/STM32L4xx_HAL_Driver/Src/stm32l4xx_hal_tim_ex.c ****   *                   field3 can have the following values:
1955:Drivers/STM32L4xx_HAL_Driver/Src/stm32l4xx_hal_tim_ex.c ****   *            @arg TIM_TIM1_ETR_COMP1:               TIM1_ETR is connected to COMP1 output
1956:Drivers/STM32L4xx_HAL_Driver/Src/stm32l4xx_hal_tim_ex.c ****   *            @arg TIM_TIM1_ETR_COMP2:               TIM1_ETR is connected to COMP2 output
1957:Drivers/STM32L4xx_HAL_Driver/Src/stm32l4xx_hal_tim_ex.c ****   *
1958:Drivers/STM32L4xx_HAL_Driver/Src/stm32l4xx_hal_tim_ex.c ****   *            @note  When field3 is set to TIM_TIM1_ETR_COMP1 or TIM_TIM1_ETR_COMP2 field1 values 
1959:Drivers/STM32L4xx_HAL_Driver/Src/stm32l4xx_hal_tim_ex.c ****   *
1960:Drivers/STM32L4xx_HAL_Driver/Src/stm32l4xx_hal_tim_ex.c ****   @endif
1961:Drivers/STM32L4xx_HAL_Driver/Src/stm32l4xx_hal_tim_ex.c ****   @if STM32L486xx
1962:Drivers/STM32L4xx_HAL_Driver/Src/stm32l4xx_hal_tim_ex.c ****   *         For TIM2, the parameter is a combination of 3 fields (field1 | field2 | field3):
1963:Drivers/STM32L4xx_HAL_Driver/Src/stm32l4xx_hal_tim_ex.c ****   *
1964:Drivers/STM32L4xx_HAL_Driver/Src/stm32l4xx_hal_tim_ex.c ****   *                   field1 can have the following values:
1965:Drivers/STM32L4xx_HAL_Driver/Src/stm32l4xx_hal_tim_ex.c ****   *            @arg TIM_TIM2_ITR1_TIM8_TRGO:          TIM2_ITR1 is connected to TIM8_TRGO
1966:Drivers/STM32L4xx_HAL_Driver/Src/stm32l4xx_hal_tim_ex.c ****   *            @arg TIM_TIM2_ITR1_OTG_FS_SOF:         TIM2_ITR1 is connected to OTG_FS SOF
1967:Drivers/STM32L4xx_HAL_Driver/Src/stm32l4xx_hal_tim_ex.c ****   *
1968:Drivers/STM32L4xx_HAL_Driver/Src/stm32l4xx_hal_tim_ex.c ****   *                   field2 can have the following values:
1969:Drivers/STM32L4xx_HAL_Driver/Src/stm32l4xx_hal_tim_ex.c ****   *            @arg TIM_TIM2_ETR_GPIO:                TIM2_ETR is connected to GPIO
1970:Drivers/STM32L4xx_HAL_Driver/Src/stm32l4xx_hal_tim_ex.c ****   *            @arg TIM_TIM2_ETR_LSE:                 TIM2_ETR is connected to LSE
1971:Drivers/STM32L4xx_HAL_Driver/Src/stm32l4xx_hal_tim_ex.c ****   *            @arg TIM_TIM2_ETR_COMP1:               TIM2_ETR is connected to COMP1 output
1972:Drivers/STM32L4xx_HAL_Driver/Src/stm32l4xx_hal_tim_ex.c ****   *            @arg TIM_TIM2_ETR_COMP2:               TIM2_ETR is connected to COMP2 output
1973:Drivers/STM32L4xx_HAL_Driver/Src/stm32l4xx_hal_tim_ex.c ****   *
1974:Drivers/STM32L4xx_HAL_Driver/Src/stm32l4xx_hal_tim_ex.c ****   *                   field3 can have the following values:
1975:Drivers/STM32L4xx_HAL_Driver/Src/stm32l4xx_hal_tim_ex.c ****   *            @arg TIM_TIM2_TI4_GPIO:                TIM2 TI4 is connected to GPIO
1976:Drivers/STM32L4xx_HAL_Driver/Src/stm32l4xx_hal_tim_ex.c ****   *            @arg TIM_TIM2_TI4_COMP1:               TIM2 TI4 is connected to COMP1 output
1977:Drivers/STM32L4xx_HAL_Driver/Src/stm32l4xx_hal_tim_ex.c ****   *            @arg TIM_TIM2_TI4_COMP2:               TIM2 TI4 is connected to COMP2 output
1978:Drivers/STM32L4xx_HAL_Driver/Src/stm32l4xx_hal_tim_ex.c ****   *            @arg TIM_TIM2_TI4_COMP1_COMP2:         TIM2 TI4 is connected to logical OR between C
1979:Drivers/STM32L4xx_HAL_Driver/Src/stm32l4xx_hal_tim_ex.c ****   @endif
1980:Drivers/STM32L4xx_HAL_Driver/Src/stm32l4xx_hal_tim_ex.c ****   @if STM32L422xx
1981:Drivers/STM32L4xx_HAL_Driver/Src/stm32l4xx_hal_tim_ex.c ****   *         For TIM2, the parameter is a combination of 3 fields (field1 | field2 | field3):
1982:Drivers/STM32L4xx_HAL_Driver/Src/stm32l4xx_hal_tim_ex.c ****   *
1983:Drivers/STM32L4xx_HAL_Driver/Src/stm32l4xx_hal_tim_ex.c ****   *                   field1 can have the following values:
1984:Drivers/STM32L4xx_HAL_Driver/Src/stm32l4xx_hal_tim_ex.c ****   *            @arg TIM_TIM2_ITR1_NONE:               No internal trigger on TIM2_ITR1
1985:Drivers/STM32L4xx_HAL_Driver/Src/stm32l4xx_hal_tim_ex.c ****   *            @arg TIM_TIM2_ITR1_USB_SOF:            TIM2_ITR1 is connected to USB SOF
1986:Drivers/STM32L4xx_HAL_Driver/Src/stm32l4xx_hal_tim_ex.c ****   *
1987:Drivers/STM32L4xx_HAL_Driver/Src/stm32l4xx_hal_tim_ex.c ****   *                   field2 can have the following values:
1988:Drivers/STM32L4xx_HAL_Driver/Src/stm32l4xx_hal_tim_ex.c ****   *            @arg TIM_TIM2_ETR_GPIO:                TIM2_ETR is connected to GPIO
ARM GAS  /tmp/cc9IMTcg.s 			page 114


1989:Drivers/STM32L4xx_HAL_Driver/Src/stm32l4xx_hal_tim_ex.c ****   *            @arg TIM_TIM2_ETR_LSE:                 TIM2_ETR is connected to LSE
1990:Drivers/STM32L4xx_HAL_Driver/Src/stm32l4xx_hal_tim_ex.c ****   *            @arg TIM_TIM2_ETR_COMP1:               TIM2_ETR is connected to COMP1 output
1991:Drivers/STM32L4xx_HAL_Driver/Src/stm32l4xx_hal_tim_ex.c ****   *
1992:Drivers/STM32L4xx_HAL_Driver/Src/stm32l4xx_hal_tim_ex.c ****   *                   field3 can have the following values:
1993:Drivers/STM32L4xx_HAL_Driver/Src/stm32l4xx_hal_tim_ex.c ****   *            @arg TIM_TIM2_TI4_GPIO:                TIM2 TI4 is connected to GPIO
1994:Drivers/STM32L4xx_HAL_Driver/Src/stm32l4xx_hal_tim_ex.c ****   *            @arg TIM_TIM2_TI4_COMP1:               TIM2 TI4 is connected to COMP1 output
1995:Drivers/STM32L4xx_HAL_Driver/Src/stm32l4xx_hal_tim_ex.c ****   *
1996:Drivers/STM32L4xx_HAL_Driver/Src/stm32l4xx_hal_tim_ex.c ****   @endif
1997:Drivers/STM32L4xx_HAL_Driver/Src/stm32l4xx_hal_tim_ex.c ****   @if STM32L443xx
1998:Drivers/STM32L4xx_HAL_Driver/Src/stm32l4xx_hal_tim_ex.c ****   *         For TIM2, the parameter is a combination of 3 fields (field1 | field2 | field3):
1999:Drivers/STM32L4xx_HAL_Driver/Src/stm32l4xx_hal_tim_ex.c ****   *
2000:Drivers/STM32L4xx_HAL_Driver/Src/stm32l4xx_hal_tim_ex.c ****   *                   field1 can have the following values:
2001:Drivers/STM32L4xx_HAL_Driver/Src/stm32l4xx_hal_tim_ex.c ****   *            @arg TIM_TIM2_ITR1_NONE:               No internal trigger on TIM2_ITR1
2002:Drivers/STM32L4xx_HAL_Driver/Src/stm32l4xx_hal_tim_ex.c ****   *            @arg TIM_TIM2_ITR1_USB_SOF:            TIM2_ITR1 is connected to USB SOF
2003:Drivers/STM32L4xx_HAL_Driver/Src/stm32l4xx_hal_tim_ex.c ****   *
2004:Drivers/STM32L4xx_HAL_Driver/Src/stm32l4xx_hal_tim_ex.c ****   *                   field2 can have the following values:
2005:Drivers/STM32L4xx_HAL_Driver/Src/stm32l4xx_hal_tim_ex.c ****   *            @arg TIM_TIM2_ETR_GPIO:                TIM2_ETR is connected to GPIO
2006:Drivers/STM32L4xx_HAL_Driver/Src/stm32l4xx_hal_tim_ex.c ****   *            @arg TIM_TIM2_ETR_LSE:                 TIM2_ETR is connected to LSE
2007:Drivers/STM32L4xx_HAL_Driver/Src/stm32l4xx_hal_tim_ex.c ****   *            @arg TIM_TIM2_ETR_COMP1:               TIM2_ETR is connected to COMP1 output
2008:Drivers/STM32L4xx_HAL_Driver/Src/stm32l4xx_hal_tim_ex.c ****   *            @arg TIM_TIM2_ETR_COMP2:               TIM2_ETR is connected to COMP2 output
2009:Drivers/STM32L4xx_HAL_Driver/Src/stm32l4xx_hal_tim_ex.c ****   *
2010:Drivers/STM32L4xx_HAL_Driver/Src/stm32l4xx_hal_tim_ex.c ****   *                   field3 can have the following values:
2011:Drivers/STM32L4xx_HAL_Driver/Src/stm32l4xx_hal_tim_ex.c ****   *            @arg TIM_TIM2_TI4_GPIO:                TIM2 TI4 is connected to GPIO
2012:Drivers/STM32L4xx_HAL_Driver/Src/stm32l4xx_hal_tim_ex.c ****   *            @arg TIM_TIM2_TI4_COMP1:               TIM2 TI4 is connected to COMP1 output
2013:Drivers/STM32L4xx_HAL_Driver/Src/stm32l4xx_hal_tim_ex.c ****   *            @arg TIM_TIM2_TI4_COMP2:               TIM2 TI4 is connected to COMP2 output
2014:Drivers/STM32L4xx_HAL_Driver/Src/stm32l4xx_hal_tim_ex.c ****   *            @arg TIM_TIM2_TI4_COMP1_COMP2:         TIM2 TI4 is connected to logical OR between C
2015:Drivers/STM32L4xx_HAL_Driver/Src/stm32l4xx_hal_tim_ex.c ****   *
2016:Drivers/STM32L4xx_HAL_Driver/Src/stm32l4xx_hal_tim_ex.c ****   @endif
2017:Drivers/STM32L4xx_HAL_Driver/Src/stm32l4xx_hal_tim_ex.c ****   @if STM32L486xx
2018:Drivers/STM32L4xx_HAL_Driver/Src/stm32l4xx_hal_tim_ex.c ****   *         For TIM3, the parameter is a combination 2 fields(field1 | field2):
2019:Drivers/STM32L4xx_HAL_Driver/Src/stm32l4xx_hal_tim_ex.c ****   *
2020:Drivers/STM32L4xx_HAL_Driver/Src/stm32l4xx_hal_tim_ex.c ****   *                   field1 can have the following values:
2021:Drivers/STM32L4xx_HAL_Driver/Src/stm32l4xx_hal_tim_ex.c ****   *            @arg TIM_TIM3_TI1_GPIO:                TIM3 TI1 is connected to GPIO
2022:Drivers/STM32L4xx_HAL_Driver/Src/stm32l4xx_hal_tim_ex.c ****   *            @arg TIM_TIM3_TI1_COMP1:               TIM3 TI1 is connected to COMP1 output
2023:Drivers/STM32L4xx_HAL_Driver/Src/stm32l4xx_hal_tim_ex.c ****   *            @arg TIM_TIM3_TI1_COMP2:               TIM3 TI1 is connected to COMP2 output
2024:Drivers/STM32L4xx_HAL_Driver/Src/stm32l4xx_hal_tim_ex.c ****   *            @arg TIM_TIM3_TI1_COMP1_COMP2:         TIM3 TI1 is connected to logical OR between C
2025:Drivers/STM32L4xx_HAL_Driver/Src/stm32l4xx_hal_tim_ex.c ****   *
2026:Drivers/STM32L4xx_HAL_Driver/Src/stm32l4xx_hal_tim_ex.c ****   *                   field2 can have the following values:
2027:Drivers/STM32L4xx_HAL_Driver/Src/stm32l4xx_hal_tim_ex.c ****   *            @arg TIM_TIM3_ETR_GPIO:                TIM3_ETR is connected to GPIO
2028:Drivers/STM32L4xx_HAL_Driver/Src/stm32l4xx_hal_tim_ex.c ****   *            @arg TIM_TIM3_ETR_COMP1:               TIM3_ETR is connected to COMP1 output
2029:Drivers/STM32L4xx_HAL_Driver/Src/stm32l4xx_hal_tim_ex.c ****   *
2030:Drivers/STM32L4xx_HAL_Driver/Src/stm32l4xx_hal_tim_ex.c ****   @endif
2031:Drivers/STM32L4xx_HAL_Driver/Src/stm32l4xx_hal_tim_ex.c ****   @if STM32L486xx
2032:Drivers/STM32L4xx_HAL_Driver/Src/stm32l4xx_hal_tim_ex.c ****   *         For TIM8, the parameter is a combination of 3 fields (field1 | field2 | field3):
2033:Drivers/STM32L4xx_HAL_Driver/Src/stm32l4xx_hal_tim_ex.c ****   *
2034:Drivers/STM32L4xx_HAL_Driver/Src/stm32l4xx_hal_tim_ex.c ****   *                   field1 can have the following values:
2035:Drivers/STM32L4xx_HAL_Driver/Src/stm32l4xx_hal_tim_ex.c ****   *            @arg TIM_TIM8_ETR_ADC2_NONE:          TIM8_ETR is not connected to any ADC2 AWD (ana
2036:Drivers/STM32L4xx_HAL_Driver/Src/stm32l4xx_hal_tim_ex.c ****   *            @arg TIM_TIM8_ETR_ADC2_AWD1:          TIM8_ETR is connected to ADC2 AWD1
2037:Drivers/STM32L4xx_HAL_Driver/Src/stm32l4xx_hal_tim_ex.c ****   *            @arg TIM_TIM8_ETR_ADC2_AWD2:          TIM8_ETR is connected to ADC2 AWD2
2038:Drivers/STM32L4xx_HAL_Driver/Src/stm32l4xx_hal_tim_ex.c ****   *            @arg TIM_TIM8_ETR_ADC2_AWD3:          TIM8_ETR is connected to ADC2 AWD3
2039:Drivers/STM32L4xx_HAL_Driver/Src/stm32l4xx_hal_tim_ex.c ****   *
2040:Drivers/STM32L4xx_HAL_Driver/Src/stm32l4xx_hal_tim_ex.c ****   *                   field2 can have the following values:
2041:Drivers/STM32L4xx_HAL_Driver/Src/stm32l4xx_hal_tim_ex.c ****   *            @arg TIM_TIM8_ETR_ADC3_NONE:          TIM8_ETR is not connected to any ADC3 AWD (ana
2042:Drivers/STM32L4xx_HAL_Driver/Src/stm32l4xx_hal_tim_ex.c ****   *            @arg TIM_TIM8_ETR_ADC3_AWD1:          TIM8_ETR is connected to ADC3 AWD1
2043:Drivers/STM32L4xx_HAL_Driver/Src/stm32l4xx_hal_tim_ex.c ****   *            @arg TIM_TIM8_ETR_ADC3_AWD2:          TIM8_ETR is connected to ADC3 AWD2
2044:Drivers/STM32L4xx_HAL_Driver/Src/stm32l4xx_hal_tim_ex.c ****   *            @arg TIM_TIM8_ETR_ADC3_AWD3:          TIM8_ETR is connected to ADC3 AWD3
2045:Drivers/STM32L4xx_HAL_Driver/Src/stm32l4xx_hal_tim_ex.c ****   *
ARM GAS  /tmp/cc9IMTcg.s 			page 115


2046:Drivers/STM32L4xx_HAL_Driver/Src/stm32l4xx_hal_tim_ex.c ****   *                   field3 can have the following values:
2047:Drivers/STM32L4xx_HAL_Driver/Src/stm32l4xx_hal_tim_ex.c ****   *            @arg TIM_TIM8_TI1_GPIO:               TIM8 TI1 is connected to GPIO
2048:Drivers/STM32L4xx_HAL_Driver/Src/stm32l4xx_hal_tim_ex.c ****   *            @arg TIM_TIM8_TI1_COMP2:              TIM8 TI1 is connected to COMP2 output
2049:Drivers/STM32L4xx_HAL_Driver/Src/stm32l4xx_hal_tim_ex.c ****   *
2050:Drivers/STM32L4xx_HAL_Driver/Src/stm32l4xx_hal_tim_ex.c ****   *                   field4 can have the following values:
2051:Drivers/STM32L4xx_HAL_Driver/Src/stm32l4xx_hal_tim_ex.c ****   *            @arg TIM_TIM8_ETR_COMP1:               TIM8_ETR is connected to COMP1 output
2052:Drivers/STM32L4xx_HAL_Driver/Src/stm32l4xx_hal_tim_ex.c ****   *            @arg TIM_TIM8_ETR_COMP2:               TIM8_ETR is connected to COMP2 output
2053:Drivers/STM32L4xx_HAL_Driver/Src/stm32l4xx_hal_tim_ex.c ****   *            @note  When field4 is set to TIM_TIM8_ETR_COMP1 or TIM_TIM8_ETR_COMP2 field1 and fie
2054:Drivers/STM32L4xx_HAL_Driver/Src/stm32l4xx_hal_tim_ex.c ****   *
2055:Drivers/STM32L4xx_HAL_Driver/Src/stm32l4xx_hal_tim_ex.c ****   @endif
2056:Drivers/STM32L4xx_HAL_Driver/Src/stm32l4xx_hal_tim_ex.c ****   @if STM32L422xx
2057:Drivers/STM32L4xx_HAL_Driver/Src/stm32l4xx_hal_tim_ex.c ****   *         For TIM15, the parameter is a combination of 2 fields (field1 | field2):
2058:Drivers/STM32L4xx_HAL_Driver/Src/stm32l4xx_hal_tim_ex.c ****   *
2059:Drivers/STM32L4xx_HAL_Driver/Src/stm32l4xx_hal_tim_ex.c ****   *                   field1 can have the following values:
2060:Drivers/STM32L4xx_HAL_Driver/Src/stm32l4xx_hal_tim_ex.c ****   *            @arg TIM_TIM15_TI1_GPIO:              TIM15 TI1 is connected to GPIO
2061:Drivers/STM32L4xx_HAL_Driver/Src/stm32l4xx_hal_tim_ex.c ****   *            @arg TIM_TIM15_TI1_LSE:               TIM15 TI1 is connected to LSE
2062:Drivers/STM32L4xx_HAL_Driver/Src/stm32l4xx_hal_tim_ex.c ****   *
2063:Drivers/STM32L4xx_HAL_Driver/Src/stm32l4xx_hal_tim_ex.c ****   *                   field2 can have the following values:
2064:Drivers/STM32L4xx_HAL_Driver/Src/stm32l4xx_hal_tim_ex.c ****   *            @arg TIM_TIM15_ENCODERMODE_NONE:      No redirection
2065:Drivers/STM32L4xx_HAL_Driver/Src/stm32l4xx_hal_tim_ex.c ****   *            @arg TIM_TIM15_ENCODERMODE_TIM2:      TIM2 IC1 and TIM2 IC2 are connected to TIM15 I
2066:Drivers/STM32L4xx_HAL_Driver/Src/stm32l4xx_hal_tim_ex.c ****   *
2067:Drivers/STM32L4xx_HAL_Driver/Src/stm32l4xx_hal_tim_ex.c ****   @endif
2068:Drivers/STM32L4xx_HAL_Driver/Src/stm32l4xx_hal_tim_ex.c ****   @if STM32L443xx
2069:Drivers/STM32L4xx_HAL_Driver/Src/stm32l4xx_hal_tim_ex.c ****   *         For TIM15, the parameter is a combination of 2 fields (field1 | field2):
2070:Drivers/STM32L4xx_HAL_Driver/Src/stm32l4xx_hal_tim_ex.c ****   *
2071:Drivers/STM32L4xx_HAL_Driver/Src/stm32l4xx_hal_tim_ex.c ****   *                   field1 can have the following values:
2072:Drivers/STM32L4xx_HAL_Driver/Src/stm32l4xx_hal_tim_ex.c ****   *            @arg TIM_TIM15_TI1_GPIO:              TIM15 TI1 is connected to GPIO
2073:Drivers/STM32L4xx_HAL_Driver/Src/stm32l4xx_hal_tim_ex.c ****   *            @arg TIM_TIM15_TI1_LSE:               TIM15 TI1 is connected to LSE
2074:Drivers/STM32L4xx_HAL_Driver/Src/stm32l4xx_hal_tim_ex.c ****   *
2075:Drivers/STM32L4xx_HAL_Driver/Src/stm32l4xx_hal_tim_ex.c ****   *                   field2 can have the following values:
2076:Drivers/STM32L4xx_HAL_Driver/Src/stm32l4xx_hal_tim_ex.c ****   *            @arg TIM_TIM15_ENCODERMODE_NONE:      No redirection
2077:Drivers/STM32L4xx_HAL_Driver/Src/stm32l4xx_hal_tim_ex.c ****   *            @arg TIM_TIM15_ENCODERMODE_TIM2:      TIM2 IC1 and TIM2 IC2 are connected to TIM15 I
2078:Drivers/STM32L4xx_HAL_Driver/Src/stm32l4xx_hal_tim_ex.c ****   *            @arg TIM_TIM15_ENCODERMODE_TIM3:      TIM3 IC1 and TIM3 IC2 are connected to TIM15 I
2079:Drivers/STM32L4xx_HAL_Driver/Src/stm32l4xx_hal_tim_ex.c ****   *            @arg TIM_TIM15_ENCODERMODE_TIM4:      TIM4 IC1 and TIM4 IC2 are connected to TIM15 I
2080:Drivers/STM32L4xx_HAL_Driver/Src/stm32l4xx_hal_tim_ex.c ****   *
2081:Drivers/STM32L4xx_HAL_Driver/Src/stm32l4xx_hal_tim_ex.c ****   @endif
2082:Drivers/STM32L4xx_HAL_Driver/Src/stm32l4xx_hal_tim_ex.c ****   @if STM32L486xx
2083:Drivers/STM32L4xx_HAL_Driver/Src/stm32l4xx_hal_tim_ex.c ****   *            @arg TIM_TIM16_TI1_GPIO:              TIM16 TI1 is connected to GPIO
2084:Drivers/STM32L4xx_HAL_Driver/Src/stm32l4xx_hal_tim_ex.c ****   *            @arg TIM_TIM16_TI1_LSI:               TIM16 TI1 is connected to LSI
2085:Drivers/STM32L4xx_HAL_Driver/Src/stm32l4xx_hal_tim_ex.c ****   *            @arg TIM_TIM16_TI1_LSE:               TIM16 TI1 is connected to LSE
2086:Drivers/STM32L4xx_HAL_Driver/Src/stm32l4xx_hal_tim_ex.c ****   *            @arg TIM_TIM16_TI1_RTC:               TIM16 TI1 is connected to RTC wakeup interrupt
2087:Drivers/STM32L4xx_HAL_Driver/Src/stm32l4xx_hal_tim_ex.c ****   *
2088:Drivers/STM32L4xx_HAL_Driver/Src/stm32l4xx_hal_tim_ex.c ****   @endif
2089:Drivers/STM32L4xx_HAL_Driver/Src/stm32l4xx_hal_tim_ex.c ****   @if STM32L422xx
2090:Drivers/STM32L4xx_HAL_Driver/Src/stm32l4xx_hal_tim_ex.c ****   *         For TIM16, the parameter can have the following values:
2091:Drivers/STM32L4xx_HAL_Driver/Src/stm32l4xx_hal_tim_ex.c ****   *            @arg TIM_TIM16_TI1_GPIO:              TIM16 TI1 is connected to GPIO
2092:Drivers/STM32L4xx_HAL_Driver/Src/stm32l4xx_hal_tim_ex.c ****   *            @arg TIM_TIM16_TI1_LSI:               TIM16 TI1 is connected to LSI
2093:Drivers/STM32L4xx_HAL_Driver/Src/stm32l4xx_hal_tim_ex.c ****   *            @arg TIM_TIM16_TI1_LSE:               TIM16 TI1 is connected to LSE
2094:Drivers/STM32L4xx_HAL_Driver/Src/stm32l4xx_hal_tim_ex.c ****   *            @arg TIM_TIM16_TI1_RTC:               TIM16 TI1 is connected to RTC wakeup interrupt
2095:Drivers/STM32L4xx_HAL_Driver/Src/stm32l4xx_hal_tim_ex.c ****   *            @arg TIM_TIM16_TI1_MSI:               TIM16 TI1 is connected to MSI  (contraints: MS
2096:Drivers/STM32L4xx_HAL_Driver/Src/stm32l4xx_hal_tim_ex.c ****   *            @arg TIM_TIM16_TI1_HSE_32:            TIM16 TI1 is connected to HSE div 32  (note th
2097:Drivers/STM32L4xx_HAL_Driver/Src/stm32l4xx_hal_tim_ex.c ****   *            @arg TIM_TIM16_TI1_MCO:               TIM16 TI1 is connected to MCO
2098:Drivers/STM32L4xx_HAL_Driver/Src/stm32l4xx_hal_tim_ex.c ****   *
2099:Drivers/STM32L4xx_HAL_Driver/Src/stm32l4xx_hal_tim_ex.c ****   @endif
2100:Drivers/STM32L4xx_HAL_Driver/Src/stm32l4xx_hal_tim_ex.c ****   @if STM32L443xx
2101:Drivers/STM32L4xx_HAL_Driver/Src/stm32l4xx_hal_tim_ex.c ****   *         For TIM16, the parameter can have the following values:
2102:Drivers/STM32L4xx_HAL_Driver/Src/stm32l4xx_hal_tim_ex.c ****   *            @arg TIM_TIM16_TI1_GPIO:              TIM16 TI1 is connected to GPIO
ARM GAS  /tmp/cc9IMTcg.s 			page 116


2103:Drivers/STM32L4xx_HAL_Driver/Src/stm32l4xx_hal_tim_ex.c ****   *            @arg TIM_TIM16_TI1_LSI:               TIM16 TI1 is connected to LSI
2104:Drivers/STM32L4xx_HAL_Driver/Src/stm32l4xx_hal_tim_ex.c ****   *            @arg TIM_TIM16_TI1_LSE:               TIM16 TI1 is connected to LSE
2105:Drivers/STM32L4xx_HAL_Driver/Src/stm32l4xx_hal_tim_ex.c ****   *            @arg TIM_TIM16_TI1_RTC:               TIM16 TI1 is connected to RTC wakeup interrupt
2106:Drivers/STM32L4xx_HAL_Driver/Src/stm32l4xx_hal_tim_ex.c ****   *            @arg TIM_TIM16_TI1_MSI:               TIM16 TI1 is connected to MSI  (contraints: MS
2107:Drivers/STM32L4xx_HAL_Driver/Src/stm32l4xx_hal_tim_ex.c ****   *            @arg TIM_TIM16_TI1_HSE_32:            TIM16 TI1 is connected to HSE div 32  (note th
2108:Drivers/STM32L4xx_HAL_Driver/Src/stm32l4xx_hal_tim_ex.c ****   *            @arg TIM_TIM16_TI1_MCO:               TIM16 TI1 is connected to MCO
2109:Drivers/STM32L4xx_HAL_Driver/Src/stm32l4xx_hal_tim_ex.c ****   *
2110:Drivers/STM32L4xx_HAL_Driver/Src/stm32l4xx_hal_tim_ex.c ****   @endif
2111:Drivers/STM32L4xx_HAL_Driver/Src/stm32l4xx_hal_tim_ex.c ****   @if STM32L486xx
2112:Drivers/STM32L4xx_HAL_Driver/Src/stm32l4xx_hal_tim_ex.c ****   *         For TIM17, the parameter can have the following values:
2113:Drivers/STM32L4xx_HAL_Driver/Src/stm32l4xx_hal_tim_ex.c ****   *            @arg TIM_TIM17_TI1_GPIO:              TIM17 TI1 is connected to GPIO
2114:Drivers/STM32L4xx_HAL_Driver/Src/stm32l4xx_hal_tim_ex.c ****   *            @arg TIM_TIM17_TI1_MSI:               TIM17 TI1 is connected to MSI  (contraints: MS
2115:Drivers/STM32L4xx_HAL_Driver/Src/stm32l4xx_hal_tim_ex.c ****   *            @arg TIM_TIM17_TI1_HSE_32:            TIM17 TI1 is connected to HSE div 32
2116:Drivers/STM32L4xx_HAL_Driver/Src/stm32l4xx_hal_tim_ex.c ****   *            @arg TIM_TIM17_TI1_MCO:               TIM17 TI1 is connected to MCO
2117:Drivers/STM32L4xx_HAL_Driver/Src/stm32l4xx_hal_tim_ex.c ****   @endif
2118:Drivers/STM32L4xx_HAL_Driver/Src/stm32l4xx_hal_tim_ex.c ****   *
2119:Drivers/STM32L4xx_HAL_Driver/Src/stm32l4xx_hal_tim_ex.c ****   * @retval HAL status
2120:Drivers/STM32L4xx_HAL_Driver/Src/stm32l4xx_hal_tim_ex.c ****   */
2121:Drivers/STM32L4xx_HAL_Driver/Src/stm32l4xx_hal_tim_ex.c **** HAL_StatusTypeDef HAL_TIMEx_RemapConfig(TIM_HandleTypeDef *htim, uint32_t Remap)
2122:Drivers/STM32L4xx_HAL_Driver/Src/stm32l4xx_hal_tim_ex.c **** {
 4359              		.loc 1 2122 1
 4360              		.cfi_startproc
 4361              		@ args = 0, pretend = 0, frame = 16
 4362              		@ frame_needed = 1, uses_anonymous_args = 0
 4363              		@ link register save eliminated.
 4364 0000 80B4     		push	{r7}
 4365              	.LCFI168:
 4366              		.cfi_def_cfa_offset 4
 4367              		.cfi_offset 7, -4
 4368 0002 85B0     		sub	sp, sp, #20
 4369              	.LCFI169:
 4370              		.cfi_def_cfa_offset 24
 4371 0004 00AF     		add	r7, sp, #0
 4372              	.LCFI170:
 4373              		.cfi_def_cfa_register 7
 4374 0006 7860     		str	r0, [r7, #4]
 4375 0008 3960     		str	r1, [r7]
2123:Drivers/STM32L4xx_HAL_Driver/Src/stm32l4xx_hal_tim_ex.c ****   uint32_t tmpor1 = 0U;
 4376              		.loc 1 2123 12
 4377 000a 0023     		movs	r3, #0
 4378 000c FB60     		str	r3, [r7, #12]
2124:Drivers/STM32L4xx_HAL_Driver/Src/stm32l4xx_hal_tim_ex.c ****   uint32_t tmpor2 = 0U;
 4379              		.loc 1 2124 12
 4380 000e 0023     		movs	r3, #0
 4381 0010 BB60     		str	r3, [r7, #8]
2125:Drivers/STM32L4xx_HAL_Driver/Src/stm32l4xx_hal_tim_ex.c **** 
2126:Drivers/STM32L4xx_HAL_Driver/Src/stm32l4xx_hal_tim_ex.c ****   __HAL_LOCK(htim);
 4382              		.loc 1 2126 3
 4383 0012 7B68     		ldr	r3, [r7, #4]
 4384 0014 93F83C30 		ldrb	r3, [r3, #60]	@ zero_extendqisi2
 4385 0018 012B     		cmp	r3, #1
 4386 001a 01D1     		bne	.L211
 4387              		.loc 1 2126 3 is_stmt 0 discriminator 1
 4388 001c 0223     		movs	r3, #2
 4389 001e 2EE0     		b	.L212
 4390              	.L211:
 4391              		.loc 1 2126 3 discriminator 2
ARM GAS  /tmp/cc9IMTcg.s 			page 117


 4392 0020 7B68     		ldr	r3, [r7, #4]
 4393 0022 0122     		movs	r2, #1
 4394 0024 83F83C20 		strb	r2, [r3, #60]
2127:Drivers/STM32L4xx_HAL_Driver/Src/stm32l4xx_hal_tim_ex.c **** 
2128:Drivers/STM32L4xx_HAL_Driver/Src/stm32l4xx_hal_tim_ex.c ****   /* Check parameters */
2129:Drivers/STM32L4xx_HAL_Driver/Src/stm32l4xx_hal_tim_ex.c ****   assert_param(IS_TIM_REMAP_INSTANCE(htim->Instance));
2130:Drivers/STM32L4xx_HAL_Driver/Src/stm32l4xx_hal_tim_ex.c ****   assert_param(IS_TIM_REMAP(Remap));
2131:Drivers/STM32L4xx_HAL_Driver/Src/stm32l4xx_hal_tim_ex.c **** 
2132:Drivers/STM32L4xx_HAL_Driver/Src/stm32l4xx_hal_tim_ex.c ****   /* Set ETR_SEL bit field (if required) */
2133:Drivers/STM32L4xx_HAL_Driver/Src/stm32l4xx_hal_tim_ex.c ****   if (IS_TIM_ETRSEL_INSTANCE(htim->Instance))
 4395              		.loc 1 2133 7 is_stmt 1 discriminator 2
 4396 0028 7B68     		ldr	r3, [r7, #4]
 4397 002a 1B68     		ldr	r3, [r3]
 4398              		.loc 1 2133 6 discriminator 2
 4399 002c 174A     		ldr	r2, .L215
 4400 002e 9342     		cmp	r3, r2
 4401 0030 04D0     		beq	.L213
 4402              		.loc 1 2133 7 discriminator 1
 4403 0032 7B68     		ldr	r3, [r7, #4]
 4404 0034 1B68     		ldr	r3, [r3]
 4405 0036 B3F1804F 		cmp	r3, #1073741824
 4406 003a 11D1     		bne	.L214
 4407              	.L213:
2134:Drivers/STM32L4xx_HAL_Driver/Src/stm32l4xx_hal_tim_ex.c ****   {
2135:Drivers/STM32L4xx_HAL_Driver/Src/stm32l4xx_hal_tim_ex.c ****     tmpor2 = htim->Instance->OR2;
 4408              		.loc 1 2135 18
 4409 003c 7B68     		ldr	r3, [r7, #4]
 4410 003e 1B68     		ldr	r3, [r3]
 4411              		.loc 1 2135 12
 4412 0040 1B6E     		ldr	r3, [r3, #96]
 4413 0042 BB60     		str	r3, [r7, #8]
2136:Drivers/STM32L4xx_HAL_Driver/Src/stm32l4xx_hal_tim_ex.c ****     tmpor2 &= ~TIM1_OR2_ETRSEL_Msk;
 4414              		.loc 1 2136 12
 4415 0044 BB68     		ldr	r3, [r7, #8]
 4416 0046 23F4E033 		bic	r3, r3, #114688
 4417 004a BB60     		str	r3, [r7, #8]
2137:Drivers/STM32L4xx_HAL_Driver/Src/stm32l4xx_hal_tim_ex.c ****     tmpor2 |= (Remap & TIM1_OR2_ETRSEL_Msk);
 4418              		.loc 1 2137 22
 4419 004c 3B68     		ldr	r3, [r7]
 4420 004e 03F4E033 		and	r3, r3, #114688
 4421              		.loc 1 2137 12
 4422 0052 BA68     		ldr	r2, [r7, #8]
 4423 0054 1343     		orrs	r3, r3, r2
 4424 0056 BB60     		str	r3, [r7, #8]
2138:Drivers/STM32L4xx_HAL_Driver/Src/stm32l4xx_hal_tim_ex.c **** 
2139:Drivers/STM32L4xx_HAL_Driver/Src/stm32l4xx_hal_tim_ex.c ****     /* Set TIMx_OR2 */
2140:Drivers/STM32L4xx_HAL_Driver/Src/stm32l4xx_hal_tim_ex.c ****     htim->Instance->OR2 = tmpor2;
 4425              		.loc 1 2140 9
 4426 0058 7B68     		ldr	r3, [r7, #4]
 4427 005a 1B68     		ldr	r3, [r3]
 4428              		.loc 1 2140 25
 4429 005c BA68     		ldr	r2, [r7, #8]
 4430 005e 1A66     		str	r2, [r3, #96]
 4431              	.L214:
2141:Drivers/STM32L4xx_HAL_Driver/Src/stm32l4xx_hal_tim_ex.c ****   }
2142:Drivers/STM32L4xx_HAL_Driver/Src/stm32l4xx_hal_tim_ex.c **** 
2143:Drivers/STM32L4xx_HAL_Driver/Src/stm32l4xx_hal_tim_ex.c ****   /* Set other remapping capabilities */
ARM GAS  /tmp/cc9IMTcg.s 			page 118


2144:Drivers/STM32L4xx_HAL_Driver/Src/stm32l4xx_hal_tim_ex.c ****   tmpor1 = Remap;
 4432              		.loc 1 2144 10
 4433 0060 3B68     		ldr	r3, [r7]
 4434 0062 FB60     		str	r3, [r7, #12]
2145:Drivers/STM32L4xx_HAL_Driver/Src/stm32l4xx_hal_tim_ex.c ****   tmpor1 &= ~TIM1_OR2_ETRSEL_Msk;
 4435              		.loc 1 2145 10
 4436 0064 FB68     		ldr	r3, [r7, #12]
 4437 0066 23F4E033 		bic	r3, r3, #114688
 4438 006a FB60     		str	r3, [r7, #12]
2146:Drivers/STM32L4xx_HAL_Driver/Src/stm32l4xx_hal_tim_ex.c **** 
2147:Drivers/STM32L4xx_HAL_Driver/Src/stm32l4xx_hal_tim_ex.c ****   /* Set TIMx_OR1 */
2148:Drivers/STM32L4xx_HAL_Driver/Src/stm32l4xx_hal_tim_ex.c ****   htim->Instance->OR1 = tmpor1;
 4439              		.loc 1 2148 7
 4440 006c 7B68     		ldr	r3, [r7, #4]
 4441 006e 1B68     		ldr	r3, [r3]
 4442              		.loc 1 2148 23
 4443 0070 FA68     		ldr	r2, [r7, #12]
 4444 0072 1A65     		str	r2, [r3, #80]
2149:Drivers/STM32L4xx_HAL_Driver/Src/stm32l4xx_hal_tim_ex.c **** 
2150:Drivers/STM32L4xx_HAL_Driver/Src/stm32l4xx_hal_tim_ex.c ****   __HAL_UNLOCK(htim);
 4445              		.loc 1 2150 3
 4446 0074 7B68     		ldr	r3, [r7, #4]
 4447 0076 0022     		movs	r2, #0
 4448 0078 83F83C20 		strb	r2, [r3, #60]
2151:Drivers/STM32L4xx_HAL_Driver/Src/stm32l4xx_hal_tim_ex.c **** 
2152:Drivers/STM32L4xx_HAL_Driver/Src/stm32l4xx_hal_tim_ex.c ****   return HAL_OK;
 4449              		.loc 1 2152 10
 4450 007c 0023     		movs	r3, #0
 4451              	.L212:
2153:Drivers/STM32L4xx_HAL_Driver/Src/stm32l4xx_hal_tim_ex.c **** }
 4452              		.loc 1 2153 1
 4453 007e 1846     		mov	r0, r3
 4454 0080 1437     		adds	r7, r7, #20
 4455              	.LCFI171:
 4456              		.cfi_def_cfa_offset 4
 4457 0082 BD46     		mov	sp, r7
 4458              	.LCFI172:
 4459              		.cfi_def_cfa_register 13
 4460              		@ sp needed
 4461 0084 5DF8047B 		ldr	r7, [sp], #4
 4462              	.LCFI173:
 4463              		.cfi_restore 7
 4464              		.cfi_def_cfa_offset 0
 4465 0088 7047     		bx	lr
 4466              	.L216:
 4467 008a 00BF     		.align	2
 4468              	.L215:
 4469 008c 002C0140 		.word	1073818624
 4470              		.cfi_endproc
 4471              	.LFE162:
 4473              		.section	.text.HAL_TIMEx_GroupChannel5,"ax",%progbits
 4474              		.align	1
 4475              		.global	HAL_TIMEx_GroupChannel5
 4476              		.syntax unified
 4477              		.thumb
 4478              		.thumb_func
 4479              		.fpu fpv4-sp-d16
ARM GAS  /tmp/cc9IMTcg.s 			page 119


 4481              	HAL_TIMEx_GroupChannel5:
 4482              	.LFB163:
2154:Drivers/STM32L4xx_HAL_Driver/Src/stm32l4xx_hal_tim_ex.c **** 
2155:Drivers/STM32L4xx_HAL_Driver/Src/stm32l4xx_hal_tim_ex.c **** /**
2156:Drivers/STM32L4xx_HAL_Driver/Src/stm32l4xx_hal_tim_ex.c ****   * @brief  Group channel 5 and channel 1, 2 or 3
2157:Drivers/STM32L4xx_HAL_Driver/Src/stm32l4xx_hal_tim_ex.c ****   * @param  htim TIM handle.
2158:Drivers/STM32L4xx_HAL_Driver/Src/stm32l4xx_hal_tim_ex.c ****   * @param  Channels specifies the reference signal(s) the OC5REF is combined with.
2159:Drivers/STM32L4xx_HAL_Driver/Src/stm32l4xx_hal_tim_ex.c ****   *         This parameter can be any combination of the following values:
2160:Drivers/STM32L4xx_HAL_Driver/Src/stm32l4xx_hal_tim_ex.c ****   *         TIM_GROUPCH5_NONE: No effect of OC5REF on OC1REFC, OC2REFC and OC3REFC
2161:Drivers/STM32L4xx_HAL_Driver/Src/stm32l4xx_hal_tim_ex.c ****   *         TIM_GROUPCH5_OC1REFC: OC1REFC is the logical AND of OC1REFC and OC5REF
2162:Drivers/STM32L4xx_HAL_Driver/Src/stm32l4xx_hal_tim_ex.c ****   *         TIM_GROUPCH5_OC2REFC: OC2REFC is the logical AND of OC2REFC and OC5REF
2163:Drivers/STM32L4xx_HAL_Driver/Src/stm32l4xx_hal_tim_ex.c ****   *         TIM_GROUPCH5_OC3REFC: OC3REFC is the logical AND of OC3REFC and OC5REF
2164:Drivers/STM32L4xx_HAL_Driver/Src/stm32l4xx_hal_tim_ex.c ****   * @retval HAL status
2165:Drivers/STM32L4xx_HAL_Driver/Src/stm32l4xx_hal_tim_ex.c ****   */
2166:Drivers/STM32L4xx_HAL_Driver/Src/stm32l4xx_hal_tim_ex.c **** HAL_StatusTypeDef HAL_TIMEx_GroupChannel5(TIM_HandleTypeDef *htim, uint32_t Channels)
2167:Drivers/STM32L4xx_HAL_Driver/Src/stm32l4xx_hal_tim_ex.c **** {
 4483              		.loc 1 2167 1
 4484              		.cfi_startproc
 4485              		@ args = 0, pretend = 0, frame = 8
 4486              		@ frame_needed = 1, uses_anonymous_args = 0
 4487              		@ link register save eliminated.
 4488 0000 80B4     		push	{r7}
 4489              	.LCFI174:
 4490              		.cfi_def_cfa_offset 4
 4491              		.cfi_offset 7, -4
 4492 0002 83B0     		sub	sp, sp, #12
 4493              	.LCFI175:
 4494              		.cfi_def_cfa_offset 16
 4495 0004 00AF     		add	r7, sp, #0
 4496              	.LCFI176:
 4497              		.cfi_def_cfa_register 7
 4498 0006 7860     		str	r0, [r7, #4]
 4499 0008 3960     		str	r1, [r7]
2168:Drivers/STM32L4xx_HAL_Driver/Src/stm32l4xx_hal_tim_ex.c ****   /* Check parameters */
2169:Drivers/STM32L4xx_HAL_Driver/Src/stm32l4xx_hal_tim_ex.c ****   assert_param(IS_TIM_COMBINED3PHASEPWM_INSTANCE(htim->Instance));
2170:Drivers/STM32L4xx_HAL_Driver/Src/stm32l4xx_hal_tim_ex.c ****   assert_param(IS_TIM_GROUPCH5(Channels));
2171:Drivers/STM32L4xx_HAL_Driver/Src/stm32l4xx_hal_tim_ex.c **** 
2172:Drivers/STM32L4xx_HAL_Driver/Src/stm32l4xx_hal_tim_ex.c ****   /* Process Locked */
2173:Drivers/STM32L4xx_HAL_Driver/Src/stm32l4xx_hal_tim_ex.c ****   __HAL_LOCK(htim);
 4500              		.loc 1 2173 3
 4501 000a 7B68     		ldr	r3, [r7, #4]
 4502 000c 93F83C30 		ldrb	r3, [r3, #60]	@ zero_extendqisi2
 4503 0010 012B     		cmp	r3, #1
 4504 0012 01D1     		bne	.L218
 4505              		.loc 1 2173 3 is_stmt 0 discriminator 1
 4506 0014 0223     		movs	r3, #2
 4507 0016 20E0     		b	.L219
 4508              	.L218:
 4509              		.loc 1 2173 3 discriminator 2
 4510 0018 7B68     		ldr	r3, [r7, #4]
 4511 001a 0122     		movs	r2, #1
 4512 001c 83F83C20 		strb	r2, [r3, #60]
2174:Drivers/STM32L4xx_HAL_Driver/Src/stm32l4xx_hal_tim_ex.c **** 
2175:Drivers/STM32L4xx_HAL_Driver/Src/stm32l4xx_hal_tim_ex.c ****   htim->State = HAL_TIM_STATE_BUSY;
 4513              		.loc 1 2175 15 is_stmt 1 discriminator 2
 4514 0020 7B68     		ldr	r3, [r7, #4]
 4515 0022 0222     		movs	r2, #2
ARM GAS  /tmp/cc9IMTcg.s 			page 120


 4516 0024 83F83D20 		strb	r2, [r3, #61]
2176:Drivers/STM32L4xx_HAL_Driver/Src/stm32l4xx_hal_tim_ex.c **** 
2177:Drivers/STM32L4xx_HAL_Driver/Src/stm32l4xx_hal_tim_ex.c ****   /* Clear GC5Cx bit fields */
2178:Drivers/STM32L4xx_HAL_Driver/Src/stm32l4xx_hal_tim_ex.c ****   htim->Instance->CCR5 &= ~(TIM_CCR5_GC5C3 | TIM_CCR5_GC5C2 | TIM_CCR5_GC5C1);
 4517              		.loc 1 2178 7 discriminator 2
 4518 0028 7B68     		ldr	r3, [r7, #4]
 4519 002a 1B68     		ldr	r3, [r3]
 4520              		.loc 1 2178 24 discriminator 2
 4521 002c 9A6D     		ldr	r2, [r3, #88]
 4522              		.loc 1 2178 7 discriminator 2
 4523 002e 7B68     		ldr	r3, [r7, #4]
 4524 0030 1B68     		ldr	r3, [r3]
 4525              		.loc 1 2178 24 discriminator 2
 4526 0032 22F06042 		bic	r2, r2, #-536870912
 4527 0036 9A65     		str	r2, [r3, #88]
2179:Drivers/STM32L4xx_HAL_Driver/Src/stm32l4xx_hal_tim_ex.c **** 
2180:Drivers/STM32L4xx_HAL_Driver/Src/stm32l4xx_hal_tim_ex.c ****   /* Set GC5Cx bit fields */
2181:Drivers/STM32L4xx_HAL_Driver/Src/stm32l4xx_hal_tim_ex.c ****   htim->Instance->CCR5 |= Channels;
 4528              		.loc 1 2181 7 discriminator 2
 4529 0038 7B68     		ldr	r3, [r7, #4]
 4530 003a 1B68     		ldr	r3, [r3]
 4531              		.loc 1 2181 24 discriminator 2
 4532 003c 996D     		ldr	r1, [r3, #88]
 4533              		.loc 1 2181 7 discriminator 2
 4534 003e 7B68     		ldr	r3, [r7, #4]
 4535 0040 1B68     		ldr	r3, [r3]
 4536              		.loc 1 2181 24 discriminator 2
 4537 0042 3A68     		ldr	r2, [r7]
 4538 0044 0A43     		orrs	r2, r2, r1
 4539 0046 9A65     		str	r2, [r3, #88]
2182:Drivers/STM32L4xx_HAL_Driver/Src/stm32l4xx_hal_tim_ex.c **** 
2183:Drivers/STM32L4xx_HAL_Driver/Src/stm32l4xx_hal_tim_ex.c ****   /* Change the htim state */
2184:Drivers/STM32L4xx_HAL_Driver/Src/stm32l4xx_hal_tim_ex.c ****   htim->State = HAL_TIM_STATE_READY;
 4540              		.loc 1 2184 15 discriminator 2
 4541 0048 7B68     		ldr	r3, [r7, #4]
 4542 004a 0122     		movs	r2, #1
 4543 004c 83F83D20 		strb	r2, [r3, #61]
2185:Drivers/STM32L4xx_HAL_Driver/Src/stm32l4xx_hal_tim_ex.c **** 
2186:Drivers/STM32L4xx_HAL_Driver/Src/stm32l4xx_hal_tim_ex.c ****   __HAL_UNLOCK(htim);
 4544              		.loc 1 2186 3 discriminator 2
 4545 0050 7B68     		ldr	r3, [r7, #4]
 4546 0052 0022     		movs	r2, #0
 4547 0054 83F83C20 		strb	r2, [r3, #60]
2187:Drivers/STM32L4xx_HAL_Driver/Src/stm32l4xx_hal_tim_ex.c **** 
2188:Drivers/STM32L4xx_HAL_Driver/Src/stm32l4xx_hal_tim_ex.c ****   return HAL_OK;
 4548              		.loc 1 2188 10 discriminator 2
 4549 0058 0023     		movs	r3, #0
 4550              	.L219:
2189:Drivers/STM32L4xx_HAL_Driver/Src/stm32l4xx_hal_tim_ex.c **** }
 4551              		.loc 1 2189 1
 4552 005a 1846     		mov	r0, r3
 4553 005c 0C37     		adds	r7, r7, #12
 4554              	.LCFI177:
 4555              		.cfi_def_cfa_offset 4
 4556 005e BD46     		mov	sp, r7
 4557              	.LCFI178:
 4558              		.cfi_def_cfa_register 13
ARM GAS  /tmp/cc9IMTcg.s 			page 121


 4559              		@ sp needed
 4560 0060 5DF8047B 		ldr	r7, [sp], #4
 4561              	.LCFI179:
 4562              		.cfi_restore 7
 4563              		.cfi_def_cfa_offset 0
 4564 0064 7047     		bx	lr
 4565              		.cfi_endproc
 4566              	.LFE163:
 4568              		.section	.text.HAL_TIMEx_CommutCallback,"ax",%progbits
 4569              		.align	1
 4570              		.weak	HAL_TIMEx_CommutCallback
 4571              		.syntax unified
 4572              		.thumb
 4573              		.thumb_func
 4574              		.fpu fpv4-sp-d16
 4576              	HAL_TIMEx_CommutCallback:
 4577              	.LFB164:
2190:Drivers/STM32L4xx_HAL_Driver/Src/stm32l4xx_hal_tim_ex.c **** 
2191:Drivers/STM32L4xx_HAL_Driver/Src/stm32l4xx_hal_tim_ex.c **** /**
2192:Drivers/STM32L4xx_HAL_Driver/Src/stm32l4xx_hal_tim_ex.c ****   * @}
2193:Drivers/STM32L4xx_HAL_Driver/Src/stm32l4xx_hal_tim_ex.c ****   */
2194:Drivers/STM32L4xx_HAL_Driver/Src/stm32l4xx_hal_tim_ex.c **** 
2195:Drivers/STM32L4xx_HAL_Driver/Src/stm32l4xx_hal_tim_ex.c **** /** @defgroup TIMEx_Exported_Functions_Group6 Extended Callbacks functions
2196:Drivers/STM32L4xx_HAL_Driver/Src/stm32l4xx_hal_tim_ex.c ****   * @brief    Extended Callbacks functions
2197:Drivers/STM32L4xx_HAL_Driver/Src/stm32l4xx_hal_tim_ex.c ****   *
2198:Drivers/STM32L4xx_HAL_Driver/Src/stm32l4xx_hal_tim_ex.c **** @verbatim
2199:Drivers/STM32L4xx_HAL_Driver/Src/stm32l4xx_hal_tim_ex.c ****   ==============================================================================
2200:Drivers/STM32L4xx_HAL_Driver/Src/stm32l4xx_hal_tim_ex.c ****                     ##### Extended Callbacks functions #####
2201:Drivers/STM32L4xx_HAL_Driver/Src/stm32l4xx_hal_tim_ex.c ****   ==============================================================================
2202:Drivers/STM32L4xx_HAL_Driver/Src/stm32l4xx_hal_tim_ex.c ****   [..]
2203:Drivers/STM32L4xx_HAL_Driver/Src/stm32l4xx_hal_tim_ex.c ****     This section provides Extended TIM callback functions:
2204:Drivers/STM32L4xx_HAL_Driver/Src/stm32l4xx_hal_tim_ex.c ****     (+) Timer Commutation callback
2205:Drivers/STM32L4xx_HAL_Driver/Src/stm32l4xx_hal_tim_ex.c ****     (+) Timer Break callback
2206:Drivers/STM32L4xx_HAL_Driver/Src/stm32l4xx_hal_tim_ex.c **** 
2207:Drivers/STM32L4xx_HAL_Driver/Src/stm32l4xx_hal_tim_ex.c **** @endverbatim
2208:Drivers/STM32L4xx_HAL_Driver/Src/stm32l4xx_hal_tim_ex.c ****   * @{
2209:Drivers/STM32L4xx_HAL_Driver/Src/stm32l4xx_hal_tim_ex.c ****   */
2210:Drivers/STM32L4xx_HAL_Driver/Src/stm32l4xx_hal_tim_ex.c **** 
2211:Drivers/STM32L4xx_HAL_Driver/Src/stm32l4xx_hal_tim_ex.c **** /**
2212:Drivers/STM32L4xx_HAL_Driver/Src/stm32l4xx_hal_tim_ex.c ****   * @brief  Hall commutation changed callback in non-blocking mode
2213:Drivers/STM32L4xx_HAL_Driver/Src/stm32l4xx_hal_tim_ex.c ****   * @param  htim TIM handle
2214:Drivers/STM32L4xx_HAL_Driver/Src/stm32l4xx_hal_tim_ex.c ****   * @retval None
2215:Drivers/STM32L4xx_HAL_Driver/Src/stm32l4xx_hal_tim_ex.c ****   */
2216:Drivers/STM32L4xx_HAL_Driver/Src/stm32l4xx_hal_tim_ex.c **** __weak void HAL_TIMEx_CommutCallback(TIM_HandleTypeDef *htim)
2217:Drivers/STM32L4xx_HAL_Driver/Src/stm32l4xx_hal_tim_ex.c **** {
 4578              		.loc 1 2217 1
 4579              		.cfi_startproc
 4580              		@ args = 0, pretend = 0, frame = 8
 4581              		@ frame_needed = 1, uses_anonymous_args = 0
 4582              		@ link register save eliminated.
 4583 0000 80B4     		push	{r7}
 4584              	.LCFI180:
 4585              		.cfi_def_cfa_offset 4
 4586              		.cfi_offset 7, -4
 4587 0002 83B0     		sub	sp, sp, #12
 4588              	.LCFI181:
 4589              		.cfi_def_cfa_offset 16
ARM GAS  /tmp/cc9IMTcg.s 			page 122


 4590 0004 00AF     		add	r7, sp, #0
 4591              	.LCFI182:
 4592              		.cfi_def_cfa_register 7
 4593 0006 7860     		str	r0, [r7, #4]
2218:Drivers/STM32L4xx_HAL_Driver/Src/stm32l4xx_hal_tim_ex.c ****   /* Prevent unused argument(s) compilation warning */
2219:Drivers/STM32L4xx_HAL_Driver/Src/stm32l4xx_hal_tim_ex.c ****   UNUSED(htim);
2220:Drivers/STM32L4xx_HAL_Driver/Src/stm32l4xx_hal_tim_ex.c **** 
2221:Drivers/STM32L4xx_HAL_Driver/Src/stm32l4xx_hal_tim_ex.c ****   /* NOTE : This function should not be modified, when the callback is needed,
2222:Drivers/STM32L4xx_HAL_Driver/Src/stm32l4xx_hal_tim_ex.c ****             the HAL_TIMEx_CommutCallback could be implemented in the user file
2223:Drivers/STM32L4xx_HAL_Driver/Src/stm32l4xx_hal_tim_ex.c ****    */
2224:Drivers/STM32L4xx_HAL_Driver/Src/stm32l4xx_hal_tim_ex.c **** }
 4594              		.loc 1 2224 1
 4595 0008 00BF     		nop
 4596 000a 0C37     		adds	r7, r7, #12
 4597              	.LCFI183:
 4598              		.cfi_def_cfa_offset 4
 4599 000c BD46     		mov	sp, r7
 4600              	.LCFI184:
 4601              		.cfi_def_cfa_register 13
 4602              		@ sp needed
 4603 000e 5DF8047B 		ldr	r7, [sp], #4
 4604              	.LCFI185:
 4605              		.cfi_restore 7
 4606              		.cfi_def_cfa_offset 0
 4607 0012 7047     		bx	lr
 4608              		.cfi_endproc
 4609              	.LFE164:
 4611              		.section	.text.HAL_TIMEx_CommutHalfCpltCallback,"ax",%progbits
 4612              		.align	1
 4613              		.weak	HAL_TIMEx_CommutHalfCpltCallback
 4614              		.syntax unified
 4615              		.thumb
 4616              		.thumb_func
 4617              		.fpu fpv4-sp-d16
 4619              	HAL_TIMEx_CommutHalfCpltCallback:
 4620              	.LFB165:
2225:Drivers/STM32L4xx_HAL_Driver/Src/stm32l4xx_hal_tim_ex.c **** /**
2226:Drivers/STM32L4xx_HAL_Driver/Src/stm32l4xx_hal_tim_ex.c ****   * @brief  Hall commutation changed half complete callback in non-blocking mode
2227:Drivers/STM32L4xx_HAL_Driver/Src/stm32l4xx_hal_tim_ex.c ****   * @param  htim TIM handle
2228:Drivers/STM32L4xx_HAL_Driver/Src/stm32l4xx_hal_tim_ex.c ****   * @retval None
2229:Drivers/STM32L4xx_HAL_Driver/Src/stm32l4xx_hal_tim_ex.c ****   */
2230:Drivers/STM32L4xx_HAL_Driver/Src/stm32l4xx_hal_tim_ex.c **** __weak void HAL_TIMEx_CommutHalfCpltCallback(TIM_HandleTypeDef *htim)
2231:Drivers/STM32L4xx_HAL_Driver/Src/stm32l4xx_hal_tim_ex.c **** {
 4621              		.loc 1 2231 1
 4622              		.cfi_startproc
 4623              		@ args = 0, pretend = 0, frame = 8
 4624              		@ frame_needed = 1, uses_anonymous_args = 0
 4625              		@ link register save eliminated.
 4626 0000 80B4     		push	{r7}
 4627              	.LCFI186:
 4628              		.cfi_def_cfa_offset 4
 4629              		.cfi_offset 7, -4
 4630 0002 83B0     		sub	sp, sp, #12
 4631              	.LCFI187:
 4632              		.cfi_def_cfa_offset 16
 4633 0004 00AF     		add	r7, sp, #0
 4634              	.LCFI188:
ARM GAS  /tmp/cc9IMTcg.s 			page 123


 4635              		.cfi_def_cfa_register 7
 4636 0006 7860     		str	r0, [r7, #4]
2232:Drivers/STM32L4xx_HAL_Driver/Src/stm32l4xx_hal_tim_ex.c ****   /* Prevent unused argument(s) compilation warning */
2233:Drivers/STM32L4xx_HAL_Driver/Src/stm32l4xx_hal_tim_ex.c ****   UNUSED(htim);
2234:Drivers/STM32L4xx_HAL_Driver/Src/stm32l4xx_hal_tim_ex.c **** 
2235:Drivers/STM32L4xx_HAL_Driver/Src/stm32l4xx_hal_tim_ex.c ****   /* NOTE : This function should not be modified, when the callback is needed,
2236:Drivers/STM32L4xx_HAL_Driver/Src/stm32l4xx_hal_tim_ex.c ****             the HAL_TIMEx_CommutHalfCpltCallback could be implemented in the user file
2237:Drivers/STM32L4xx_HAL_Driver/Src/stm32l4xx_hal_tim_ex.c ****    */
2238:Drivers/STM32L4xx_HAL_Driver/Src/stm32l4xx_hal_tim_ex.c **** }
 4637              		.loc 1 2238 1
 4638 0008 00BF     		nop
 4639 000a 0C37     		adds	r7, r7, #12
 4640              	.LCFI189:
 4641              		.cfi_def_cfa_offset 4
 4642 000c BD46     		mov	sp, r7
 4643              	.LCFI190:
 4644              		.cfi_def_cfa_register 13
 4645              		@ sp needed
 4646 000e 5DF8047B 		ldr	r7, [sp], #4
 4647              	.LCFI191:
 4648              		.cfi_restore 7
 4649              		.cfi_def_cfa_offset 0
 4650 0012 7047     		bx	lr
 4651              		.cfi_endproc
 4652              	.LFE165:
 4654              		.section	.text.HAL_TIMEx_BreakCallback,"ax",%progbits
 4655              		.align	1
 4656              		.weak	HAL_TIMEx_BreakCallback
 4657              		.syntax unified
 4658              		.thumb
 4659              		.thumb_func
 4660              		.fpu fpv4-sp-d16
 4662              	HAL_TIMEx_BreakCallback:
 4663              	.LFB166:
2239:Drivers/STM32L4xx_HAL_Driver/Src/stm32l4xx_hal_tim_ex.c **** 
2240:Drivers/STM32L4xx_HAL_Driver/Src/stm32l4xx_hal_tim_ex.c **** /**
2241:Drivers/STM32L4xx_HAL_Driver/Src/stm32l4xx_hal_tim_ex.c ****   * @brief  Hall Break detection callback in non-blocking mode
2242:Drivers/STM32L4xx_HAL_Driver/Src/stm32l4xx_hal_tim_ex.c ****   * @param  htim TIM handle
2243:Drivers/STM32L4xx_HAL_Driver/Src/stm32l4xx_hal_tim_ex.c ****   * @retval None
2244:Drivers/STM32L4xx_HAL_Driver/Src/stm32l4xx_hal_tim_ex.c ****   */
2245:Drivers/STM32L4xx_HAL_Driver/Src/stm32l4xx_hal_tim_ex.c **** __weak void HAL_TIMEx_BreakCallback(TIM_HandleTypeDef *htim)
2246:Drivers/STM32L4xx_HAL_Driver/Src/stm32l4xx_hal_tim_ex.c **** {
 4664              		.loc 1 2246 1
 4665              		.cfi_startproc
 4666              		@ args = 0, pretend = 0, frame = 8
 4667              		@ frame_needed = 1, uses_anonymous_args = 0
 4668              		@ link register save eliminated.
 4669 0000 80B4     		push	{r7}
 4670              	.LCFI192:
 4671              		.cfi_def_cfa_offset 4
 4672              		.cfi_offset 7, -4
 4673 0002 83B0     		sub	sp, sp, #12
 4674              	.LCFI193:
 4675              		.cfi_def_cfa_offset 16
 4676 0004 00AF     		add	r7, sp, #0
 4677              	.LCFI194:
 4678              		.cfi_def_cfa_register 7
ARM GAS  /tmp/cc9IMTcg.s 			page 124


 4679 0006 7860     		str	r0, [r7, #4]
2247:Drivers/STM32L4xx_HAL_Driver/Src/stm32l4xx_hal_tim_ex.c ****   /* Prevent unused argument(s) compilation warning */
2248:Drivers/STM32L4xx_HAL_Driver/Src/stm32l4xx_hal_tim_ex.c ****   UNUSED(htim);
2249:Drivers/STM32L4xx_HAL_Driver/Src/stm32l4xx_hal_tim_ex.c **** 
2250:Drivers/STM32L4xx_HAL_Driver/Src/stm32l4xx_hal_tim_ex.c ****   /* NOTE : This function should not be modified, when the callback is needed,
2251:Drivers/STM32L4xx_HAL_Driver/Src/stm32l4xx_hal_tim_ex.c ****             the HAL_TIMEx_BreakCallback could be implemented in the user file
2252:Drivers/STM32L4xx_HAL_Driver/Src/stm32l4xx_hal_tim_ex.c ****    */
2253:Drivers/STM32L4xx_HAL_Driver/Src/stm32l4xx_hal_tim_ex.c **** }
 4680              		.loc 1 2253 1
 4681 0008 00BF     		nop
 4682 000a 0C37     		adds	r7, r7, #12
 4683              	.LCFI195:
 4684              		.cfi_def_cfa_offset 4
 4685 000c BD46     		mov	sp, r7
 4686              	.LCFI196:
 4687              		.cfi_def_cfa_register 13
 4688              		@ sp needed
 4689 000e 5DF8047B 		ldr	r7, [sp], #4
 4690              	.LCFI197:
 4691              		.cfi_restore 7
 4692              		.cfi_def_cfa_offset 0
 4693 0012 7047     		bx	lr
 4694              		.cfi_endproc
 4695              	.LFE166:
 4697              		.section	.text.HAL_TIMEx_Break2Callback,"ax",%progbits
 4698              		.align	1
 4699              		.weak	HAL_TIMEx_Break2Callback
 4700              		.syntax unified
 4701              		.thumb
 4702              		.thumb_func
 4703              		.fpu fpv4-sp-d16
 4705              	HAL_TIMEx_Break2Callback:
 4706              	.LFB167:
2254:Drivers/STM32L4xx_HAL_Driver/Src/stm32l4xx_hal_tim_ex.c **** 
2255:Drivers/STM32L4xx_HAL_Driver/Src/stm32l4xx_hal_tim_ex.c **** /**
2256:Drivers/STM32L4xx_HAL_Driver/Src/stm32l4xx_hal_tim_ex.c ****   * @brief  Hall Break2 detection callback in non blocking mode
2257:Drivers/STM32L4xx_HAL_Driver/Src/stm32l4xx_hal_tim_ex.c ****   * @param  htim TIM handle
2258:Drivers/STM32L4xx_HAL_Driver/Src/stm32l4xx_hal_tim_ex.c ****   * @retval None
2259:Drivers/STM32L4xx_HAL_Driver/Src/stm32l4xx_hal_tim_ex.c ****   */
2260:Drivers/STM32L4xx_HAL_Driver/Src/stm32l4xx_hal_tim_ex.c **** __weak void HAL_TIMEx_Break2Callback(TIM_HandleTypeDef *htim)
2261:Drivers/STM32L4xx_HAL_Driver/Src/stm32l4xx_hal_tim_ex.c **** {
 4707              		.loc 1 2261 1
 4708              		.cfi_startproc
 4709              		@ args = 0, pretend = 0, frame = 8
 4710              		@ frame_needed = 1, uses_anonymous_args = 0
 4711              		@ link register save eliminated.
 4712 0000 80B4     		push	{r7}
 4713              	.LCFI198:
 4714              		.cfi_def_cfa_offset 4
 4715              		.cfi_offset 7, -4
 4716 0002 83B0     		sub	sp, sp, #12
 4717              	.LCFI199:
 4718              		.cfi_def_cfa_offset 16
 4719 0004 00AF     		add	r7, sp, #0
 4720              	.LCFI200:
 4721              		.cfi_def_cfa_register 7
 4722 0006 7860     		str	r0, [r7, #4]
ARM GAS  /tmp/cc9IMTcg.s 			page 125


2262:Drivers/STM32L4xx_HAL_Driver/Src/stm32l4xx_hal_tim_ex.c ****   /* Prevent unused argument(s) compilation warning */
2263:Drivers/STM32L4xx_HAL_Driver/Src/stm32l4xx_hal_tim_ex.c ****   UNUSED(htim);
2264:Drivers/STM32L4xx_HAL_Driver/Src/stm32l4xx_hal_tim_ex.c **** 
2265:Drivers/STM32L4xx_HAL_Driver/Src/stm32l4xx_hal_tim_ex.c ****   /* NOTE : This function Should not be modified, when the callback is needed,
2266:Drivers/STM32L4xx_HAL_Driver/Src/stm32l4xx_hal_tim_ex.c ****             the HAL_TIMEx_Break2Callback could be implemented in the user file
2267:Drivers/STM32L4xx_HAL_Driver/Src/stm32l4xx_hal_tim_ex.c ****    */
2268:Drivers/STM32L4xx_HAL_Driver/Src/stm32l4xx_hal_tim_ex.c **** }
 4723              		.loc 1 2268 1
 4724 0008 00BF     		nop
 4725 000a 0C37     		adds	r7, r7, #12
 4726              	.LCFI201:
 4727              		.cfi_def_cfa_offset 4
 4728 000c BD46     		mov	sp, r7
 4729              	.LCFI202:
 4730              		.cfi_def_cfa_register 13
 4731              		@ sp needed
 4732 000e 5DF8047B 		ldr	r7, [sp], #4
 4733              	.LCFI203:
 4734              		.cfi_restore 7
 4735              		.cfi_def_cfa_offset 0
 4736 0012 7047     		bx	lr
 4737              		.cfi_endproc
 4738              	.LFE167:
 4740              		.section	.text.HAL_TIMEx_HallSensor_GetState,"ax",%progbits
 4741              		.align	1
 4742              		.global	HAL_TIMEx_HallSensor_GetState
 4743              		.syntax unified
 4744              		.thumb
 4745              		.thumb_func
 4746              		.fpu fpv4-sp-d16
 4748              	HAL_TIMEx_HallSensor_GetState:
 4749              	.LFB168:
2269:Drivers/STM32L4xx_HAL_Driver/Src/stm32l4xx_hal_tim_ex.c **** /**
2270:Drivers/STM32L4xx_HAL_Driver/Src/stm32l4xx_hal_tim_ex.c ****   * @}
2271:Drivers/STM32L4xx_HAL_Driver/Src/stm32l4xx_hal_tim_ex.c ****   */
2272:Drivers/STM32L4xx_HAL_Driver/Src/stm32l4xx_hal_tim_ex.c **** 
2273:Drivers/STM32L4xx_HAL_Driver/Src/stm32l4xx_hal_tim_ex.c **** /** @defgroup TIMEx_Exported_Functions_Group7 Extended Peripheral State functions
2274:Drivers/STM32L4xx_HAL_Driver/Src/stm32l4xx_hal_tim_ex.c ****   * @brief    Extended Peripheral State functions
2275:Drivers/STM32L4xx_HAL_Driver/Src/stm32l4xx_hal_tim_ex.c ****   *
2276:Drivers/STM32L4xx_HAL_Driver/Src/stm32l4xx_hal_tim_ex.c **** @verbatim
2277:Drivers/STM32L4xx_HAL_Driver/Src/stm32l4xx_hal_tim_ex.c ****   ==============================================================================
2278:Drivers/STM32L4xx_HAL_Driver/Src/stm32l4xx_hal_tim_ex.c ****                 ##### Extended Peripheral State functions #####
2279:Drivers/STM32L4xx_HAL_Driver/Src/stm32l4xx_hal_tim_ex.c ****   ==============================================================================
2280:Drivers/STM32L4xx_HAL_Driver/Src/stm32l4xx_hal_tim_ex.c ****   [..]
2281:Drivers/STM32L4xx_HAL_Driver/Src/stm32l4xx_hal_tim_ex.c ****     This subsection permits to get in run-time the status of the peripheral
2282:Drivers/STM32L4xx_HAL_Driver/Src/stm32l4xx_hal_tim_ex.c ****     and the data flow.
2283:Drivers/STM32L4xx_HAL_Driver/Src/stm32l4xx_hal_tim_ex.c **** 
2284:Drivers/STM32L4xx_HAL_Driver/Src/stm32l4xx_hal_tim_ex.c **** @endverbatim
2285:Drivers/STM32L4xx_HAL_Driver/Src/stm32l4xx_hal_tim_ex.c ****   * @{
2286:Drivers/STM32L4xx_HAL_Driver/Src/stm32l4xx_hal_tim_ex.c ****   */
2287:Drivers/STM32L4xx_HAL_Driver/Src/stm32l4xx_hal_tim_ex.c **** 
2288:Drivers/STM32L4xx_HAL_Driver/Src/stm32l4xx_hal_tim_ex.c **** /**
2289:Drivers/STM32L4xx_HAL_Driver/Src/stm32l4xx_hal_tim_ex.c ****   * @brief  Return the TIM Hall Sensor interface handle state.
2290:Drivers/STM32L4xx_HAL_Driver/Src/stm32l4xx_hal_tim_ex.c ****   * @param  htim TIM Hall Sensor handle
2291:Drivers/STM32L4xx_HAL_Driver/Src/stm32l4xx_hal_tim_ex.c ****   * @retval HAL state
2292:Drivers/STM32L4xx_HAL_Driver/Src/stm32l4xx_hal_tim_ex.c ****   */
2293:Drivers/STM32L4xx_HAL_Driver/Src/stm32l4xx_hal_tim_ex.c **** HAL_TIM_StateTypeDef HAL_TIMEx_HallSensor_GetState(TIM_HandleTypeDef *htim)
ARM GAS  /tmp/cc9IMTcg.s 			page 126


2294:Drivers/STM32L4xx_HAL_Driver/Src/stm32l4xx_hal_tim_ex.c **** {
 4750              		.loc 1 2294 1
 4751              		.cfi_startproc
 4752              		@ args = 0, pretend = 0, frame = 8
 4753              		@ frame_needed = 1, uses_anonymous_args = 0
 4754              		@ link register save eliminated.
 4755 0000 80B4     		push	{r7}
 4756              	.LCFI204:
 4757              		.cfi_def_cfa_offset 4
 4758              		.cfi_offset 7, -4
 4759 0002 83B0     		sub	sp, sp, #12
 4760              	.LCFI205:
 4761              		.cfi_def_cfa_offset 16
 4762 0004 00AF     		add	r7, sp, #0
 4763              	.LCFI206:
 4764              		.cfi_def_cfa_register 7
 4765 0006 7860     		str	r0, [r7, #4]
2295:Drivers/STM32L4xx_HAL_Driver/Src/stm32l4xx_hal_tim_ex.c ****   return htim->State;
 4766              		.loc 1 2295 14
 4767 0008 7B68     		ldr	r3, [r7, #4]
 4768 000a 93F83D30 		ldrb	r3, [r3, #61]
 4769 000e DBB2     		uxtb	r3, r3
2296:Drivers/STM32L4xx_HAL_Driver/Src/stm32l4xx_hal_tim_ex.c **** }
 4770              		.loc 1 2296 1
 4771 0010 1846     		mov	r0, r3
 4772 0012 0C37     		adds	r7, r7, #12
 4773              	.LCFI207:
 4774              		.cfi_def_cfa_offset 4
 4775 0014 BD46     		mov	sp, r7
 4776              	.LCFI208:
 4777              		.cfi_def_cfa_register 13
 4778              		@ sp needed
 4779 0016 5DF8047B 		ldr	r7, [sp], #4
 4780              	.LCFI209:
 4781              		.cfi_restore 7
 4782              		.cfi_def_cfa_offset 0
 4783 001a 7047     		bx	lr
 4784              		.cfi_endproc
 4785              	.LFE168:
 4787              		.section	.text.TIMEx_DMACommutationCplt,"ax",%progbits
 4788              		.align	1
 4789              		.global	TIMEx_DMACommutationCplt
 4790              		.syntax unified
 4791              		.thumb
 4792              		.thumb_func
 4793              		.fpu fpv4-sp-d16
 4795              	TIMEx_DMACommutationCplt:
 4796              	.LFB169:
2297:Drivers/STM32L4xx_HAL_Driver/Src/stm32l4xx_hal_tim_ex.c **** 
2298:Drivers/STM32L4xx_HAL_Driver/Src/stm32l4xx_hal_tim_ex.c **** /**
2299:Drivers/STM32L4xx_HAL_Driver/Src/stm32l4xx_hal_tim_ex.c ****   * @}
2300:Drivers/STM32L4xx_HAL_Driver/Src/stm32l4xx_hal_tim_ex.c ****   */
2301:Drivers/STM32L4xx_HAL_Driver/Src/stm32l4xx_hal_tim_ex.c **** 
2302:Drivers/STM32L4xx_HAL_Driver/Src/stm32l4xx_hal_tim_ex.c **** /**
2303:Drivers/STM32L4xx_HAL_Driver/Src/stm32l4xx_hal_tim_ex.c ****   * @}
2304:Drivers/STM32L4xx_HAL_Driver/Src/stm32l4xx_hal_tim_ex.c ****   */
2305:Drivers/STM32L4xx_HAL_Driver/Src/stm32l4xx_hal_tim_ex.c **** 
ARM GAS  /tmp/cc9IMTcg.s 			page 127


2306:Drivers/STM32L4xx_HAL_Driver/Src/stm32l4xx_hal_tim_ex.c **** /* Private functions ---------------------------------------------------------*/
2307:Drivers/STM32L4xx_HAL_Driver/Src/stm32l4xx_hal_tim_ex.c **** /** @defgroup TIMEx_Private_Functions TIMEx Private Functions
2308:Drivers/STM32L4xx_HAL_Driver/Src/stm32l4xx_hal_tim_ex.c ****   * @{
2309:Drivers/STM32L4xx_HAL_Driver/Src/stm32l4xx_hal_tim_ex.c ****   */
2310:Drivers/STM32L4xx_HAL_Driver/Src/stm32l4xx_hal_tim_ex.c **** 
2311:Drivers/STM32L4xx_HAL_Driver/Src/stm32l4xx_hal_tim_ex.c **** /**
2312:Drivers/STM32L4xx_HAL_Driver/Src/stm32l4xx_hal_tim_ex.c ****   * @brief  TIM DMA Commutation callback.
2313:Drivers/STM32L4xx_HAL_Driver/Src/stm32l4xx_hal_tim_ex.c ****   * @param  hdma pointer to DMA handle.
2314:Drivers/STM32L4xx_HAL_Driver/Src/stm32l4xx_hal_tim_ex.c ****   * @retval None
2315:Drivers/STM32L4xx_HAL_Driver/Src/stm32l4xx_hal_tim_ex.c ****   */
2316:Drivers/STM32L4xx_HAL_Driver/Src/stm32l4xx_hal_tim_ex.c **** void TIMEx_DMACommutationCplt(DMA_HandleTypeDef *hdma)
2317:Drivers/STM32L4xx_HAL_Driver/Src/stm32l4xx_hal_tim_ex.c **** {
 4797              		.loc 1 2317 1
 4798              		.cfi_startproc
 4799              		@ args = 0, pretend = 0, frame = 16
 4800              		@ frame_needed = 1, uses_anonymous_args = 0
 4801 0000 80B5     		push	{r7, lr}
 4802              	.LCFI210:
 4803              		.cfi_def_cfa_offset 8
 4804              		.cfi_offset 7, -8
 4805              		.cfi_offset 14, -4
 4806 0002 84B0     		sub	sp, sp, #16
 4807              	.LCFI211:
 4808              		.cfi_def_cfa_offset 24
 4809 0004 00AF     		add	r7, sp, #0
 4810              	.LCFI212:
 4811              		.cfi_def_cfa_register 7
 4812 0006 7860     		str	r0, [r7, #4]
2318:Drivers/STM32L4xx_HAL_Driver/Src/stm32l4xx_hal_tim_ex.c ****   TIM_HandleTypeDef *htim = (TIM_HandleTypeDef *)((DMA_HandleTypeDef *)hdma)->Parent;
 4813              		.loc 1 2318 22
 4814 0008 7B68     		ldr	r3, [r7, #4]
 4815 000a 9B6A     		ldr	r3, [r3, #40]
 4816 000c FB60     		str	r3, [r7, #12]
2319:Drivers/STM32L4xx_HAL_Driver/Src/stm32l4xx_hal_tim_ex.c **** 
2320:Drivers/STM32L4xx_HAL_Driver/Src/stm32l4xx_hal_tim_ex.c ****   /* Change the htim state */
2321:Drivers/STM32L4xx_HAL_Driver/Src/stm32l4xx_hal_tim_ex.c ****   htim->State = HAL_TIM_STATE_READY;
 4817              		.loc 1 2321 15
 4818 000e FB68     		ldr	r3, [r7, #12]
 4819 0010 0122     		movs	r2, #1
 4820 0012 83F83D20 		strb	r2, [r3, #61]
2322:Drivers/STM32L4xx_HAL_Driver/Src/stm32l4xx_hal_tim_ex.c **** 
2323:Drivers/STM32L4xx_HAL_Driver/Src/stm32l4xx_hal_tim_ex.c **** #if (USE_HAL_TIM_REGISTER_CALLBACKS == 1)
2324:Drivers/STM32L4xx_HAL_Driver/Src/stm32l4xx_hal_tim_ex.c ****   htim->CommutationCallback(htim);
2325:Drivers/STM32L4xx_HAL_Driver/Src/stm32l4xx_hal_tim_ex.c **** #else
2326:Drivers/STM32L4xx_HAL_Driver/Src/stm32l4xx_hal_tim_ex.c ****   HAL_TIMEx_CommutCallback(htim);
 4821              		.loc 1 2326 3
 4822 0016 F868     		ldr	r0, [r7, #12]
 4823 0018 FFF7FEFF 		bl	HAL_TIMEx_CommutCallback
2327:Drivers/STM32L4xx_HAL_Driver/Src/stm32l4xx_hal_tim_ex.c **** #endif /* USE_HAL_TIM_REGISTER_CALLBACKS */
2328:Drivers/STM32L4xx_HAL_Driver/Src/stm32l4xx_hal_tim_ex.c **** }
 4824              		.loc 1 2328 1
 4825 001c 00BF     		nop
 4826 001e 1037     		adds	r7, r7, #16
 4827              	.LCFI213:
 4828              		.cfi_def_cfa_offset 8
 4829 0020 BD46     		mov	sp, r7
 4830              	.LCFI214:
ARM GAS  /tmp/cc9IMTcg.s 			page 128


 4831              		.cfi_def_cfa_register 13
 4832              		@ sp needed
 4833 0022 80BD     		pop	{r7, pc}
 4834              		.cfi_endproc
 4835              	.LFE169:
 4837              		.section	.text.TIMEx_DMACommutationHalfCplt,"ax",%progbits
 4838              		.align	1
 4839              		.global	TIMEx_DMACommutationHalfCplt
 4840              		.syntax unified
 4841              		.thumb
 4842              		.thumb_func
 4843              		.fpu fpv4-sp-d16
 4845              	TIMEx_DMACommutationHalfCplt:
 4846              	.LFB170:
2329:Drivers/STM32L4xx_HAL_Driver/Src/stm32l4xx_hal_tim_ex.c **** 
2330:Drivers/STM32L4xx_HAL_Driver/Src/stm32l4xx_hal_tim_ex.c **** /**
2331:Drivers/STM32L4xx_HAL_Driver/Src/stm32l4xx_hal_tim_ex.c ****   * @brief  TIM DMA Commutation half complete callback.
2332:Drivers/STM32L4xx_HAL_Driver/Src/stm32l4xx_hal_tim_ex.c ****   * @param  hdma pointer to DMA handle.
2333:Drivers/STM32L4xx_HAL_Driver/Src/stm32l4xx_hal_tim_ex.c ****   * @retval None
2334:Drivers/STM32L4xx_HAL_Driver/Src/stm32l4xx_hal_tim_ex.c ****   */
2335:Drivers/STM32L4xx_HAL_Driver/Src/stm32l4xx_hal_tim_ex.c **** void TIMEx_DMACommutationHalfCplt(DMA_HandleTypeDef *hdma)
2336:Drivers/STM32L4xx_HAL_Driver/Src/stm32l4xx_hal_tim_ex.c **** {
 4847              		.loc 1 2336 1
 4848              		.cfi_startproc
 4849              		@ args = 0, pretend = 0, frame = 16
 4850              		@ frame_needed = 1, uses_anonymous_args = 0
 4851 0000 80B5     		push	{r7, lr}
 4852              	.LCFI215:
 4853              		.cfi_def_cfa_offset 8
 4854              		.cfi_offset 7, -8
 4855              		.cfi_offset 14, -4
 4856 0002 84B0     		sub	sp, sp, #16
 4857              	.LCFI216:
 4858              		.cfi_def_cfa_offset 24
 4859 0004 00AF     		add	r7, sp, #0
 4860              	.LCFI217:
 4861              		.cfi_def_cfa_register 7
 4862 0006 7860     		str	r0, [r7, #4]
2337:Drivers/STM32L4xx_HAL_Driver/Src/stm32l4xx_hal_tim_ex.c ****   TIM_HandleTypeDef *htim = (TIM_HandleTypeDef *)((DMA_HandleTypeDef *)hdma)->Parent;
 4863              		.loc 1 2337 22
 4864 0008 7B68     		ldr	r3, [r7, #4]
 4865 000a 9B6A     		ldr	r3, [r3, #40]
 4866 000c FB60     		str	r3, [r7, #12]
2338:Drivers/STM32L4xx_HAL_Driver/Src/stm32l4xx_hal_tim_ex.c **** 
2339:Drivers/STM32L4xx_HAL_Driver/Src/stm32l4xx_hal_tim_ex.c ****   /* Change the htim state */
2340:Drivers/STM32L4xx_HAL_Driver/Src/stm32l4xx_hal_tim_ex.c ****   htim->State = HAL_TIM_STATE_READY;
 4867              		.loc 1 2340 15
 4868 000e FB68     		ldr	r3, [r7, #12]
 4869 0010 0122     		movs	r2, #1
 4870 0012 83F83D20 		strb	r2, [r3, #61]
2341:Drivers/STM32L4xx_HAL_Driver/Src/stm32l4xx_hal_tim_ex.c **** 
2342:Drivers/STM32L4xx_HAL_Driver/Src/stm32l4xx_hal_tim_ex.c **** #if (USE_HAL_TIM_REGISTER_CALLBACKS == 1)
2343:Drivers/STM32L4xx_HAL_Driver/Src/stm32l4xx_hal_tim_ex.c ****   htim->CommutationHalfCpltCallback(htim);
2344:Drivers/STM32L4xx_HAL_Driver/Src/stm32l4xx_hal_tim_ex.c **** #else
2345:Drivers/STM32L4xx_HAL_Driver/Src/stm32l4xx_hal_tim_ex.c ****   HAL_TIMEx_CommutHalfCpltCallback(htim);
 4871              		.loc 1 2345 3
 4872 0016 F868     		ldr	r0, [r7, #12]
ARM GAS  /tmp/cc9IMTcg.s 			page 129


 4873 0018 FFF7FEFF 		bl	HAL_TIMEx_CommutHalfCpltCallback
2346:Drivers/STM32L4xx_HAL_Driver/Src/stm32l4xx_hal_tim_ex.c **** #endif /* USE_HAL_TIM_REGISTER_CALLBACKS */
2347:Drivers/STM32L4xx_HAL_Driver/Src/stm32l4xx_hal_tim_ex.c **** }
 4874              		.loc 1 2347 1
 4875 001c 00BF     		nop
 4876 001e 1037     		adds	r7, r7, #16
 4877              	.LCFI218:
 4878              		.cfi_def_cfa_offset 8
 4879 0020 BD46     		mov	sp, r7
 4880              	.LCFI219:
 4881              		.cfi_def_cfa_register 13
 4882              		@ sp needed
 4883 0022 80BD     		pop	{r7, pc}
 4884              		.cfi_endproc
 4885              	.LFE170:
 4887              		.section	.text.TIM_CCxNChannelCmd,"ax",%progbits
 4888              		.align	1
 4889              		.syntax unified
 4890              		.thumb
 4891              		.thumb_func
 4892              		.fpu fpv4-sp-d16
 4894              	TIM_CCxNChannelCmd:
 4895              	.LFB171:
2348:Drivers/STM32L4xx_HAL_Driver/Src/stm32l4xx_hal_tim_ex.c **** 
2349:Drivers/STM32L4xx_HAL_Driver/Src/stm32l4xx_hal_tim_ex.c **** 
2350:Drivers/STM32L4xx_HAL_Driver/Src/stm32l4xx_hal_tim_ex.c **** /**
2351:Drivers/STM32L4xx_HAL_Driver/Src/stm32l4xx_hal_tim_ex.c ****   * @brief  Enables or disables the TIM Capture Compare Channel xN.
2352:Drivers/STM32L4xx_HAL_Driver/Src/stm32l4xx_hal_tim_ex.c ****   * @param  TIMx to select the TIM peripheral
2353:Drivers/STM32L4xx_HAL_Driver/Src/stm32l4xx_hal_tim_ex.c ****   * @param  Channel specifies the TIM Channel
2354:Drivers/STM32L4xx_HAL_Driver/Src/stm32l4xx_hal_tim_ex.c ****   *          This parameter can be one of the following values:
2355:Drivers/STM32L4xx_HAL_Driver/Src/stm32l4xx_hal_tim_ex.c ****   *            @arg TIM_CHANNEL_1: TIM Channel 1
2356:Drivers/STM32L4xx_HAL_Driver/Src/stm32l4xx_hal_tim_ex.c ****   *            @arg TIM_CHANNEL_2: TIM Channel 2
2357:Drivers/STM32L4xx_HAL_Driver/Src/stm32l4xx_hal_tim_ex.c ****   *            @arg TIM_CHANNEL_3: TIM Channel 3
2358:Drivers/STM32L4xx_HAL_Driver/Src/stm32l4xx_hal_tim_ex.c ****   * @param  ChannelNState specifies the TIM Channel CCxNE bit new state.
2359:Drivers/STM32L4xx_HAL_Driver/Src/stm32l4xx_hal_tim_ex.c ****   *          This parameter can be: TIM_CCxN_ENABLE or TIM_CCxN_Disable.
2360:Drivers/STM32L4xx_HAL_Driver/Src/stm32l4xx_hal_tim_ex.c ****   * @retval None
2361:Drivers/STM32L4xx_HAL_Driver/Src/stm32l4xx_hal_tim_ex.c ****   */
2362:Drivers/STM32L4xx_HAL_Driver/Src/stm32l4xx_hal_tim_ex.c **** static void TIM_CCxNChannelCmd(TIM_TypeDef *TIMx, uint32_t Channel, uint32_t ChannelNState)
2363:Drivers/STM32L4xx_HAL_Driver/Src/stm32l4xx_hal_tim_ex.c **** {
 4896              		.loc 1 2363 1
 4897              		.cfi_startproc
 4898              		@ args = 0, pretend = 0, frame = 24
 4899              		@ frame_needed = 1, uses_anonymous_args = 0
 4900              		@ link register save eliminated.
 4901 0000 80B4     		push	{r7}
 4902              	.LCFI220:
 4903              		.cfi_def_cfa_offset 4
 4904              		.cfi_offset 7, -4
 4905 0002 87B0     		sub	sp, sp, #28
 4906              	.LCFI221:
 4907              		.cfi_def_cfa_offset 32
 4908 0004 00AF     		add	r7, sp, #0
 4909              	.LCFI222:
 4910              		.cfi_def_cfa_register 7
 4911 0006 F860     		str	r0, [r7, #12]
 4912 0008 B960     		str	r1, [r7, #8]
 4913 000a 7A60     		str	r2, [r7, #4]
ARM GAS  /tmp/cc9IMTcg.s 			page 130


2364:Drivers/STM32L4xx_HAL_Driver/Src/stm32l4xx_hal_tim_ex.c ****   uint32_t tmp;
2365:Drivers/STM32L4xx_HAL_Driver/Src/stm32l4xx_hal_tim_ex.c **** 
2366:Drivers/STM32L4xx_HAL_Driver/Src/stm32l4xx_hal_tim_ex.c ****   tmp = TIM_CCER_CC1NE << (Channel & 0x1FU); /* 0x1FU = 31 bits max shift */
 4914              		.loc 1 2366 36
 4915 000c BB68     		ldr	r3, [r7, #8]
 4916 000e 03F01F03 		and	r3, r3, #31
 4917              		.loc 1 2366 7
 4918 0012 0422     		movs	r2, #4
 4919 0014 02FA03F3 		lsl	r3, r2, r3
 4920 0018 7B61     		str	r3, [r7, #20]
2367:Drivers/STM32L4xx_HAL_Driver/Src/stm32l4xx_hal_tim_ex.c **** 
2368:Drivers/STM32L4xx_HAL_Driver/Src/stm32l4xx_hal_tim_ex.c ****   /* Reset the CCxNE Bit */
2369:Drivers/STM32L4xx_HAL_Driver/Src/stm32l4xx_hal_tim_ex.c ****   TIMx->CCER &=  ~tmp;
 4921              		.loc 1 2369 14
 4922 001a FB68     		ldr	r3, [r7, #12]
 4923 001c 1A6A     		ldr	r2, [r3, #32]
 4924              		.loc 1 2369 18
 4925 001e 7B69     		ldr	r3, [r7, #20]
 4926 0020 DB43     		mvns	r3, r3
 4927              		.loc 1 2369 14
 4928 0022 1A40     		ands	r2, r2, r3
 4929 0024 FB68     		ldr	r3, [r7, #12]
 4930 0026 1A62     		str	r2, [r3, #32]
2370:Drivers/STM32L4xx_HAL_Driver/Src/stm32l4xx_hal_tim_ex.c **** 
2371:Drivers/STM32L4xx_HAL_Driver/Src/stm32l4xx_hal_tim_ex.c ****   /* Set or reset the CCxNE Bit */
2372:Drivers/STM32L4xx_HAL_Driver/Src/stm32l4xx_hal_tim_ex.c ****   TIMx->CCER |= (uint32_t)(ChannelNState << (Channel & 0x1FU)); /* 0x1FU = 31 bits max shift */
 4931              		.loc 1 2372 14
 4932 0028 FB68     		ldr	r3, [r7, #12]
 4933 002a 1A6A     		ldr	r2, [r3, #32]
 4934              		.loc 1 2372 54
 4935 002c BB68     		ldr	r3, [r7, #8]
 4936 002e 03F01F03 		and	r3, r3, #31
 4937              		.loc 1 2372 42
 4938 0032 7968     		ldr	r1, [r7, #4]
 4939 0034 01FA03F3 		lsl	r3, r1, r3
 4940              		.loc 1 2372 14
 4941 0038 1A43     		orrs	r2, r2, r3
 4942 003a FB68     		ldr	r3, [r7, #12]
 4943 003c 1A62     		str	r2, [r3, #32]
2373:Drivers/STM32L4xx_HAL_Driver/Src/stm32l4xx_hal_tim_ex.c **** }
 4944              		.loc 1 2373 1
 4945 003e 00BF     		nop
 4946 0040 1C37     		adds	r7, r7, #28
 4947              	.LCFI223:
 4948              		.cfi_def_cfa_offset 4
 4949 0042 BD46     		mov	sp, r7
 4950              	.LCFI224:
 4951              		.cfi_def_cfa_register 13
 4952              		@ sp needed
 4953 0044 5DF8047B 		ldr	r7, [sp], #4
 4954              	.LCFI225:
 4955              		.cfi_restore 7
 4956              		.cfi_def_cfa_offset 0
 4957 0048 7047     		bx	lr
 4958              		.cfi_endproc
 4959              	.LFE171:
 4961              		.text
ARM GAS  /tmp/cc9IMTcg.s 			page 131


 4962              	.Letext0:
 4963              		.file 2 "/home/ilian/opt/gcc-arm-none-eabi-9-2020-q2-update/arm-none-eabi/include/machine/_default
 4964              		.file 3 "/home/ilian/opt/gcc-arm-none-eabi-9-2020-q2-update/arm-none-eabi/include/sys/_stdint.h"
 4965              		.file 4 "Drivers/CMSIS/Include/core_cm4.h"
 4966              		.file 5 "Drivers/CMSIS/Device/ST/STM32L4xx/Include/system_stm32l4xx.h"
 4967              		.file 6 "Drivers/CMSIS/Device/ST/STM32L4xx/Include/stm32l433xx.h"
 4968              		.file 7 "Drivers/CMSIS/Device/ST/STM32L4xx/Include/stm32l4xx.h"
 4969              		.file 8 "Drivers/STM32L4xx_HAL_Driver/Inc/stm32l4xx_hal_def.h"
 4970              		.file 9 "Drivers/STM32L4xx_HAL_Driver/Inc/stm32l4xx_hal_dma.h"
 4971              		.file 10 "Drivers/STM32L4xx_HAL_Driver/Inc/stm32l4xx_hal_flash.h"
 4972              		.file 11 "Drivers/STM32L4xx_HAL_Driver/Inc/stm32l4xx_hal_tim.h"
 4973              		.file 12 "Drivers/STM32L4xx_HAL_Driver/Inc/stm32l4xx_hal_tim_ex.h"
 4974              		.file 13 "Drivers/STM32L4xx_HAL_Driver/Inc/stm32l4xx_hal.h"
ARM GAS  /tmp/cc9IMTcg.s 			page 132


DEFINED SYMBOLS
                            *ABS*:0000000000000000 stm32l4xx_hal_tim_ex.c
     /tmp/cc9IMTcg.s:18     .text.HAL_TIMEx_HallSensor_Init:0000000000000000 $t
     /tmp/cc9IMTcg.s:26     .text.HAL_TIMEx_HallSensor_Init:0000000000000000 HAL_TIMEx_HallSensor_Init
     /tmp/cc9IMTcg.s:332    .text.HAL_TIMEx_HallSensor_MspInit:0000000000000000 HAL_TIMEx_HallSensor_MspInit
     /tmp/cc9IMTcg.s:244    .text.HAL_TIMEx_HallSensor_DeInit:0000000000000000 $t
     /tmp/cc9IMTcg.s:251    .text.HAL_TIMEx_HallSensor_DeInit:0000000000000000 HAL_TIMEx_HallSensor_DeInit
     /tmp/cc9IMTcg.s:375    .text.HAL_TIMEx_HallSensor_MspDeInit:0000000000000000 HAL_TIMEx_HallSensor_MspDeInit
     /tmp/cc9IMTcg.s:325    .text.HAL_TIMEx_HallSensor_MspInit:0000000000000000 $t
     /tmp/cc9IMTcg.s:368    .text.HAL_TIMEx_HallSensor_MspDeInit:0000000000000000 $t
     /tmp/cc9IMTcg.s:411    .text.HAL_TIMEx_HallSensor_Start:0000000000000000 $t
     /tmp/cc9IMTcg.s:418    .text.HAL_TIMEx_HallSensor_Start:0000000000000000 HAL_TIMEx_HallSensor_Start
     /tmp/cc9IMTcg.s:484    .text.HAL_TIMEx_HallSensor_Start:000000000000004c $d
     /tmp/cc9IMTcg.s:489    .text.HAL_TIMEx_HallSensor_Stop:0000000000000000 $t
     /tmp/cc9IMTcg.s:496    .text.HAL_TIMEx_HallSensor_Stop:0000000000000000 HAL_TIMEx_HallSensor_Stop
     /tmp/cc9IMTcg.s:562    .text.HAL_TIMEx_HallSensor_Start_IT:0000000000000000 $t
     /tmp/cc9IMTcg.s:569    .text.HAL_TIMEx_HallSensor_Start_IT:0000000000000000 HAL_TIMEx_HallSensor_Start_IT
     /tmp/cc9IMTcg.s:643    .text.HAL_TIMEx_HallSensor_Start_IT:000000000000005c $d
     /tmp/cc9IMTcg.s:648    .text.HAL_TIMEx_HallSensor_Stop_IT:0000000000000000 $t
     /tmp/cc9IMTcg.s:655    .text.HAL_TIMEx_HallSensor_Stop_IT:0000000000000000 HAL_TIMEx_HallSensor_Stop_IT
     /tmp/cc9IMTcg.s:729    .text.HAL_TIMEx_HallSensor_Start_DMA:0000000000000000 $t
     /tmp/cc9IMTcg.s:736    .text.HAL_TIMEx_HallSensor_Start_DMA:0000000000000000 HAL_TIMEx_HallSensor_Start_DMA
     /tmp/cc9IMTcg.s:888    .text.HAL_TIMEx_HallSensor_Start_DMA:00000000000000cc $d
     /tmp/cc9IMTcg.s:896    .text.HAL_TIMEx_HallSensor_Stop_DMA:0000000000000000 $t
     /tmp/cc9IMTcg.s:903    .text.HAL_TIMEx_HallSensor_Stop_DMA:0000000000000000 HAL_TIMEx_HallSensor_Stop_DMA
     /tmp/cc9IMTcg.s:982    .text.HAL_TIMEx_OCN_Start:0000000000000000 $t
     /tmp/cc9IMTcg.s:989    .text.HAL_TIMEx_OCN_Start:0000000000000000 HAL_TIMEx_OCN_Start
     /tmp/cc9IMTcg.s:4894   .text.TIM_CCxNChannelCmd:0000000000000000 TIM_CCxNChannelCmd
     /tmp/cc9IMTcg.s:1064   .text.HAL_TIMEx_OCN_Start:000000000000005c $d
     /tmp/cc9IMTcg.s:1069   .text.HAL_TIMEx_OCN_Stop:0000000000000000 $t
     /tmp/cc9IMTcg.s:1076   .text.HAL_TIMEx_OCN_Stop:0000000000000000 HAL_TIMEx_OCN_Stop
     /tmp/cc9IMTcg.s:1168   .text.HAL_TIMEx_OCN_Start_IT:0000000000000000 $t
     /tmp/cc9IMTcg.s:1175   .text.HAL_TIMEx_OCN_Start_IT:0000000000000000 HAL_TIMEx_OCN_Start_IT
     /tmp/cc9IMTcg.s:1310   .text.HAL_TIMEx_OCN_Start_IT:00000000000000c0 $d
     /tmp/cc9IMTcg.s:1315   .text.HAL_TIMEx_OCN_Stop_IT:0000000000000000 $t
     /tmp/cc9IMTcg.s:1322   .text.HAL_TIMEx_OCN_Stop_IT:0000000000000000 HAL_TIMEx_OCN_Stop_IT
     /tmp/cc9IMTcg.s:1488   .text.HAL_TIMEx_OCN_Start_DMA:0000000000000000 $t
     /tmp/cc9IMTcg.s:1495   .text.HAL_TIMEx_OCN_Start_DMA:0000000000000000 HAL_TIMEx_OCN_Start_DMA
     /tmp/cc9IMTcg.s:1777   .text.HAL_TIMEx_OCN_Start_DMA:0000000000000188 $d
     /tmp/cc9IMTcg.s:1785   .text.HAL_TIMEx_OCN_Stop_DMA:0000000000000000 $t
     /tmp/cc9IMTcg.s:1792   .text.HAL_TIMEx_OCN_Stop_DMA:0000000000000000 HAL_TIMEx_OCN_Stop_DMA
     /tmp/cc9IMTcg.s:1955   .text.HAL_TIMEx_PWMN_Start:0000000000000000 $t
     /tmp/cc9IMTcg.s:1962   .text.HAL_TIMEx_PWMN_Start:0000000000000000 HAL_TIMEx_PWMN_Start
     /tmp/cc9IMTcg.s:2037   .text.HAL_TIMEx_PWMN_Start:000000000000005c $d
     /tmp/cc9IMTcg.s:2042   .text.HAL_TIMEx_PWMN_Stop:0000000000000000 $t
     /tmp/cc9IMTcg.s:2049   .text.HAL_TIMEx_PWMN_Stop:0000000000000000 HAL_TIMEx_PWMN_Stop
     /tmp/cc9IMTcg.s:2141   .text.HAL_TIMEx_PWMN_Start_IT:0000000000000000 $t
     /tmp/cc9IMTcg.s:2148   .text.HAL_TIMEx_PWMN_Start_IT:0000000000000000 HAL_TIMEx_PWMN_Start_IT
     /tmp/cc9IMTcg.s:2283   .text.HAL_TIMEx_PWMN_Start_IT:00000000000000c0 $d
     /tmp/cc9IMTcg.s:2288   .text.HAL_TIMEx_PWMN_Stop_IT:0000000000000000 $t
     /tmp/cc9IMTcg.s:2295   .text.HAL_TIMEx_PWMN_Stop_IT:0000000000000000 HAL_TIMEx_PWMN_Stop_IT
     /tmp/cc9IMTcg.s:2461   .text.HAL_TIMEx_PWMN_Start_DMA:0000000000000000 $t
     /tmp/cc9IMTcg.s:2468   .text.HAL_TIMEx_PWMN_Start_DMA:0000000000000000 HAL_TIMEx_PWMN_Start_DMA
     /tmp/cc9IMTcg.s:2750   .text.HAL_TIMEx_PWMN_Start_DMA:0000000000000188 $d
     /tmp/cc9IMTcg.s:2758   .text.HAL_TIMEx_PWMN_Stop_DMA:0000000000000000 $t
     /tmp/cc9IMTcg.s:2765   .text.HAL_TIMEx_PWMN_Stop_DMA:0000000000000000 HAL_TIMEx_PWMN_Stop_DMA
     /tmp/cc9IMTcg.s:2928   .text.HAL_TIMEx_OnePulseN_Start:0000000000000000 $t
ARM GAS  /tmp/cc9IMTcg.s 			page 133


     /tmp/cc9IMTcg.s:2935   .text.HAL_TIMEx_OnePulseN_Start:0000000000000000 HAL_TIMEx_OnePulseN_Start
     /tmp/cc9IMTcg.s:2985   .text.HAL_TIMEx_OnePulseN_Stop:0000000000000000 $t
     /tmp/cc9IMTcg.s:2992   .text.HAL_TIMEx_OnePulseN_Stop:0000000000000000 HAL_TIMEx_OnePulseN_Stop
     /tmp/cc9IMTcg.s:3084   .text.HAL_TIMEx_OnePulseN_Start_IT:0000000000000000 $t
     /tmp/cc9IMTcg.s:3091   .text.HAL_TIMEx_OnePulseN_Start_IT:0000000000000000 HAL_TIMEx_OnePulseN_Start_IT
     /tmp/cc9IMTcg.s:3157   .text.HAL_TIMEx_OnePulseN_Stop_IT:0000000000000000 $t
     /tmp/cc9IMTcg.s:3164   .text.HAL_TIMEx_OnePulseN_Stop_IT:0000000000000000 HAL_TIMEx_OnePulseN_Stop_IT
     /tmp/cc9IMTcg.s:3272   .text.HAL_TIMEx_ConfigCommutEvent:0000000000000000 $t
     /tmp/cc9IMTcg.s:3279   .text.HAL_TIMEx_ConfigCommutEvent:0000000000000000 HAL_TIMEx_ConfigCommutEvent
     /tmp/cc9IMTcg.s:3428   .text.HAL_TIMEx_ConfigCommutEvent_IT:0000000000000000 $t
     /tmp/cc9IMTcg.s:3435   .text.HAL_TIMEx_ConfigCommutEvent_IT:0000000000000000 HAL_TIMEx_ConfigCommutEvent_IT
     /tmp/cc9IMTcg.s:3584   .text.HAL_TIMEx_ConfigCommutEvent_DMA:0000000000000000 $t
     /tmp/cc9IMTcg.s:3591   .text.HAL_TIMEx_ConfigCommutEvent_DMA:0000000000000000 HAL_TIMEx_ConfigCommutEvent_DMA
     /tmp/cc9IMTcg.s:3757   .text.HAL_TIMEx_ConfigCommutEvent_DMA:00000000000000d8 $d
     /tmp/cc9IMTcg.s:4795   .text.TIMEx_DMACommutationCplt:0000000000000000 TIMEx_DMACommutationCplt
     /tmp/cc9IMTcg.s:4845   .text.TIMEx_DMACommutationHalfCplt:0000000000000000 TIMEx_DMACommutationHalfCplt
     /tmp/cc9IMTcg.s:3764   .text.HAL_TIMEx_MasterConfigSynchronization:0000000000000000 $t
     /tmp/cc9IMTcg.s:3771   .text.HAL_TIMEx_MasterConfigSynchronization:0000000000000000 HAL_TIMEx_MasterConfigSynchronization
     /tmp/cc9IMTcg.s:3920   .text.HAL_TIMEx_MasterConfigSynchronization:00000000000000c4 $d
     /tmp/cc9IMTcg.s:3926   .text.HAL_TIMEx_ConfigBreakDeadTime:0000000000000000 $t
     /tmp/cc9IMTcg.s:3933   .text.HAL_TIMEx_ConfigBreakDeadTime:0000000000000000 HAL_TIMEx_ConfigBreakDeadTime
     /tmp/cc9IMTcg.s:4085   .text.HAL_TIMEx_ConfigBreakDeadTime:00000000000000ec $d
     /tmp/cc9IMTcg.s:4090   .text.HAL_TIMEx_ConfigBreakInput:0000000000000000 $t
     /tmp/cc9IMTcg.s:4097   .text.HAL_TIMEx_ConfigBreakInput:0000000000000000 HAL_TIMEx_ConfigBreakInput
     /tmp/cc9IMTcg.s:4350   .text.HAL_TIMEx_RemapConfig:0000000000000000 $t
     /tmp/cc9IMTcg.s:4357   .text.HAL_TIMEx_RemapConfig:0000000000000000 HAL_TIMEx_RemapConfig
     /tmp/cc9IMTcg.s:4469   .text.HAL_TIMEx_RemapConfig:000000000000008c $d
     /tmp/cc9IMTcg.s:4474   .text.HAL_TIMEx_GroupChannel5:0000000000000000 $t
     /tmp/cc9IMTcg.s:4481   .text.HAL_TIMEx_GroupChannel5:0000000000000000 HAL_TIMEx_GroupChannel5
     /tmp/cc9IMTcg.s:4569   .text.HAL_TIMEx_CommutCallback:0000000000000000 $t
     /tmp/cc9IMTcg.s:4576   .text.HAL_TIMEx_CommutCallback:0000000000000000 HAL_TIMEx_CommutCallback
     /tmp/cc9IMTcg.s:4612   .text.HAL_TIMEx_CommutHalfCpltCallback:0000000000000000 $t
     /tmp/cc9IMTcg.s:4619   .text.HAL_TIMEx_CommutHalfCpltCallback:0000000000000000 HAL_TIMEx_CommutHalfCpltCallback
     /tmp/cc9IMTcg.s:4655   .text.HAL_TIMEx_BreakCallback:0000000000000000 $t
     /tmp/cc9IMTcg.s:4662   .text.HAL_TIMEx_BreakCallback:0000000000000000 HAL_TIMEx_BreakCallback
     /tmp/cc9IMTcg.s:4698   .text.HAL_TIMEx_Break2Callback:0000000000000000 $t
     /tmp/cc9IMTcg.s:4705   .text.HAL_TIMEx_Break2Callback:0000000000000000 HAL_TIMEx_Break2Callback
     /tmp/cc9IMTcg.s:4741   .text.HAL_TIMEx_HallSensor_GetState:0000000000000000 $t
     /tmp/cc9IMTcg.s:4748   .text.HAL_TIMEx_HallSensor_GetState:0000000000000000 HAL_TIMEx_HallSensor_GetState
     /tmp/cc9IMTcg.s:4788   .text.TIMEx_DMACommutationCplt:0000000000000000 $t
     /tmp/cc9IMTcg.s:4838   .text.TIMEx_DMACommutationHalfCplt:0000000000000000 $t
     /tmp/cc9IMTcg.s:4888   .text.TIM_CCxNChannelCmd:0000000000000000 $t

UNDEFINED SYMBOLS
TIM_Base_SetConfig
TIM_TI1_SetConfig
TIM_OC2_SetConfig
TIM_CCxChannelCmd
HAL_DMA_Start_IT
TIM_DMACaptureCplt
TIM_DMACaptureHalfCplt
TIM_DMAError
HAL_DMA_Abort_IT
TIM_DMADelayPulseCplt
TIM_DMADelayPulseHalfCplt
