ARM GAS  /tmp/cc9IMTcg.s 			page 1


   1              		.cpu cortex-m4
   2              		.eabi_attribute 27, 1
   3              		.eabi_attribute 28, 1
   4              		.eabi_attribute 20, 1
   5              		.eabi_attribute 21, 1
   6              		.eabi_attribute 23, 3
   7              		.eabi_attribute 24, 1
   8              		.eabi_attribute 25, 1
   9              		.eabi_attribute 26, 1
  10              		.eabi_attribute 30, 6
  11              		.eabi_attribute 34, 1
  12              		.eabi_attribute 18, 4
  13              		.file	"stm32l4xx_hal_tim_ex.c"
  14              		.text
  15              	.Ltext0:
  16              		.cfi_sections	.debug_frame
  17              		.section	.text.HAL_TIMEx_HallSensor_Init,"ax",%progbits
  18              		.align	1
  19              		.global	HAL_TIMEx_HallSensor_Init
  20              		.arch armv7e-m
  21              		.syntax unified
  22              		.thumb
  23              		.thumb_func
  24              		.fpu fpv4-sp-d16
  26              	HAL_TIMEx_HallSensor_Init:
  27              	.LFB130:
  28              		.file 1 "Drivers/STM32L4xx_HAL_Driver/Src/stm32l4xx_hal_tim_ex.c"
   1:Drivers/STM32L4xx_HAL_Driver/Src/stm32l4xx_hal_tim_ex.c **** /**
   2:Drivers/STM32L4xx_HAL_Driver/Src/stm32l4xx_hal_tim_ex.c ****   ******************************************************************************
   3:Drivers/STM32L4xx_HAL_Driver/Src/stm32l4xx_hal_tim_ex.c ****   * @file    stm32l4xx_hal_tim_ex.c
   4:Drivers/STM32L4xx_HAL_Driver/Src/stm32l4xx_hal_tim_ex.c ****   * @author  MCD Application Team
   5:Drivers/STM32L4xx_HAL_Driver/Src/stm32l4xx_hal_tim_ex.c ****   * @brief   TIM HAL module driver.
   6:Drivers/STM32L4xx_HAL_Driver/Src/stm32l4xx_hal_tim_ex.c ****   *          This file provides firmware functions to manage the following
   7:Drivers/STM32L4xx_HAL_Driver/Src/stm32l4xx_hal_tim_ex.c ****   *          functionalities of the Timer Extended peripheral:
   8:Drivers/STM32L4xx_HAL_Driver/Src/stm32l4xx_hal_tim_ex.c ****   *           + Time Hall Sensor Interface Initialization
   9:Drivers/STM32L4xx_HAL_Driver/Src/stm32l4xx_hal_tim_ex.c ****   *           + Time Hall Sensor Interface Start
  10:Drivers/STM32L4xx_HAL_Driver/Src/stm32l4xx_hal_tim_ex.c ****   *           + Time Complementary signal break and dead time configuration
  11:Drivers/STM32L4xx_HAL_Driver/Src/stm32l4xx_hal_tim_ex.c ****   *           + Time Master and Slave synchronization configuration
  12:Drivers/STM32L4xx_HAL_Driver/Src/stm32l4xx_hal_tim_ex.c ****   *           + Time Output Compare/PWM Channel Configuration (for channels 5 and 6)
  13:Drivers/STM32L4xx_HAL_Driver/Src/stm32l4xx_hal_tim_ex.c ****   *           + Time OCRef clear configuration
  14:Drivers/STM32L4xx_HAL_Driver/Src/stm32l4xx_hal_tim_ex.c ****   *           + Timer remapping capabilities configuration
  15:Drivers/STM32L4xx_HAL_Driver/Src/stm32l4xx_hal_tim_ex.c ****   @verbatim
  16:Drivers/STM32L4xx_HAL_Driver/Src/stm32l4xx_hal_tim_ex.c ****   ==============================================================================
  17:Drivers/STM32L4xx_HAL_Driver/Src/stm32l4xx_hal_tim_ex.c ****                       ##### TIMER Extended features #####
  18:Drivers/STM32L4xx_HAL_Driver/Src/stm32l4xx_hal_tim_ex.c ****   ==============================================================================
  19:Drivers/STM32L4xx_HAL_Driver/Src/stm32l4xx_hal_tim_ex.c ****   [..]
  20:Drivers/STM32L4xx_HAL_Driver/Src/stm32l4xx_hal_tim_ex.c ****     The Timer Extended features include:
  21:Drivers/STM32L4xx_HAL_Driver/Src/stm32l4xx_hal_tim_ex.c ****     (#) Complementary outputs with programmable dead-time for :
  22:Drivers/STM32L4xx_HAL_Driver/Src/stm32l4xx_hal_tim_ex.c ****         (++) Output Compare
  23:Drivers/STM32L4xx_HAL_Driver/Src/stm32l4xx_hal_tim_ex.c ****         (++) PWM generation (Edge and Center-aligned Mode)
  24:Drivers/STM32L4xx_HAL_Driver/Src/stm32l4xx_hal_tim_ex.c ****         (++) One-pulse mode output
  25:Drivers/STM32L4xx_HAL_Driver/Src/stm32l4xx_hal_tim_ex.c ****     (#) Synchronization circuit to control the timer with external signals and to
  26:Drivers/STM32L4xx_HAL_Driver/Src/stm32l4xx_hal_tim_ex.c ****         interconnect several timers together.
  27:Drivers/STM32L4xx_HAL_Driver/Src/stm32l4xx_hal_tim_ex.c ****     (#) Break input to put the timer output signals in reset state or in a known state.
  28:Drivers/STM32L4xx_HAL_Driver/Src/stm32l4xx_hal_tim_ex.c ****     (#) Supports incremental (quadrature) encoder and hall-sensor circuitry for
  29:Drivers/STM32L4xx_HAL_Driver/Src/stm32l4xx_hal_tim_ex.c ****         positioning purposes
  30:Drivers/STM32L4xx_HAL_Driver/Src/stm32l4xx_hal_tim_ex.c **** 
ARM GAS  /tmp/cc9IMTcg.s 			page 2


  31:Drivers/STM32L4xx_HAL_Driver/Src/stm32l4xx_hal_tim_ex.c ****             ##### How to use this driver #####
  32:Drivers/STM32L4xx_HAL_Driver/Src/stm32l4xx_hal_tim_ex.c ****   ==============================================================================
  33:Drivers/STM32L4xx_HAL_Driver/Src/stm32l4xx_hal_tim_ex.c ****     [..]
  34:Drivers/STM32L4xx_HAL_Driver/Src/stm32l4xx_hal_tim_ex.c ****      (#) Initialize the TIM low level resources by implementing the following functions
  35:Drivers/STM32L4xx_HAL_Driver/Src/stm32l4xx_hal_tim_ex.c ****          depending on the selected feature:
  36:Drivers/STM32L4xx_HAL_Driver/Src/stm32l4xx_hal_tim_ex.c ****            (++) Hall Sensor output : HAL_TIMEx_HallSensor_MspInit()
  37:Drivers/STM32L4xx_HAL_Driver/Src/stm32l4xx_hal_tim_ex.c **** 
  38:Drivers/STM32L4xx_HAL_Driver/Src/stm32l4xx_hal_tim_ex.c ****      (#) Initialize the TIM low level resources :
  39:Drivers/STM32L4xx_HAL_Driver/Src/stm32l4xx_hal_tim_ex.c ****         (##) Enable the TIM interface clock using __HAL_RCC_TIMx_CLK_ENABLE();
  40:Drivers/STM32L4xx_HAL_Driver/Src/stm32l4xx_hal_tim_ex.c ****         (##) TIM pins configuration
  41:Drivers/STM32L4xx_HAL_Driver/Src/stm32l4xx_hal_tim_ex.c ****             (+++) Enable the clock for the TIM GPIOs using the following function:
  42:Drivers/STM32L4xx_HAL_Driver/Src/stm32l4xx_hal_tim_ex.c ****               __HAL_RCC_GPIOx_CLK_ENABLE();
  43:Drivers/STM32L4xx_HAL_Driver/Src/stm32l4xx_hal_tim_ex.c ****             (+++) Configure these TIM pins in Alternate function mode using HAL_GPIO_Init();
  44:Drivers/STM32L4xx_HAL_Driver/Src/stm32l4xx_hal_tim_ex.c **** 
  45:Drivers/STM32L4xx_HAL_Driver/Src/stm32l4xx_hal_tim_ex.c ****      (#) The external Clock can be configured, if needed (the default clock is the
  46:Drivers/STM32L4xx_HAL_Driver/Src/stm32l4xx_hal_tim_ex.c ****          internal clock from the APBx), using the following function:
  47:Drivers/STM32L4xx_HAL_Driver/Src/stm32l4xx_hal_tim_ex.c ****          HAL_TIM_ConfigClockSource, the clock configuration should be done before
  48:Drivers/STM32L4xx_HAL_Driver/Src/stm32l4xx_hal_tim_ex.c ****          any start function.
  49:Drivers/STM32L4xx_HAL_Driver/Src/stm32l4xx_hal_tim_ex.c **** 
  50:Drivers/STM32L4xx_HAL_Driver/Src/stm32l4xx_hal_tim_ex.c ****      (#) Configure the TIM in the desired functioning mode using one of the
  51:Drivers/STM32L4xx_HAL_Driver/Src/stm32l4xx_hal_tim_ex.c ****          initialization function of this driver:
  52:Drivers/STM32L4xx_HAL_Driver/Src/stm32l4xx_hal_tim_ex.c ****           (++) HAL_TIMEx_HallSensor_Init() and HAL_TIMEx_ConfigCommutEvent(): to use the
  53:Drivers/STM32L4xx_HAL_Driver/Src/stm32l4xx_hal_tim_ex.c ****                Timer Hall Sensor Interface and the commutation event with the corresponding
  54:Drivers/STM32L4xx_HAL_Driver/Src/stm32l4xx_hal_tim_ex.c ****                Interrupt and DMA request if needed (Note that One Timer is used to interface
  55:Drivers/STM32L4xx_HAL_Driver/Src/stm32l4xx_hal_tim_ex.c ****                with the Hall sensor Interface and another Timer should be used to use
  56:Drivers/STM32L4xx_HAL_Driver/Src/stm32l4xx_hal_tim_ex.c ****                the commutation event).
  57:Drivers/STM32L4xx_HAL_Driver/Src/stm32l4xx_hal_tim_ex.c **** 
  58:Drivers/STM32L4xx_HAL_Driver/Src/stm32l4xx_hal_tim_ex.c ****      (#) Activate the TIM peripheral using one of the start functions:
  59:Drivers/STM32L4xx_HAL_Driver/Src/stm32l4xx_hal_tim_ex.c ****            (++) Complementary Output Compare : HAL_TIMEx_OCN_Start(), HAL_TIMEx_OCN_Start_DMA(), HA
  60:Drivers/STM32L4xx_HAL_Driver/Src/stm32l4xx_hal_tim_ex.c ****            (++) Complementary PWM generation : HAL_TIMEx_PWMN_Start(), HAL_TIMEx_PWMN_Start_DMA(), 
  61:Drivers/STM32L4xx_HAL_Driver/Src/stm32l4xx_hal_tim_ex.c ****            (++) Complementary One-pulse mode output : HAL_TIMEx_OnePulseN_Start(), HAL_TIMEx_OnePul
  62:Drivers/STM32L4xx_HAL_Driver/Src/stm32l4xx_hal_tim_ex.c ****            (++) Hall Sensor output : HAL_TIMEx_HallSensor_Start(), HAL_TIMEx_HallSensor_Start_DMA()
  63:Drivers/STM32L4xx_HAL_Driver/Src/stm32l4xx_hal_tim_ex.c **** 
  64:Drivers/STM32L4xx_HAL_Driver/Src/stm32l4xx_hal_tim_ex.c ****   @endverbatim
  65:Drivers/STM32L4xx_HAL_Driver/Src/stm32l4xx_hal_tim_ex.c ****   ******************************************************************************
  66:Drivers/STM32L4xx_HAL_Driver/Src/stm32l4xx_hal_tim_ex.c ****   * @attention
  67:Drivers/STM32L4xx_HAL_Driver/Src/stm32l4xx_hal_tim_ex.c ****   *
  68:Drivers/STM32L4xx_HAL_Driver/Src/stm32l4xx_hal_tim_ex.c ****   * <h2><center>&copy; Copyright (c) 2017 STMicroelectronics.
  69:Drivers/STM32L4xx_HAL_Driver/Src/stm32l4xx_hal_tim_ex.c ****   * All rights reserved.</center></h2>
  70:Drivers/STM32L4xx_HAL_Driver/Src/stm32l4xx_hal_tim_ex.c ****   *
  71:Drivers/STM32L4xx_HAL_Driver/Src/stm32l4xx_hal_tim_ex.c ****   * This software component is licensed by ST under BSD 3-Clause license,
  72:Drivers/STM32L4xx_HAL_Driver/Src/stm32l4xx_hal_tim_ex.c ****   * the "License"; You may not use this file except in compliance with the
  73:Drivers/STM32L4xx_HAL_Driver/Src/stm32l4xx_hal_tim_ex.c ****   * License. You may obtain a copy of the License at:
  74:Drivers/STM32L4xx_HAL_Driver/Src/stm32l4xx_hal_tim_ex.c ****   *                        opensource.org/licenses/BSD-3-Clause
  75:Drivers/STM32L4xx_HAL_Driver/Src/stm32l4xx_hal_tim_ex.c ****   *
  76:Drivers/STM32L4xx_HAL_Driver/Src/stm32l4xx_hal_tim_ex.c ****   ******************************************************************************
  77:Drivers/STM32L4xx_HAL_Driver/Src/stm32l4xx_hal_tim_ex.c ****   */
  78:Drivers/STM32L4xx_HAL_Driver/Src/stm32l4xx_hal_tim_ex.c **** 
  79:Drivers/STM32L4xx_HAL_Driver/Src/stm32l4xx_hal_tim_ex.c **** /* Includes ------------------------------------------------------------------*/
  80:Drivers/STM32L4xx_HAL_Driver/Src/stm32l4xx_hal_tim_ex.c **** #include "stm32l4xx_hal.h"
  81:Drivers/STM32L4xx_HAL_Driver/Src/stm32l4xx_hal_tim_ex.c **** 
  82:Drivers/STM32L4xx_HAL_Driver/Src/stm32l4xx_hal_tim_ex.c **** /** @addtogroup STM32L4xx_HAL_Driver
  83:Drivers/STM32L4xx_HAL_Driver/Src/stm32l4xx_hal_tim_ex.c ****   * @{
  84:Drivers/STM32L4xx_HAL_Driver/Src/stm32l4xx_hal_tim_ex.c ****   */
  85:Drivers/STM32L4xx_HAL_Driver/Src/stm32l4xx_hal_tim_ex.c **** 
  86:Drivers/STM32L4xx_HAL_Driver/Src/stm32l4xx_hal_tim_ex.c **** /** @defgroup TIMEx TIMEx
  87:Drivers/STM32L4xx_HAL_Driver/Src/stm32l4xx_hal_tim_ex.c ****   * @brief TIM Extended HAL module driver
ARM GAS  /tmp/cc9IMTcg.s 			page 3


  88:Drivers/STM32L4xx_HAL_Driver/Src/stm32l4xx_hal_tim_ex.c ****   * @{
  89:Drivers/STM32L4xx_HAL_Driver/Src/stm32l4xx_hal_tim_ex.c ****   */
  90:Drivers/STM32L4xx_HAL_Driver/Src/stm32l4xx_hal_tim_ex.c **** 
  91:Drivers/STM32L4xx_HAL_Driver/Src/stm32l4xx_hal_tim_ex.c **** #ifdef HAL_TIM_MODULE_ENABLED
  92:Drivers/STM32L4xx_HAL_Driver/Src/stm32l4xx_hal_tim_ex.c **** 
  93:Drivers/STM32L4xx_HAL_Driver/Src/stm32l4xx_hal_tim_ex.c **** /* Private typedef -----------------------------------------------------------*/
  94:Drivers/STM32L4xx_HAL_Driver/Src/stm32l4xx_hal_tim_ex.c **** /* Private define ------------------------------------------------------------*/
  95:Drivers/STM32L4xx_HAL_Driver/Src/stm32l4xx_hal_tim_ex.c **** /* Private macro -------------------------------------------------------------*/
  96:Drivers/STM32L4xx_HAL_Driver/Src/stm32l4xx_hal_tim_ex.c **** /* Private variables ---------------------------------------------------------*/
  97:Drivers/STM32L4xx_HAL_Driver/Src/stm32l4xx_hal_tim_ex.c **** /* Private function prototypes -----------------------------------------------*/
  98:Drivers/STM32L4xx_HAL_Driver/Src/stm32l4xx_hal_tim_ex.c **** static void TIM_CCxNChannelCmd(TIM_TypeDef *TIMx, uint32_t Channel, uint32_t ChannelNState);
  99:Drivers/STM32L4xx_HAL_Driver/Src/stm32l4xx_hal_tim_ex.c **** 
 100:Drivers/STM32L4xx_HAL_Driver/Src/stm32l4xx_hal_tim_ex.c **** /* Exported functions --------------------------------------------------------*/
 101:Drivers/STM32L4xx_HAL_Driver/Src/stm32l4xx_hal_tim_ex.c **** /** @defgroup TIMEx_Exported_Functions TIM Extended Exported Functions
 102:Drivers/STM32L4xx_HAL_Driver/Src/stm32l4xx_hal_tim_ex.c ****   * @{
 103:Drivers/STM32L4xx_HAL_Driver/Src/stm32l4xx_hal_tim_ex.c ****   */
 104:Drivers/STM32L4xx_HAL_Driver/Src/stm32l4xx_hal_tim_ex.c **** 
 105:Drivers/STM32L4xx_HAL_Driver/Src/stm32l4xx_hal_tim_ex.c **** /** @defgroup TIMEx_Exported_Functions_Group1 Extended Timer Hall Sensor functions
 106:Drivers/STM32L4xx_HAL_Driver/Src/stm32l4xx_hal_tim_ex.c ****   * @brief    Timer Hall Sensor functions
 107:Drivers/STM32L4xx_HAL_Driver/Src/stm32l4xx_hal_tim_ex.c ****   *
 108:Drivers/STM32L4xx_HAL_Driver/Src/stm32l4xx_hal_tim_ex.c **** @verbatim
 109:Drivers/STM32L4xx_HAL_Driver/Src/stm32l4xx_hal_tim_ex.c ****   ==============================================================================
 110:Drivers/STM32L4xx_HAL_Driver/Src/stm32l4xx_hal_tim_ex.c ****                       ##### Timer Hall Sensor functions #####
 111:Drivers/STM32L4xx_HAL_Driver/Src/stm32l4xx_hal_tim_ex.c ****   ==============================================================================
 112:Drivers/STM32L4xx_HAL_Driver/Src/stm32l4xx_hal_tim_ex.c ****   [..]
 113:Drivers/STM32L4xx_HAL_Driver/Src/stm32l4xx_hal_tim_ex.c ****     This section provides functions allowing to:
 114:Drivers/STM32L4xx_HAL_Driver/Src/stm32l4xx_hal_tim_ex.c ****     (+) Initialize and configure TIM HAL Sensor.
 115:Drivers/STM32L4xx_HAL_Driver/Src/stm32l4xx_hal_tim_ex.c ****     (+) De-initialize TIM HAL Sensor.
 116:Drivers/STM32L4xx_HAL_Driver/Src/stm32l4xx_hal_tim_ex.c ****     (+) Start the Hall Sensor Interface.
 117:Drivers/STM32L4xx_HAL_Driver/Src/stm32l4xx_hal_tim_ex.c ****     (+) Stop the Hall Sensor Interface.
 118:Drivers/STM32L4xx_HAL_Driver/Src/stm32l4xx_hal_tim_ex.c ****     (+) Start the Hall Sensor Interface and enable interrupts.
 119:Drivers/STM32L4xx_HAL_Driver/Src/stm32l4xx_hal_tim_ex.c ****     (+) Stop the Hall Sensor Interface and disable interrupts.
 120:Drivers/STM32L4xx_HAL_Driver/Src/stm32l4xx_hal_tim_ex.c ****     (+) Start the Hall Sensor Interface and enable DMA transfers.
 121:Drivers/STM32L4xx_HAL_Driver/Src/stm32l4xx_hal_tim_ex.c ****     (+) Stop the Hall Sensor Interface and disable DMA transfers.
 122:Drivers/STM32L4xx_HAL_Driver/Src/stm32l4xx_hal_tim_ex.c **** 
 123:Drivers/STM32L4xx_HAL_Driver/Src/stm32l4xx_hal_tim_ex.c **** @endverbatim
 124:Drivers/STM32L4xx_HAL_Driver/Src/stm32l4xx_hal_tim_ex.c ****   * @{
 125:Drivers/STM32L4xx_HAL_Driver/Src/stm32l4xx_hal_tim_ex.c ****   */
 126:Drivers/STM32L4xx_HAL_Driver/Src/stm32l4xx_hal_tim_ex.c **** /**
 127:Drivers/STM32L4xx_HAL_Driver/Src/stm32l4xx_hal_tim_ex.c ****   * @brief  Initializes the TIM Hall Sensor Interface and initialize the associated handle.
 128:Drivers/STM32L4xx_HAL_Driver/Src/stm32l4xx_hal_tim_ex.c ****   * @param  htim TIM Hall Sensor Interface handle
 129:Drivers/STM32L4xx_HAL_Driver/Src/stm32l4xx_hal_tim_ex.c ****   * @param  sConfig TIM Hall Sensor configuration structure
 130:Drivers/STM32L4xx_HAL_Driver/Src/stm32l4xx_hal_tim_ex.c ****   * @retval HAL status
 131:Drivers/STM32L4xx_HAL_Driver/Src/stm32l4xx_hal_tim_ex.c ****   */
 132:Drivers/STM32L4xx_HAL_Driver/Src/stm32l4xx_hal_tim_ex.c **** HAL_StatusTypeDef HAL_TIMEx_HallSensor_Init(TIM_HandleTypeDef *htim, TIM_HallSensor_InitTypeDef *sC
 133:Drivers/STM32L4xx_HAL_Driver/Src/stm32l4xx_hal_tim_ex.c **** {
  29              		.loc 1 133 1
  30              		.cfi_startproc
  31              		@ args = 0, pretend = 0, frame = 40
  32              		@ frame_needed = 1, uses_anonymous_args = 0
  33 0000 80B5     		push	{r7, lr}
  34              	.LCFI0:
  35              		.cfi_def_cfa_offset 8
  36              		.cfi_offset 7, -8
  37              		.cfi_offset 14, -4
  38 0002 8AB0     		sub	sp, sp, #40
  39              	.LCFI1:
ARM GAS  /tmp/cc9IMTcg.s 			page 4


  40              		.cfi_def_cfa_offset 48
  41 0004 00AF     		add	r7, sp, #0
  42              	.LCFI2:
  43              		.cfi_def_cfa_register 7
  44 0006 7860     		str	r0, [r7, #4]
  45 0008 3960     		str	r1, [r7]
 134:Drivers/STM32L4xx_HAL_Driver/Src/stm32l4xx_hal_tim_ex.c ****   TIM_OC_InitTypeDef OC_Config;
 135:Drivers/STM32L4xx_HAL_Driver/Src/stm32l4xx_hal_tim_ex.c **** 
 136:Drivers/STM32L4xx_HAL_Driver/Src/stm32l4xx_hal_tim_ex.c ****   /* Check the TIM handle allocation */
 137:Drivers/STM32L4xx_HAL_Driver/Src/stm32l4xx_hal_tim_ex.c ****   if (htim == NULL)
  46              		.loc 1 137 6
  47 000a 7B68     		ldr	r3, [r7, #4]
  48 000c 002B     		cmp	r3, #0
  49 000e 01D1     		bne	.L2
 138:Drivers/STM32L4xx_HAL_Driver/Src/stm32l4xx_hal_tim_ex.c ****   {
 139:Drivers/STM32L4xx_HAL_Driver/Src/stm32l4xx_hal_tim_ex.c ****     return HAL_ERROR;
  50              		.loc 1 139 12
  51 0010 0123     		movs	r3, #1
  52 0012 88E0     		b	.L5
  53              	.L2:
 140:Drivers/STM32L4xx_HAL_Driver/Src/stm32l4xx_hal_tim_ex.c ****   }
 141:Drivers/STM32L4xx_HAL_Driver/Src/stm32l4xx_hal_tim_ex.c **** 
 142:Drivers/STM32L4xx_HAL_Driver/Src/stm32l4xx_hal_tim_ex.c ****   /* Check the parameters */
 143:Drivers/STM32L4xx_HAL_Driver/Src/stm32l4xx_hal_tim_ex.c ****   assert_param(IS_TIM_HALL_SENSOR_INTERFACE_INSTANCE(htim->Instance));
 144:Drivers/STM32L4xx_HAL_Driver/Src/stm32l4xx_hal_tim_ex.c ****   assert_param(IS_TIM_COUNTER_MODE(htim->Init.CounterMode));
 145:Drivers/STM32L4xx_HAL_Driver/Src/stm32l4xx_hal_tim_ex.c ****   assert_param(IS_TIM_CLOCKDIVISION_DIV(htim->Init.ClockDivision));
 146:Drivers/STM32L4xx_HAL_Driver/Src/stm32l4xx_hal_tim_ex.c ****   assert_param(IS_TIM_AUTORELOAD_PRELOAD(htim->Init.AutoReloadPreload));
 147:Drivers/STM32L4xx_HAL_Driver/Src/stm32l4xx_hal_tim_ex.c ****   assert_param(IS_TIM_IC_POLARITY(sConfig->IC1Polarity));
 148:Drivers/STM32L4xx_HAL_Driver/Src/stm32l4xx_hal_tim_ex.c ****   assert_param(IS_TIM_IC_PRESCALER(sConfig->IC1Prescaler));
 149:Drivers/STM32L4xx_HAL_Driver/Src/stm32l4xx_hal_tim_ex.c ****   assert_param(IS_TIM_IC_FILTER(sConfig->IC1Filter));
 150:Drivers/STM32L4xx_HAL_Driver/Src/stm32l4xx_hal_tim_ex.c **** 
 151:Drivers/STM32L4xx_HAL_Driver/Src/stm32l4xx_hal_tim_ex.c ****   if (htim->State == HAL_TIM_STATE_RESET)
  54              		.loc 1 151 11
  55 0014 7B68     		ldr	r3, [r7, #4]
  56 0016 93F83D30 		ldrb	r3, [r3, #61]
  57 001a DBB2     		uxtb	r3, r3
  58              		.loc 1 151 6
  59 001c 002B     		cmp	r3, #0
  60 001e 06D1     		bne	.L4
 152:Drivers/STM32L4xx_HAL_Driver/Src/stm32l4xx_hal_tim_ex.c ****   {
 153:Drivers/STM32L4xx_HAL_Driver/Src/stm32l4xx_hal_tim_ex.c ****     /* Allocate lock resource and initialize it */
 154:Drivers/STM32L4xx_HAL_Driver/Src/stm32l4xx_hal_tim_ex.c ****     htim->Lock = HAL_UNLOCKED;
  61              		.loc 1 154 16
  62 0020 7B68     		ldr	r3, [r7, #4]
  63 0022 0022     		movs	r2, #0
  64 0024 83F83C20 		strb	r2, [r3, #60]
 155:Drivers/STM32L4xx_HAL_Driver/Src/stm32l4xx_hal_tim_ex.c **** 
 156:Drivers/STM32L4xx_HAL_Driver/Src/stm32l4xx_hal_tim_ex.c **** #if (USE_HAL_TIM_REGISTER_CALLBACKS == 1)
 157:Drivers/STM32L4xx_HAL_Driver/Src/stm32l4xx_hal_tim_ex.c ****     /* Reset interrupt callbacks to legacy week callbacks */
 158:Drivers/STM32L4xx_HAL_Driver/Src/stm32l4xx_hal_tim_ex.c ****     TIM_ResetCallback(htim);
 159:Drivers/STM32L4xx_HAL_Driver/Src/stm32l4xx_hal_tim_ex.c **** 
 160:Drivers/STM32L4xx_HAL_Driver/Src/stm32l4xx_hal_tim_ex.c ****     if (htim->HallSensor_MspInitCallback == NULL)
 161:Drivers/STM32L4xx_HAL_Driver/Src/stm32l4xx_hal_tim_ex.c ****     {
 162:Drivers/STM32L4xx_HAL_Driver/Src/stm32l4xx_hal_tim_ex.c ****       htim->HallSensor_MspInitCallback = HAL_TIMEx_HallSensor_MspInit;
 163:Drivers/STM32L4xx_HAL_Driver/Src/stm32l4xx_hal_tim_ex.c ****     }
 164:Drivers/STM32L4xx_HAL_Driver/Src/stm32l4xx_hal_tim_ex.c ****     /* Init the low level hardware : GPIO, CLOCK, NVIC */
 165:Drivers/STM32L4xx_HAL_Driver/Src/stm32l4xx_hal_tim_ex.c ****     htim->HallSensor_MspInitCallback(htim);
ARM GAS  /tmp/cc9IMTcg.s 			page 5


 166:Drivers/STM32L4xx_HAL_Driver/Src/stm32l4xx_hal_tim_ex.c **** #else
 167:Drivers/STM32L4xx_HAL_Driver/Src/stm32l4xx_hal_tim_ex.c ****     /* Init the low level hardware : GPIO, CLOCK, NVIC and DMA */
 168:Drivers/STM32L4xx_HAL_Driver/Src/stm32l4xx_hal_tim_ex.c ****     HAL_TIMEx_HallSensor_MspInit(htim);
  65              		.loc 1 168 5
  66 0028 7868     		ldr	r0, [r7, #4]
  67 002a FFF7FEFF 		bl	HAL_TIMEx_HallSensor_MspInit
  68              	.L4:
 169:Drivers/STM32L4xx_HAL_Driver/Src/stm32l4xx_hal_tim_ex.c **** #endif /* USE_HAL_TIM_REGISTER_CALLBACKS */
 170:Drivers/STM32L4xx_HAL_Driver/Src/stm32l4xx_hal_tim_ex.c ****   }
 171:Drivers/STM32L4xx_HAL_Driver/Src/stm32l4xx_hal_tim_ex.c **** 
 172:Drivers/STM32L4xx_HAL_Driver/Src/stm32l4xx_hal_tim_ex.c ****   /* Set the TIM state */
 173:Drivers/STM32L4xx_HAL_Driver/Src/stm32l4xx_hal_tim_ex.c ****   htim->State = HAL_TIM_STATE_BUSY;
  69              		.loc 1 173 15
  70 002e 7B68     		ldr	r3, [r7, #4]
  71 0030 0222     		movs	r2, #2
  72 0032 83F83D20 		strb	r2, [r3, #61]
 174:Drivers/STM32L4xx_HAL_Driver/Src/stm32l4xx_hal_tim_ex.c **** 
 175:Drivers/STM32L4xx_HAL_Driver/Src/stm32l4xx_hal_tim_ex.c ****   /* Configure the Time base in the Encoder Mode */
 176:Drivers/STM32L4xx_HAL_Driver/Src/stm32l4xx_hal_tim_ex.c ****   TIM_Base_SetConfig(htim->Instance, &htim->Init);
  73              		.loc 1 176 3
  74 0036 7B68     		ldr	r3, [r7, #4]
  75 0038 1A68     		ldr	r2, [r3]
  76 003a 7B68     		ldr	r3, [r7, #4]
  77 003c 0433     		adds	r3, r3, #4
  78 003e 1946     		mov	r1, r3
  79 0040 1046     		mov	r0, r2
  80 0042 FFF7FEFF 		bl	TIM_Base_SetConfig
 177:Drivers/STM32L4xx_HAL_Driver/Src/stm32l4xx_hal_tim_ex.c **** 
 178:Drivers/STM32L4xx_HAL_Driver/Src/stm32l4xx_hal_tim_ex.c ****   /* Configure the Channel 1 as Input Channel to interface with the three Outputs of the  Hall sens
 179:Drivers/STM32L4xx_HAL_Driver/Src/stm32l4xx_hal_tim_ex.c ****   TIM_TI1_SetConfig(htim->Instance, sConfig->IC1Polarity, TIM_ICSELECTION_TRC, sConfig->IC1Filter);
  81              		.loc 1 179 3
  82 0046 7B68     		ldr	r3, [r7, #4]
  83 0048 1868     		ldr	r0, [r3]
  84 004a 3B68     		ldr	r3, [r7]
  85 004c 1968     		ldr	r1, [r3]
  86 004e 3B68     		ldr	r3, [r7]
  87 0050 9B68     		ldr	r3, [r3, #8]
  88 0052 0322     		movs	r2, #3
  89 0054 FFF7FEFF 		bl	TIM_TI1_SetConfig
 180:Drivers/STM32L4xx_HAL_Driver/Src/stm32l4xx_hal_tim_ex.c **** 
 181:Drivers/STM32L4xx_HAL_Driver/Src/stm32l4xx_hal_tim_ex.c ****   /* Reset the IC1PSC Bits */
 182:Drivers/STM32L4xx_HAL_Driver/Src/stm32l4xx_hal_tim_ex.c ****   htim->Instance->CCMR1 &= ~TIM_CCMR1_IC1PSC;
  90              		.loc 1 182 7
  91 0058 7B68     		ldr	r3, [r7, #4]
  92 005a 1B68     		ldr	r3, [r3]
  93              		.loc 1 182 25
  94 005c 9A69     		ldr	r2, [r3, #24]
  95              		.loc 1 182 7
  96 005e 7B68     		ldr	r3, [r7, #4]
  97 0060 1B68     		ldr	r3, [r3]
  98              		.loc 1 182 25
  99 0062 22F00C02 		bic	r2, r2, #12
 100 0066 9A61     		str	r2, [r3, #24]
 183:Drivers/STM32L4xx_HAL_Driver/Src/stm32l4xx_hal_tim_ex.c ****   /* Set the IC1PSC value */
 184:Drivers/STM32L4xx_HAL_Driver/Src/stm32l4xx_hal_tim_ex.c ****   htim->Instance->CCMR1 |= sConfig->IC1Prescaler;
 101              		.loc 1 184 7
 102 0068 7B68     		ldr	r3, [r7, #4]
ARM GAS  /tmp/cc9IMTcg.s 			page 6


 103 006a 1B68     		ldr	r3, [r3]
 104              		.loc 1 184 25
 105 006c 9969     		ldr	r1, [r3, #24]
 106              		.loc 1 184 35
 107 006e 3B68     		ldr	r3, [r7]
 108 0070 5A68     		ldr	r2, [r3, #4]
 109              		.loc 1 184 7
 110 0072 7B68     		ldr	r3, [r7, #4]
 111 0074 1B68     		ldr	r3, [r3]
 112              		.loc 1 184 25
 113 0076 0A43     		orrs	r2, r2, r1
 114 0078 9A61     		str	r2, [r3, #24]
 185:Drivers/STM32L4xx_HAL_Driver/Src/stm32l4xx_hal_tim_ex.c **** 
 186:Drivers/STM32L4xx_HAL_Driver/Src/stm32l4xx_hal_tim_ex.c ****   /* Enable the Hall sensor interface (XOR function of the three inputs) */
 187:Drivers/STM32L4xx_HAL_Driver/Src/stm32l4xx_hal_tim_ex.c ****   htim->Instance->CR2 |= TIM_CR2_TI1S;
 115              		.loc 1 187 7
 116 007a 7B68     		ldr	r3, [r7, #4]
 117 007c 1B68     		ldr	r3, [r3]
 118              		.loc 1 187 23
 119 007e 5A68     		ldr	r2, [r3, #4]
 120              		.loc 1 187 7
 121 0080 7B68     		ldr	r3, [r7, #4]
 122 0082 1B68     		ldr	r3, [r3]
 123              		.loc 1 187 23
 124 0084 42F08002 		orr	r2, r2, #128
 125 0088 5A60     		str	r2, [r3, #4]
 188:Drivers/STM32L4xx_HAL_Driver/Src/stm32l4xx_hal_tim_ex.c **** 
 189:Drivers/STM32L4xx_HAL_Driver/Src/stm32l4xx_hal_tim_ex.c ****   /* Select the TIM_TS_TI1F_ED signal as Input trigger for the TIM */
 190:Drivers/STM32L4xx_HAL_Driver/Src/stm32l4xx_hal_tim_ex.c ****   htim->Instance->SMCR &= ~TIM_SMCR_TS;
 126              		.loc 1 190 7
 127 008a 7B68     		ldr	r3, [r7, #4]
 128 008c 1B68     		ldr	r3, [r3]
 129              		.loc 1 190 24
 130 008e 9A68     		ldr	r2, [r3, #8]
 131              		.loc 1 190 7
 132 0090 7B68     		ldr	r3, [r7, #4]
 133 0092 1B68     		ldr	r3, [r3]
 134              		.loc 1 190 24
 135 0094 22F07002 		bic	r2, r2, #112
 136 0098 9A60     		str	r2, [r3, #8]
 191:Drivers/STM32L4xx_HAL_Driver/Src/stm32l4xx_hal_tim_ex.c ****   htim->Instance->SMCR |= TIM_TS_TI1F_ED;
 137              		.loc 1 191 7
 138 009a 7B68     		ldr	r3, [r7, #4]
 139 009c 1B68     		ldr	r3, [r3]
 140              		.loc 1 191 24
 141 009e 9A68     		ldr	r2, [r3, #8]
 142              		.loc 1 191 7
 143 00a0 7B68     		ldr	r3, [r7, #4]
 144 00a2 1B68     		ldr	r3, [r3]
 145              		.loc 1 191 24
 146 00a4 42F04002 		orr	r2, r2, #64
 147 00a8 9A60     		str	r2, [r3, #8]
 192:Drivers/STM32L4xx_HAL_Driver/Src/stm32l4xx_hal_tim_ex.c **** 
 193:Drivers/STM32L4xx_HAL_Driver/Src/stm32l4xx_hal_tim_ex.c ****   /* Use the TIM_TS_TI1F_ED signal to reset the TIM counter each edge detection */
 194:Drivers/STM32L4xx_HAL_Driver/Src/stm32l4xx_hal_tim_ex.c ****   htim->Instance->SMCR &= ~TIM_SMCR_SMS;
 148              		.loc 1 194 7
 149 00aa 7B68     		ldr	r3, [r7, #4]
ARM GAS  /tmp/cc9IMTcg.s 			page 7


 150 00ac 1B68     		ldr	r3, [r3]
 151              		.loc 1 194 24
 152 00ae 9B68     		ldr	r3, [r3, #8]
 153              		.loc 1 194 7
 154 00b0 7A68     		ldr	r2, [r7, #4]
 155 00b2 1268     		ldr	r2, [r2]
 156              		.loc 1 194 24
 157 00b4 23F48033 		bic	r3, r3, #65536
 158 00b8 23F00703 		bic	r3, r3, #7
 159 00bc 9360     		str	r3, [r2, #8]
 195:Drivers/STM32L4xx_HAL_Driver/Src/stm32l4xx_hal_tim_ex.c ****   htim->Instance->SMCR |= TIM_SLAVEMODE_RESET;
 160              		.loc 1 195 7
 161 00be 7B68     		ldr	r3, [r7, #4]
 162 00c0 1B68     		ldr	r3, [r3]
 163              		.loc 1 195 24
 164 00c2 9A68     		ldr	r2, [r3, #8]
 165              		.loc 1 195 7
 166 00c4 7B68     		ldr	r3, [r7, #4]
 167 00c6 1B68     		ldr	r3, [r3]
 168              		.loc 1 195 24
 169 00c8 42F00402 		orr	r2, r2, #4
 170 00cc 9A60     		str	r2, [r3, #8]
 196:Drivers/STM32L4xx_HAL_Driver/Src/stm32l4xx_hal_tim_ex.c **** 
 197:Drivers/STM32L4xx_HAL_Driver/Src/stm32l4xx_hal_tim_ex.c ****   /* Program channel 2 in PWM 2 mode with the desired Commutation_Delay*/
 198:Drivers/STM32L4xx_HAL_Driver/Src/stm32l4xx_hal_tim_ex.c ****   OC_Config.OCFastMode = TIM_OCFAST_DISABLE;
 171              		.loc 1 198 24
 172 00ce 0023     		movs	r3, #0
 173 00d0 FB61     		str	r3, [r7, #28]
 199:Drivers/STM32L4xx_HAL_Driver/Src/stm32l4xx_hal_tim_ex.c ****   OC_Config.OCIdleState = TIM_OCIDLESTATE_RESET;
 174              		.loc 1 199 25
 175 00d2 0023     		movs	r3, #0
 176 00d4 3B62     		str	r3, [r7, #32]
 200:Drivers/STM32L4xx_HAL_Driver/Src/stm32l4xx_hal_tim_ex.c ****   OC_Config.OCMode = TIM_OCMODE_PWM2;
 177              		.loc 1 200 20
 178 00d6 7023     		movs	r3, #112
 179 00d8 FB60     		str	r3, [r7, #12]
 201:Drivers/STM32L4xx_HAL_Driver/Src/stm32l4xx_hal_tim_ex.c ****   OC_Config.OCNIdleState = TIM_OCNIDLESTATE_RESET;
 180              		.loc 1 201 26
 181 00da 0023     		movs	r3, #0
 182 00dc 7B62     		str	r3, [r7, #36]
 202:Drivers/STM32L4xx_HAL_Driver/Src/stm32l4xx_hal_tim_ex.c ****   OC_Config.OCNPolarity = TIM_OCNPOLARITY_HIGH;
 183              		.loc 1 202 25
 184 00de 0023     		movs	r3, #0
 185 00e0 BB61     		str	r3, [r7, #24]
 203:Drivers/STM32L4xx_HAL_Driver/Src/stm32l4xx_hal_tim_ex.c ****   OC_Config.OCPolarity = TIM_OCPOLARITY_HIGH;
 186              		.loc 1 203 24
 187 00e2 0023     		movs	r3, #0
 188 00e4 7B61     		str	r3, [r7, #20]
 204:Drivers/STM32L4xx_HAL_Driver/Src/stm32l4xx_hal_tim_ex.c ****   OC_Config.Pulse = sConfig->Commutation_Delay;
 189              		.loc 1 204 28
 190 00e6 3B68     		ldr	r3, [r7]
 191 00e8 DB68     		ldr	r3, [r3, #12]
 192              		.loc 1 204 19
 193 00ea 3B61     		str	r3, [r7, #16]
 205:Drivers/STM32L4xx_HAL_Driver/Src/stm32l4xx_hal_tim_ex.c **** 
 206:Drivers/STM32L4xx_HAL_Driver/Src/stm32l4xx_hal_tim_ex.c ****   TIM_OC2_SetConfig(htim->Instance, &OC_Config);
 194              		.loc 1 206 3
ARM GAS  /tmp/cc9IMTcg.s 			page 8


 195 00ec 7B68     		ldr	r3, [r7, #4]
 196 00ee 1B68     		ldr	r3, [r3]
 197 00f0 07F10C02 		add	r2, r7, #12
 198 00f4 1146     		mov	r1, r2
 199 00f6 1846     		mov	r0, r3
 200 00f8 FFF7FEFF 		bl	TIM_OC2_SetConfig
 207:Drivers/STM32L4xx_HAL_Driver/Src/stm32l4xx_hal_tim_ex.c **** 
 208:Drivers/STM32L4xx_HAL_Driver/Src/stm32l4xx_hal_tim_ex.c ****   /* Select OC2REF as trigger output on TRGO: write the MMS bits in the TIMx_CR2
 209:Drivers/STM32L4xx_HAL_Driver/Src/stm32l4xx_hal_tim_ex.c ****     register to 101 */
 210:Drivers/STM32L4xx_HAL_Driver/Src/stm32l4xx_hal_tim_ex.c ****   htim->Instance->CR2 &= ~TIM_CR2_MMS;
 201              		.loc 1 210 7
 202 00fc 7B68     		ldr	r3, [r7, #4]
 203 00fe 1B68     		ldr	r3, [r3]
 204              		.loc 1 210 23
 205 0100 5A68     		ldr	r2, [r3, #4]
 206              		.loc 1 210 7
 207 0102 7B68     		ldr	r3, [r7, #4]
 208 0104 1B68     		ldr	r3, [r3]
 209              		.loc 1 210 23
 210 0106 22F07002 		bic	r2, r2, #112
 211 010a 5A60     		str	r2, [r3, #4]
 211:Drivers/STM32L4xx_HAL_Driver/Src/stm32l4xx_hal_tim_ex.c ****   htim->Instance->CR2 |= TIM_TRGO_OC2REF;
 212              		.loc 1 211 7
 213 010c 7B68     		ldr	r3, [r7, #4]
 214 010e 1B68     		ldr	r3, [r3]
 215              		.loc 1 211 23
 216 0110 5A68     		ldr	r2, [r3, #4]
 217              		.loc 1 211 7
 218 0112 7B68     		ldr	r3, [r7, #4]
 219 0114 1B68     		ldr	r3, [r3]
 220              		.loc 1 211 23
 221 0116 42F05002 		orr	r2, r2, #80
 222 011a 5A60     		str	r2, [r3, #4]
 212:Drivers/STM32L4xx_HAL_Driver/Src/stm32l4xx_hal_tim_ex.c **** 
 213:Drivers/STM32L4xx_HAL_Driver/Src/stm32l4xx_hal_tim_ex.c ****   /* Initialize the TIM state*/
 214:Drivers/STM32L4xx_HAL_Driver/Src/stm32l4xx_hal_tim_ex.c ****   htim->State = HAL_TIM_STATE_READY;
 223              		.loc 1 214 15
 224 011c 7B68     		ldr	r3, [r7, #4]
 225 011e 0122     		movs	r2, #1
 226 0120 83F83D20 		strb	r2, [r3, #61]
 215:Drivers/STM32L4xx_HAL_Driver/Src/stm32l4xx_hal_tim_ex.c **** 
 216:Drivers/STM32L4xx_HAL_Driver/Src/stm32l4xx_hal_tim_ex.c ****   return HAL_OK;
 227              		.loc 1 216 10
 228 0124 0023     		movs	r3, #0
 229              	.L5:
 217:Drivers/STM32L4xx_HAL_Driver/Src/stm32l4xx_hal_tim_ex.c **** }
 230              		.loc 1 217 1 discriminator 1
 231 0126 1846     		mov	r0, r3
 232 0128 2837     		adds	r7, r7, #40
 233              	.LCFI3:
 234              		.cfi_def_cfa_offset 8
 235 012a BD46     		mov	sp, r7
 236              	.LCFI4:
 237              		.cfi_def_cfa_register 13
 238              		@ sp needed
 239 012c 80BD     		pop	{r7, pc}
 240              		.cfi_endproc
ARM GAS  /tmp/cc9IMTcg.s 			page 9


 241              	.LFE130:
 243              		.section	.text.HAL_TIMEx_HallSensor_DeInit,"ax",%progbits
 244              		.align	1
 245              		.global	HAL_TIMEx_HallSensor_DeInit
 246              		.syntax unified
 247              		.thumb
 248              		.thumb_func
 249              		.fpu fpv4-sp-d16
 251              	HAL_TIMEx_HallSensor_DeInit:
 252              	.LFB131:
 218:Drivers/STM32L4xx_HAL_Driver/Src/stm32l4xx_hal_tim_ex.c **** 
 219:Drivers/STM32L4xx_HAL_Driver/Src/stm32l4xx_hal_tim_ex.c **** /**
 220:Drivers/STM32L4xx_HAL_Driver/Src/stm32l4xx_hal_tim_ex.c ****   * @brief  DeInitializes the TIM Hall Sensor interface
 221:Drivers/STM32L4xx_HAL_Driver/Src/stm32l4xx_hal_tim_ex.c ****   * @param  htim TIM Hall Sensor Interface handle
 222:Drivers/STM32L4xx_HAL_Driver/Src/stm32l4xx_hal_tim_ex.c ****   * @retval HAL status
 223:Drivers/STM32L4xx_HAL_Driver/Src/stm32l4xx_hal_tim_ex.c ****   */
 224:Drivers/STM32L4xx_HAL_Driver/Src/stm32l4xx_hal_tim_ex.c **** HAL_StatusTypeDef HAL_TIMEx_HallSensor_DeInit(TIM_HandleTypeDef *htim)
 225:Drivers/STM32L4xx_HAL_Driver/Src/stm32l4xx_hal_tim_ex.c **** {
 253              		.loc 1 225 1
 254              		.cfi_startproc
 255              		@ args = 0, pretend = 0, frame = 8
 256              		@ frame_needed = 1, uses_anonymous_args = 0
 257 0000 80B5     		push	{r7, lr}
 258              	.LCFI5:
 259              		.cfi_def_cfa_offset 8
 260              		.cfi_offset 7, -8
 261              		.cfi_offset 14, -4
 262 0002 82B0     		sub	sp, sp, #8
 263              	.LCFI6:
 264              		.cfi_def_cfa_offset 16
 265 0004 00AF     		add	r7, sp, #0
 266              	.LCFI7:
 267              		.cfi_def_cfa_register 7
 268 0006 7860     		str	r0, [r7, #4]
 226:Drivers/STM32L4xx_HAL_Driver/Src/stm32l4xx_hal_tim_ex.c ****   /* Check the parameters */
 227:Drivers/STM32L4xx_HAL_Driver/Src/stm32l4xx_hal_tim_ex.c ****   assert_param(IS_TIM_INSTANCE(htim->Instance));
 228:Drivers/STM32L4xx_HAL_Driver/Src/stm32l4xx_hal_tim_ex.c **** 
 229:Drivers/STM32L4xx_HAL_Driver/Src/stm32l4xx_hal_tim_ex.c ****   htim->State = HAL_TIM_STATE_BUSY;
 269              		.loc 1 229 15
 270 0008 7B68     		ldr	r3, [r7, #4]
 271 000a 0222     		movs	r2, #2
 272 000c 83F83D20 		strb	r2, [r3, #61]
 230:Drivers/STM32L4xx_HAL_Driver/Src/stm32l4xx_hal_tim_ex.c **** 
 231:Drivers/STM32L4xx_HAL_Driver/Src/stm32l4xx_hal_tim_ex.c ****   /* Disable the TIM Peripheral Clock */
 232:Drivers/STM32L4xx_HAL_Driver/Src/stm32l4xx_hal_tim_ex.c ****   __HAL_TIM_DISABLE(htim);
 273              		.loc 1 232 3
 274 0010 7B68     		ldr	r3, [r7, #4]
 275 0012 1B68     		ldr	r3, [r3]
 276 0014 1A6A     		ldr	r2, [r3, #32]
 277 0016 41F21113 		movw	r3, #4369
 278 001a 1340     		ands	r3, r3, r2
 279 001c 002B     		cmp	r3, #0
 280 001e 0FD1     		bne	.L7
 281              		.loc 1 232 3 is_stmt 0 discriminator 1
 282 0020 7B68     		ldr	r3, [r7, #4]
 283 0022 1B68     		ldr	r3, [r3]
 284 0024 1A6A     		ldr	r2, [r3, #32]
ARM GAS  /tmp/cc9IMTcg.s 			page 10


 285 0026 40F24443 		movw	r3, #1092
 286 002a 1340     		ands	r3, r3, r2
 287 002c 002B     		cmp	r3, #0
 288 002e 07D1     		bne	.L7
 289              		.loc 1 232 3 discriminator 2
 290 0030 7B68     		ldr	r3, [r7, #4]
 291 0032 1B68     		ldr	r3, [r3]
 292 0034 1A68     		ldr	r2, [r3]
 293 0036 7B68     		ldr	r3, [r7, #4]
 294 0038 1B68     		ldr	r3, [r3]
 295 003a 22F00102 		bic	r2, r2, #1
 296 003e 1A60     		str	r2, [r3]
 297              	.L7:
 233:Drivers/STM32L4xx_HAL_Driver/Src/stm32l4xx_hal_tim_ex.c **** 
 234:Drivers/STM32L4xx_HAL_Driver/Src/stm32l4xx_hal_tim_ex.c **** #if (USE_HAL_TIM_REGISTER_CALLBACKS == 1)
 235:Drivers/STM32L4xx_HAL_Driver/Src/stm32l4xx_hal_tim_ex.c ****   if (htim->HallSensor_MspDeInitCallback == NULL)
 236:Drivers/STM32L4xx_HAL_Driver/Src/stm32l4xx_hal_tim_ex.c ****   {
 237:Drivers/STM32L4xx_HAL_Driver/Src/stm32l4xx_hal_tim_ex.c ****     htim->HallSensor_MspDeInitCallback = HAL_TIMEx_HallSensor_MspDeInit;
 238:Drivers/STM32L4xx_HAL_Driver/Src/stm32l4xx_hal_tim_ex.c ****   }
 239:Drivers/STM32L4xx_HAL_Driver/Src/stm32l4xx_hal_tim_ex.c ****   /* DeInit the low level hardware */
 240:Drivers/STM32L4xx_HAL_Driver/Src/stm32l4xx_hal_tim_ex.c ****   htim->HallSensor_MspDeInitCallback(htim);
 241:Drivers/STM32L4xx_HAL_Driver/Src/stm32l4xx_hal_tim_ex.c **** #else
 242:Drivers/STM32L4xx_HAL_Driver/Src/stm32l4xx_hal_tim_ex.c ****   /* DeInit the low level hardware: GPIO, CLOCK, NVIC */
 243:Drivers/STM32L4xx_HAL_Driver/Src/stm32l4xx_hal_tim_ex.c ****   HAL_TIMEx_HallSensor_MspDeInit(htim);
 298              		.loc 1 243 3 is_stmt 1
 299 0040 7868     		ldr	r0, [r7, #4]
 300 0042 FFF7FEFF 		bl	HAL_TIMEx_HallSensor_MspDeInit
 244:Drivers/STM32L4xx_HAL_Driver/Src/stm32l4xx_hal_tim_ex.c **** #endif /* USE_HAL_TIM_REGISTER_CALLBACKS */
 245:Drivers/STM32L4xx_HAL_Driver/Src/stm32l4xx_hal_tim_ex.c **** 
 246:Drivers/STM32L4xx_HAL_Driver/Src/stm32l4xx_hal_tim_ex.c ****   /* Change TIM state */
 247:Drivers/STM32L4xx_HAL_Driver/Src/stm32l4xx_hal_tim_ex.c ****   htim->State = HAL_TIM_STATE_RESET;
 301              		.loc 1 247 15
 302 0046 7B68     		ldr	r3, [r7, #4]
 303 0048 0022     		movs	r2, #0
 304 004a 83F83D20 		strb	r2, [r3, #61]
 248:Drivers/STM32L4xx_HAL_Driver/Src/stm32l4xx_hal_tim_ex.c **** 
 249:Drivers/STM32L4xx_HAL_Driver/Src/stm32l4xx_hal_tim_ex.c ****   /* Release Lock */
 250:Drivers/STM32L4xx_HAL_Driver/Src/stm32l4xx_hal_tim_ex.c ****   __HAL_UNLOCK(htim);
 305              		.loc 1 250 3
 306 004e 7B68     		ldr	r3, [r7, #4]
 307 0050 0022     		movs	r2, #0
 308 0052 83F83C20 		strb	r2, [r3, #60]
 251:Drivers/STM32L4xx_HAL_Driver/Src/stm32l4xx_hal_tim_ex.c **** 
 252:Drivers/STM32L4xx_HAL_Driver/Src/stm32l4xx_hal_tim_ex.c ****   return HAL_OK;
 309              		.loc 1 252 10
 310 0056 0023     		movs	r3, #0
 253:Drivers/STM32L4xx_HAL_Driver/Src/stm32l4xx_hal_tim_ex.c **** }
 311              		.loc 1 253 1
 312 0058 1846     		mov	r0, r3
 313 005a 0837     		adds	r7, r7, #8
 314              	.LCFI8:
 315              		.cfi_def_cfa_offset 8
 316 005c BD46     		mov	sp, r7
 317              	.LCFI9:
 318              		.cfi_def_cfa_register 13
 319              		@ sp needed
 320 005e 80BD     		pop	{r7, pc}
ARM GAS  /tmp/cc9IMTcg.s 			page 11


 321              		.cfi_endproc
 322              	.LFE131:
 324              		.section	.text.HAL_TIMEx_HallSensor_MspInit,"ax",%progbits
 325              		.align	1
 326              		.weak	HAL_TIMEx_HallSensor_MspInit
 327              		.syntax unified
 328              		.thumb
 329              		.thumb_func
 330              		.fpu fpv4-sp-d16
 332              	HAL_TIMEx_HallSensor_MspInit:
 333              	.LFB132:
 254:Drivers/STM32L4xx_HAL_Driver/Src/stm32l4xx_hal_tim_ex.c **** 
 255:Drivers/STM32L4xx_HAL_Driver/Src/stm32l4xx_hal_tim_ex.c **** /**
 256:Drivers/STM32L4xx_HAL_Driver/Src/stm32l4xx_hal_tim_ex.c ****   * @brief  Initializes the TIM Hall Sensor MSP.
 257:Drivers/STM32L4xx_HAL_Driver/Src/stm32l4xx_hal_tim_ex.c ****   * @param  htim TIM Hall Sensor Interface handle
 258:Drivers/STM32L4xx_HAL_Driver/Src/stm32l4xx_hal_tim_ex.c ****   * @retval None
 259:Drivers/STM32L4xx_HAL_Driver/Src/stm32l4xx_hal_tim_ex.c ****   */
 260:Drivers/STM32L4xx_HAL_Driver/Src/stm32l4xx_hal_tim_ex.c **** __weak void HAL_TIMEx_HallSensor_MspInit(TIM_HandleTypeDef *htim)
 261:Drivers/STM32L4xx_HAL_Driver/Src/stm32l4xx_hal_tim_ex.c **** {
 334              		.loc 1 261 1
 335              		.cfi_startproc
 336              		@ args = 0, pretend = 0, frame = 8
 337              		@ frame_needed = 1, uses_anonymous_args = 0
 338              		@ link register save eliminated.
 339 0000 80B4     		push	{r7}
 340              	.LCFI10:
 341              		.cfi_def_cfa_offset 4
 342              		.cfi_offset 7, -4
 343 0002 83B0     		sub	sp, sp, #12
 344              	.LCFI11:
 345              		.cfi_def_cfa_offset 16
 346 0004 00AF     		add	r7, sp, #0
 347              	.LCFI12:
 348              		.cfi_def_cfa_register 7
 349 0006 7860     		str	r0, [r7, #4]
 262:Drivers/STM32L4xx_HAL_Driver/Src/stm32l4xx_hal_tim_ex.c ****   /* Prevent unused argument(s) compilation warning */
 263:Drivers/STM32L4xx_HAL_Driver/Src/stm32l4xx_hal_tim_ex.c ****   UNUSED(htim);
 264:Drivers/STM32L4xx_HAL_Driver/Src/stm32l4xx_hal_tim_ex.c **** 
 265:Drivers/STM32L4xx_HAL_Driver/Src/stm32l4xx_hal_tim_ex.c ****   /* NOTE : This function should not be modified, when the callback is needed,
 266:Drivers/STM32L4xx_HAL_Driver/Src/stm32l4xx_hal_tim_ex.c ****             the HAL_TIMEx_HallSensor_MspInit could be implemented in the user file
 267:Drivers/STM32L4xx_HAL_Driver/Src/stm32l4xx_hal_tim_ex.c ****    */
 268:Drivers/STM32L4xx_HAL_Driver/Src/stm32l4xx_hal_tim_ex.c **** }
 350              		.loc 1 268 1
 351 0008 00BF     		nop
 352 000a 0C37     		adds	r7, r7, #12
 353              	.LCFI13:
 354              		.cfi_def_cfa_offset 4
 355 000c BD46     		mov	sp, r7
 356              	.LCFI14:
 357              		.cfi_def_cfa_register 13
 358              		@ sp needed
 359 000e 5DF8047B 		ldr	r7, [sp], #4
 360              	.LCFI15:
 361              		.cfi_restore 7
 362              		.cfi_def_cfa_offset 0
 363 0012 7047     		bx	lr
 364              		.cfi_endproc
ARM GAS  /tmp/cc9IMTcg.s 			page 12


 365              	.LFE132:
 367              		.section	.text.HAL_TIMEx_HallSensor_MspDeInit,"ax",%progbits
 368              		.align	1
 369              		.weak	HAL_TIMEx_HallSensor_MspDeInit
 370              		.syntax unified
 371              		.thumb
 372              		.thumb_func
 373              		.fpu fpv4-sp-d16
 375              	HAL_TIMEx_HallSensor_MspDeInit:
 376              	.LFB133:
 269:Drivers/STM32L4xx_HAL_Driver/Src/stm32l4xx_hal_tim_ex.c **** 
 270:Drivers/STM32L4xx_HAL_Driver/Src/stm32l4xx_hal_tim_ex.c **** /**
 271:Drivers/STM32L4xx_HAL_Driver/Src/stm32l4xx_hal_tim_ex.c ****   * @brief  DeInitializes TIM Hall Sensor MSP.
 272:Drivers/STM32L4xx_HAL_Driver/Src/stm32l4xx_hal_tim_ex.c ****   * @param  htim TIM Hall Sensor Interface handle
 273:Drivers/STM32L4xx_HAL_Driver/Src/stm32l4xx_hal_tim_ex.c ****   * @retval None
 274:Drivers/STM32L4xx_HAL_Driver/Src/stm32l4xx_hal_tim_ex.c ****   */
 275:Drivers/STM32L4xx_HAL_Driver/Src/stm32l4xx_hal_tim_ex.c **** __weak void HAL_TIMEx_HallSensor_MspDeInit(TIM_HandleTypeDef *htim)
 276:Drivers/STM32L4xx_HAL_Driver/Src/stm32l4xx_hal_tim_ex.c **** {
 377              		.loc 1 276 1
 378              		.cfi_startproc
 379              		@ args = 0, pretend = 0, frame = 8
 380              		@ frame_needed = 1, uses_anonymous_args = 0
 381              		@ link register save eliminated.
 382 0000 80B4     		push	{r7}
 383              	.LCFI16:
 384              		.cfi_def_cfa_offset 4
 385              		.cfi_offset 7, -4
 386 0002 83B0     		sub	sp, sp, #12
 387              	.LCFI17:
 388              		.cfi_def_cfa_offset 16
 389 0004 00AF     		add	r7, sp, #0
 390              	.LCFI18:
 391              		.cfi_def_cfa_register 7
 392 0006 7860     		str	r0, [r7, #4]
 277:Drivers/STM32L4xx_HAL_Driver/Src/stm32l4xx_hal_tim_ex.c ****   /* Prevent unused argument(s) compilation warning */
 278:Drivers/STM32L4xx_HAL_Driver/Src/stm32l4xx_hal_tim_ex.c ****   UNUSED(htim);
 279:Drivers/STM32L4xx_HAL_Driver/Src/stm32l4xx_hal_tim_ex.c **** 
 280:Drivers/STM32L4xx_HAL_Driver/Src/stm32l4xx_hal_tim_ex.c ****   /* NOTE : This function should not be modified, when the callback is needed,
 281:Drivers/STM32L4xx_HAL_Driver/Src/stm32l4xx_hal_tim_ex.c ****             the HAL_TIMEx_HallSensor_MspDeInit could be implemented in the user file
 282:Drivers/STM32L4xx_HAL_Driver/Src/stm32l4xx_hal_tim_ex.c ****    */
 283:Drivers/STM32L4xx_HAL_Driver/Src/stm32l4xx_hal_tim_ex.c **** }
 393              		.loc 1 283 1
 394 0008 00BF     		nop
 395 000a 0C37     		adds	r7, r7, #12
 396              	.LCFI19:
 397              		.cfi_def_cfa_offset 4
 398 000c BD46     		mov	sp, r7
 399              	.LCFI20:
 400              		.cfi_def_cfa_register 13
 401              		@ sp needed
 402 000e 5DF8047B 		ldr	r7, [sp], #4
 403              	.LCFI21:
 404              		.cfi_restore 7
 405              		.cfi_def_cfa_offset 0
 406 0012 7047     		bx	lr
 407              		.cfi_endproc
 408              	.LFE133:
ARM GAS  /tmp/cc9IMTcg.s 			page 13


 410              		.section	.text.HAL_TIMEx_HallSensor_Start,"ax",%progbits
 411              		.align	1
 412              		.global	HAL_TIMEx_HallSensor_Start
 413              		.syntax unified
 414              		.thumb
 415              		.thumb_func
 416              		.fpu fpv4-sp-d16
 418              	HAL_TIMEx_HallSensor_Start:
 419              	.LFB134:
 284:Drivers/STM32L4xx_HAL_Driver/Src/stm32l4xx_hal_tim_ex.c **** 
 285:Drivers/STM32L4xx_HAL_Driver/Src/stm32l4xx_hal_tim_ex.c **** /**
 286:Drivers/STM32L4xx_HAL_Driver/Src/stm32l4xx_hal_tim_ex.c ****   * @brief  Starts the TIM Hall Sensor Interface.
 287:Drivers/STM32L4xx_HAL_Driver/Src/stm32l4xx_hal_tim_ex.c ****   * @param  htim TIM Hall Sensor Interface handle
 288:Drivers/STM32L4xx_HAL_Driver/Src/stm32l4xx_hal_tim_ex.c ****   * @retval HAL status
 289:Drivers/STM32L4xx_HAL_Driver/Src/stm32l4xx_hal_tim_ex.c ****   */
 290:Drivers/STM32L4xx_HAL_Driver/Src/stm32l4xx_hal_tim_ex.c **** HAL_StatusTypeDef HAL_TIMEx_HallSensor_Start(TIM_HandleTypeDef *htim)
 291:Drivers/STM32L4xx_HAL_Driver/Src/stm32l4xx_hal_tim_ex.c **** {
 420              		.loc 1 291 1
 421              		.cfi_startproc
 422              		@ args = 0, pretend = 0, frame = 16
 423              		@ frame_needed = 1, uses_anonymous_args = 0
 424 0000 80B5     		push	{r7, lr}
 425              	.LCFI22:
 426              		.cfi_def_cfa_offset 8
 427              		.cfi_offset 7, -8
 428              		.cfi_offset 14, -4
 429 0002 84B0     		sub	sp, sp, #16
 430              	.LCFI23:
 431              		.cfi_def_cfa_offset 24
 432 0004 00AF     		add	r7, sp, #0
 433              	.LCFI24:
 434              		.cfi_def_cfa_register 7
 435 0006 7860     		str	r0, [r7, #4]
 292:Drivers/STM32L4xx_HAL_Driver/Src/stm32l4xx_hal_tim_ex.c ****   uint32_t tmpsmcr;
 293:Drivers/STM32L4xx_HAL_Driver/Src/stm32l4xx_hal_tim_ex.c **** 
 294:Drivers/STM32L4xx_HAL_Driver/Src/stm32l4xx_hal_tim_ex.c ****   /* Check the parameters */
 295:Drivers/STM32L4xx_HAL_Driver/Src/stm32l4xx_hal_tim_ex.c ****   assert_param(IS_TIM_HALL_SENSOR_INTERFACE_INSTANCE(htim->Instance));
 296:Drivers/STM32L4xx_HAL_Driver/Src/stm32l4xx_hal_tim_ex.c **** 
 297:Drivers/STM32L4xx_HAL_Driver/Src/stm32l4xx_hal_tim_ex.c ****   /* Enable the Input Capture channel 1
 298:Drivers/STM32L4xx_HAL_Driver/Src/stm32l4xx_hal_tim_ex.c ****     (in the Hall Sensor Interface the three possible channels that can be used are TIM_CHANNEL_1, T
 299:Drivers/STM32L4xx_HAL_Driver/Src/stm32l4xx_hal_tim_ex.c ****   TIM_CCxChannelCmd(htim->Instance, TIM_CHANNEL_1, TIM_CCx_ENABLE);
 436              		.loc 1 299 3
 437 0008 7B68     		ldr	r3, [r7, #4]
 438 000a 1B68     		ldr	r3, [r3]
 439 000c 0122     		movs	r2, #1
 440 000e 0021     		movs	r1, #0
 441 0010 1846     		mov	r0, r3
 442 0012 FFF7FEFF 		bl	TIM_CCxChannelCmd
 300:Drivers/STM32L4xx_HAL_Driver/Src/stm32l4xx_hal_tim_ex.c **** 
 301:Drivers/STM32L4xx_HAL_Driver/Src/stm32l4xx_hal_tim_ex.c ****   /* Enable the Peripheral, except in trigger mode where enable is automatically done with trigger 
 302:Drivers/STM32L4xx_HAL_Driver/Src/stm32l4xx_hal_tim_ex.c ****   tmpsmcr = htim->Instance->SMCR & TIM_SMCR_SMS;
 443              		.loc 1 302 17
 444 0016 7B68     		ldr	r3, [r7, #4]
 445 0018 1B68     		ldr	r3, [r3]
 446              		.loc 1 302 27
 447 001a 9A68     		ldr	r2, [r3, #8]
 448              		.loc 1 302 11
ARM GAS  /tmp/cc9IMTcg.s 			page 14


 449 001c 0B4B     		ldr	r3, .L14
 450 001e 1340     		ands	r3, r3, r2
 451 0020 FB60     		str	r3, [r7, #12]
 303:Drivers/STM32L4xx_HAL_Driver/Src/stm32l4xx_hal_tim_ex.c ****   if (!IS_TIM_SLAVEMODE_TRIGGER_ENABLED(tmpsmcr))
 452              		.loc 1 303 6
 453 0022 FB68     		ldr	r3, [r7, #12]
 454 0024 062B     		cmp	r3, #6
 455 0026 0BD0     		beq	.L12
 456              		.loc 1 303 7 discriminator 1
 457 0028 FB68     		ldr	r3, [r7, #12]
 458 002a B3F5803F 		cmp	r3, #65536
 459 002e 07D0     		beq	.L12
 304:Drivers/STM32L4xx_HAL_Driver/Src/stm32l4xx_hal_tim_ex.c ****   {
 305:Drivers/STM32L4xx_HAL_Driver/Src/stm32l4xx_hal_tim_ex.c ****     __HAL_TIM_ENABLE(htim);
 460              		.loc 1 305 5
 461 0030 7B68     		ldr	r3, [r7, #4]
 462 0032 1B68     		ldr	r3, [r3]
 463 0034 1A68     		ldr	r2, [r3]
 464 0036 7B68     		ldr	r3, [r7, #4]
 465 0038 1B68     		ldr	r3, [r3]
 466 003a 42F00102 		orr	r2, r2, #1
 467 003e 1A60     		str	r2, [r3]
 468              	.L12:
 306:Drivers/STM32L4xx_HAL_Driver/Src/stm32l4xx_hal_tim_ex.c ****   }
 307:Drivers/STM32L4xx_HAL_Driver/Src/stm32l4xx_hal_tim_ex.c **** 
 308:Drivers/STM32L4xx_HAL_Driver/Src/stm32l4xx_hal_tim_ex.c ****   /* Return function status */
 309:Drivers/STM32L4xx_HAL_Driver/Src/stm32l4xx_hal_tim_ex.c ****   return HAL_OK;
 469              		.loc 1 309 10
 470 0040 0023     		movs	r3, #0
 310:Drivers/STM32L4xx_HAL_Driver/Src/stm32l4xx_hal_tim_ex.c **** }
 471              		.loc 1 310 1
 472 0042 1846     		mov	r0, r3
 473 0044 1037     		adds	r7, r7, #16
 474              	.LCFI25:
 475              		.cfi_def_cfa_offset 8
 476 0046 BD46     		mov	sp, r7
 477              	.LCFI26:
 478              		.cfi_def_cfa_register 13
 479              		@ sp needed
 480 0048 80BD     		pop	{r7, pc}
 481              	.L15:
 482 004a 00BF     		.align	2
 483              	.L14:
 484 004c 07000100 		.word	65543
 485              		.cfi_endproc
 486              	.LFE134:
 488              		.section	.text.HAL_TIMEx_HallSensor_Stop,"ax",%progbits
 489              		.align	1
 490              		.global	HAL_TIMEx_HallSensor_Stop
 491              		.syntax unified
 492              		.thumb
 493              		.thumb_func
 494              		.fpu fpv4-sp-d16
 496              	HAL_TIMEx_HallSensor_Stop:
 497              	.LFB135:
 311:Drivers/STM32L4xx_HAL_Driver/Src/stm32l4xx_hal_tim_ex.c **** 
 312:Drivers/STM32L4xx_HAL_Driver/Src/stm32l4xx_hal_tim_ex.c **** /**
ARM GAS  /tmp/cc9IMTcg.s 			page 15


 313:Drivers/STM32L4xx_HAL_Driver/Src/stm32l4xx_hal_tim_ex.c ****   * @brief  Stops the TIM Hall sensor Interface.
 314:Drivers/STM32L4xx_HAL_Driver/Src/stm32l4xx_hal_tim_ex.c ****   * @param  htim TIM Hall Sensor Interface handle
 315:Drivers/STM32L4xx_HAL_Driver/Src/stm32l4xx_hal_tim_ex.c ****   * @retval HAL status
 316:Drivers/STM32L4xx_HAL_Driver/Src/stm32l4xx_hal_tim_ex.c ****   */
 317:Drivers/STM32L4xx_HAL_Driver/Src/stm32l4xx_hal_tim_ex.c **** HAL_StatusTypeDef HAL_TIMEx_HallSensor_Stop(TIM_HandleTypeDef *htim)
 318:Drivers/STM32L4xx_HAL_Driver/Src/stm32l4xx_hal_tim_ex.c **** {
 498              		.loc 1 318 1
 499              		.cfi_startproc
 500              		@ args = 0, pretend = 0, frame = 8
 501              		@ frame_needed = 1, uses_anonymous_args = 0
 502 0000 80B5     		push	{r7, lr}
 503              	.LCFI27:
 504              		.cfi_def_cfa_offset 8
 505              		.cfi_offset 7, -8
 506              		.cfi_offset 14, -4
 507 0002 82B0     		sub	sp, sp, #8
 508              	.LCFI28:
 509              		.cfi_def_cfa_offset 16
 510 0004 00AF     		add	r7, sp, #0
 511              	.LCFI29:
 512              		.cfi_def_cfa_register 7
 513 0006 7860     		str	r0, [r7, #4]
 319:Drivers/STM32L4xx_HAL_Driver/Src/stm32l4xx_hal_tim_ex.c ****   /* Check the parameters */
 320:Drivers/STM32L4xx_HAL_Driver/Src/stm32l4xx_hal_tim_ex.c ****   assert_param(IS_TIM_HALL_SENSOR_INTERFACE_INSTANCE(htim->Instance));
 321:Drivers/STM32L4xx_HAL_Driver/Src/stm32l4xx_hal_tim_ex.c **** 
 322:Drivers/STM32L4xx_HAL_Driver/Src/stm32l4xx_hal_tim_ex.c ****   /* Disable the Input Capture channels 1, 2 and 3
 323:Drivers/STM32L4xx_HAL_Driver/Src/stm32l4xx_hal_tim_ex.c ****     (in the Hall Sensor Interface the three possible channels that can be used are TIM_CHANNEL_1, T
 324:Drivers/STM32L4xx_HAL_Driver/Src/stm32l4xx_hal_tim_ex.c ****   TIM_CCxChannelCmd(htim->Instance, TIM_CHANNEL_1, TIM_CCx_DISABLE);
 514              		.loc 1 324 3
 515 0008 7B68     		ldr	r3, [r7, #4]
 516 000a 1B68     		ldr	r3, [r3]
 517 000c 0022     		movs	r2, #0
 518 000e 0021     		movs	r1, #0
 519 0010 1846     		mov	r0, r3
 520 0012 FFF7FEFF 		bl	TIM_CCxChannelCmd
 325:Drivers/STM32L4xx_HAL_Driver/Src/stm32l4xx_hal_tim_ex.c **** 
 326:Drivers/STM32L4xx_HAL_Driver/Src/stm32l4xx_hal_tim_ex.c ****   /* Disable the Peripheral */
 327:Drivers/STM32L4xx_HAL_Driver/Src/stm32l4xx_hal_tim_ex.c ****   __HAL_TIM_DISABLE(htim);
 521              		.loc 1 327 3
 522 0016 7B68     		ldr	r3, [r7, #4]
 523 0018 1B68     		ldr	r3, [r3]
 524 001a 1A6A     		ldr	r2, [r3, #32]
 525 001c 41F21113 		movw	r3, #4369
 526 0020 1340     		ands	r3, r3, r2
 527 0022 002B     		cmp	r3, #0
 528 0024 0FD1     		bne	.L17
 529              		.loc 1 327 3 is_stmt 0 discriminator 1
 530 0026 7B68     		ldr	r3, [r7, #4]
 531 0028 1B68     		ldr	r3, [r3]
 532 002a 1A6A     		ldr	r2, [r3, #32]
 533 002c 40F24443 		movw	r3, #1092
 534 0030 1340     		ands	r3, r3, r2
 535 0032 002B     		cmp	r3, #0
 536 0034 07D1     		bne	.L17
 537              		.loc 1 327 3 discriminator 2
 538 0036 7B68     		ldr	r3, [r7, #4]
 539 0038 1B68     		ldr	r3, [r3]
ARM GAS  /tmp/cc9IMTcg.s 			page 16


 540 003a 1A68     		ldr	r2, [r3]
 541 003c 7B68     		ldr	r3, [r7, #4]
 542 003e 1B68     		ldr	r3, [r3]
 543 0040 22F00102 		bic	r2, r2, #1
 544 0044 1A60     		str	r2, [r3]
 545              	.L17:
 328:Drivers/STM32L4xx_HAL_Driver/Src/stm32l4xx_hal_tim_ex.c **** 
 329:Drivers/STM32L4xx_HAL_Driver/Src/stm32l4xx_hal_tim_ex.c ****   /* Return function status */
 330:Drivers/STM32L4xx_HAL_Driver/Src/stm32l4xx_hal_tim_ex.c ****   return HAL_OK;
 546              		.loc 1 330 10 is_stmt 1
 547 0046 0023     		movs	r3, #0
 331:Drivers/STM32L4xx_HAL_Driver/Src/stm32l4xx_hal_tim_ex.c **** }
 548              		.loc 1 331 1
 549 0048 1846     		mov	r0, r3
 550 004a 0837     		adds	r7, r7, #8
 551              	.LCFI30:
 552              		.cfi_def_cfa_offset 8
 553 004c BD46     		mov	sp, r7
 554              	.LCFI31:
 555              		.cfi_def_cfa_register 13
 556              		@ sp needed
 557 004e 80BD     		pop	{r7, pc}
 558              		.cfi_endproc
 559              	.LFE135:
 561              		.section	.text.HAL_TIMEx_HallSensor_Start_IT,"ax",%progbits
 562              		.align	1
 563              		.global	HAL_TIMEx_HallSensor_Start_IT
 564              		.syntax unified
 565              		.thumb
 566              		.thumb_func
 567              		.fpu fpv4-sp-d16
 569              	HAL_TIMEx_HallSensor_Start_IT:
 570              	.LFB136:
 332:Drivers/STM32L4xx_HAL_Driver/Src/stm32l4xx_hal_tim_ex.c **** 
 333:Drivers/STM32L4xx_HAL_Driver/Src/stm32l4xx_hal_tim_ex.c **** /**
 334:Drivers/STM32L4xx_HAL_Driver/Src/stm32l4xx_hal_tim_ex.c ****   * @brief  Starts the TIM Hall Sensor Interface in interrupt mode.
 335:Drivers/STM32L4xx_HAL_Driver/Src/stm32l4xx_hal_tim_ex.c ****   * @param  htim TIM Hall Sensor Interface handle
 336:Drivers/STM32L4xx_HAL_Driver/Src/stm32l4xx_hal_tim_ex.c ****   * @retval HAL status
 337:Drivers/STM32L4xx_HAL_Driver/Src/stm32l4xx_hal_tim_ex.c ****   */
 338:Drivers/STM32L4xx_HAL_Driver/Src/stm32l4xx_hal_tim_ex.c **** HAL_StatusTypeDef HAL_TIMEx_HallSensor_Start_IT(TIM_HandleTypeDef *htim)
 339:Drivers/STM32L4xx_HAL_Driver/Src/stm32l4xx_hal_tim_ex.c **** {
 571              		.loc 1 339 1
 572              		.cfi_startproc
 573              		@ args = 0, pretend = 0, frame = 16
 574              		@ frame_needed = 1, uses_anonymous_args = 0
 575 0000 80B5     		push	{r7, lr}
 576              	.LCFI32:
 577              		.cfi_def_cfa_offset 8
 578              		.cfi_offset 7, -8
 579              		.cfi_offset 14, -4
 580 0002 84B0     		sub	sp, sp, #16
 581              	.LCFI33:
 582              		.cfi_def_cfa_offset 24
 583 0004 00AF     		add	r7, sp, #0
 584              	.LCFI34:
 585              		.cfi_def_cfa_register 7
 586 0006 7860     		str	r0, [r7, #4]
ARM GAS  /tmp/cc9IMTcg.s 			page 17


 340:Drivers/STM32L4xx_HAL_Driver/Src/stm32l4xx_hal_tim_ex.c ****   uint32_t tmpsmcr;
 341:Drivers/STM32L4xx_HAL_Driver/Src/stm32l4xx_hal_tim_ex.c **** 
 342:Drivers/STM32L4xx_HAL_Driver/Src/stm32l4xx_hal_tim_ex.c ****   /* Check the parameters */
 343:Drivers/STM32L4xx_HAL_Driver/Src/stm32l4xx_hal_tim_ex.c ****   assert_param(IS_TIM_HALL_SENSOR_INTERFACE_INSTANCE(htim->Instance));
 344:Drivers/STM32L4xx_HAL_Driver/Src/stm32l4xx_hal_tim_ex.c **** 
 345:Drivers/STM32L4xx_HAL_Driver/Src/stm32l4xx_hal_tim_ex.c ****   /* Enable the capture compare Interrupts 1 event */
 346:Drivers/STM32L4xx_HAL_Driver/Src/stm32l4xx_hal_tim_ex.c ****   __HAL_TIM_ENABLE_IT(htim, TIM_IT_CC1);
 587              		.loc 1 346 3
 588 0008 7B68     		ldr	r3, [r7, #4]
 589 000a 1B68     		ldr	r3, [r3]
 590 000c DA68     		ldr	r2, [r3, #12]
 591 000e 7B68     		ldr	r3, [r7, #4]
 592 0010 1B68     		ldr	r3, [r3]
 593 0012 42F00202 		orr	r2, r2, #2
 594 0016 DA60     		str	r2, [r3, #12]
 347:Drivers/STM32L4xx_HAL_Driver/Src/stm32l4xx_hal_tim_ex.c **** 
 348:Drivers/STM32L4xx_HAL_Driver/Src/stm32l4xx_hal_tim_ex.c ****   /* Enable the Input Capture channel 1
 349:Drivers/STM32L4xx_HAL_Driver/Src/stm32l4xx_hal_tim_ex.c ****     (in the Hall Sensor Interface the three possible channels that can be used are TIM_CHANNEL_1, T
 350:Drivers/STM32L4xx_HAL_Driver/Src/stm32l4xx_hal_tim_ex.c ****   TIM_CCxChannelCmd(htim->Instance, TIM_CHANNEL_1, TIM_CCx_ENABLE);
 595              		.loc 1 350 3
 596 0018 7B68     		ldr	r3, [r7, #4]
 597 001a 1B68     		ldr	r3, [r3]
 598 001c 0122     		movs	r2, #1
 599 001e 0021     		movs	r1, #0
 600 0020 1846     		mov	r0, r3
 601 0022 FFF7FEFF 		bl	TIM_CCxChannelCmd
 351:Drivers/STM32L4xx_HAL_Driver/Src/stm32l4xx_hal_tim_ex.c **** 
 352:Drivers/STM32L4xx_HAL_Driver/Src/stm32l4xx_hal_tim_ex.c ****   /* Enable the Peripheral, except in trigger mode where enable is automatically done with trigger 
 353:Drivers/STM32L4xx_HAL_Driver/Src/stm32l4xx_hal_tim_ex.c ****   tmpsmcr = htim->Instance->SMCR & TIM_SMCR_SMS;
 602              		.loc 1 353 17
 603 0026 7B68     		ldr	r3, [r7, #4]
 604 0028 1B68     		ldr	r3, [r3]
 605              		.loc 1 353 27
 606 002a 9A68     		ldr	r2, [r3, #8]
 607              		.loc 1 353 11
 608 002c 0B4B     		ldr	r3, .L22
 609 002e 1340     		ands	r3, r3, r2
 610 0030 FB60     		str	r3, [r7, #12]
 354:Drivers/STM32L4xx_HAL_Driver/Src/stm32l4xx_hal_tim_ex.c ****   if (!IS_TIM_SLAVEMODE_TRIGGER_ENABLED(tmpsmcr))
 611              		.loc 1 354 6
 612 0032 FB68     		ldr	r3, [r7, #12]
 613 0034 062B     		cmp	r3, #6
 614 0036 0BD0     		beq	.L20
 615              		.loc 1 354 7 discriminator 1
 616 0038 FB68     		ldr	r3, [r7, #12]
 617 003a B3F5803F 		cmp	r3, #65536
 618 003e 07D0     		beq	.L20
 355:Drivers/STM32L4xx_HAL_Driver/Src/stm32l4xx_hal_tim_ex.c ****   {
 356:Drivers/STM32L4xx_HAL_Driver/Src/stm32l4xx_hal_tim_ex.c ****     __HAL_TIM_ENABLE(htim);
 619              		.loc 1 356 5
 620 0040 7B68     		ldr	r3, [r7, #4]
 621 0042 1B68     		ldr	r3, [r3]
 622 0044 1A68     		ldr	r2, [r3]
 623 0046 7B68     		ldr	r3, [r7, #4]
 624 0048 1B68     		ldr	r3, [r3]
 625 004a 42F00102 		orr	r2, r2, #1
 626 004e 1A60     		str	r2, [r3]
ARM GAS  /tmp/cc9IMTcg.s 			page 18


 627              	.L20:
 357:Drivers/STM32L4xx_HAL_Driver/Src/stm32l4xx_hal_tim_ex.c ****   }
 358:Drivers/STM32L4xx_HAL_Driver/Src/stm32l4xx_hal_tim_ex.c **** 
 359:Drivers/STM32L4xx_HAL_Driver/Src/stm32l4xx_hal_tim_ex.c ****   /* Return function status */
 360:Drivers/STM32L4xx_HAL_Driver/Src/stm32l4xx_hal_tim_ex.c ****   return HAL_OK;
 628              		.loc 1 360 10
 629 0050 0023     		movs	r3, #0
 361:Drivers/STM32L4xx_HAL_Driver/Src/stm32l4xx_hal_tim_ex.c **** }
 630              		.loc 1 361 1
 631 0052 1846     		mov	r0, r3
 632 0054 1037     		adds	r7, r7, #16
 633              	.LCFI35:
 634              		.cfi_def_cfa_offset 8
 635 0056 BD46     		mov	sp, r7
 636              	.LCFI36:
 637              		.cfi_def_cfa_register 13
 638              		@ sp needed
 639 0058 80BD     		pop	{r7, pc}
 640              	.L23:
 641 005a 00BF     		.align	2
 642              	.L22:
 643 005c 07000100 		.word	65543
 644              		.cfi_endproc
 645              	.LFE136:
 647              		.section	.text.HAL_TIMEx_HallSensor_Stop_IT,"ax",%progbits
 648              		.align	1
 649              		.global	HAL_TIMEx_HallSensor_Stop_IT
 650              		.syntax unified
 651              		.thumb
 652              		.thumb_func
 653              		.fpu fpv4-sp-d16
 655              	HAL_TIMEx_HallSensor_Stop_IT:
 656              	.LFB137:
 362:Drivers/STM32L4xx_HAL_Driver/Src/stm32l4xx_hal_tim_ex.c **** 
 363:Drivers/STM32L4xx_HAL_Driver/Src/stm32l4xx_hal_tim_ex.c **** /**
 364:Drivers/STM32L4xx_HAL_Driver/Src/stm32l4xx_hal_tim_ex.c ****   * @brief  Stops the TIM Hall Sensor Interface in interrupt mode.
 365:Drivers/STM32L4xx_HAL_Driver/Src/stm32l4xx_hal_tim_ex.c ****   * @param  htim TIM Hall Sensor Interface handle
 366:Drivers/STM32L4xx_HAL_Driver/Src/stm32l4xx_hal_tim_ex.c ****   * @retval HAL status
 367:Drivers/STM32L4xx_HAL_Driver/Src/stm32l4xx_hal_tim_ex.c ****   */
 368:Drivers/STM32L4xx_HAL_Driver/Src/stm32l4xx_hal_tim_ex.c **** HAL_StatusTypeDef HAL_TIMEx_HallSensor_Stop_IT(TIM_HandleTypeDef *htim)
 369:Drivers/STM32L4xx_HAL_Driver/Src/stm32l4xx_hal_tim_ex.c **** {
 657              		.loc 1 369 1
 658              		.cfi_startproc
 659              		@ args = 0, pretend = 0, frame = 8
 660              		@ frame_needed = 1, uses_anonymous_args = 0
 661 0000 80B5     		push	{r7, lr}
 662              	.LCFI37:
 663              		.cfi_def_cfa_offset 8
 664              		.cfi_offset 7, -8
 665              		.cfi_offset 14, -4
 666 0002 82B0     		sub	sp, sp, #8
 667              	.LCFI38:
 668              		.cfi_def_cfa_offset 16
 669 0004 00AF     		add	r7, sp, #0
 670              	.LCFI39:
 671              		.cfi_def_cfa_register 7
 672 0006 7860     		str	r0, [r7, #4]
ARM GAS  /tmp/cc9IMTcg.s 			page 19


 370:Drivers/STM32L4xx_HAL_Driver/Src/stm32l4xx_hal_tim_ex.c ****   /* Check the parameters */
 371:Drivers/STM32L4xx_HAL_Driver/Src/stm32l4xx_hal_tim_ex.c ****   assert_param(IS_TIM_HALL_SENSOR_INTERFACE_INSTANCE(htim->Instance));
 372:Drivers/STM32L4xx_HAL_Driver/Src/stm32l4xx_hal_tim_ex.c **** 
 373:Drivers/STM32L4xx_HAL_Driver/Src/stm32l4xx_hal_tim_ex.c ****   /* Disable the Input Capture channel 1
 374:Drivers/STM32L4xx_HAL_Driver/Src/stm32l4xx_hal_tim_ex.c ****     (in the Hall Sensor Interface the three possible channels that can be used are TIM_CHANNEL_1, T
 375:Drivers/STM32L4xx_HAL_Driver/Src/stm32l4xx_hal_tim_ex.c ****   TIM_CCxChannelCmd(htim->Instance, TIM_CHANNEL_1, TIM_CCx_DISABLE);
 673              		.loc 1 375 3
 674 0008 7B68     		ldr	r3, [r7, #4]
 675 000a 1B68     		ldr	r3, [r3]
 676 000c 0022     		movs	r2, #0
 677 000e 0021     		movs	r1, #0
 678 0010 1846     		mov	r0, r3
 679 0012 FFF7FEFF 		bl	TIM_CCxChannelCmd
 376:Drivers/STM32L4xx_HAL_Driver/Src/stm32l4xx_hal_tim_ex.c **** 
 377:Drivers/STM32L4xx_HAL_Driver/Src/stm32l4xx_hal_tim_ex.c ****   /* Disable the capture compare Interrupts event */
 378:Drivers/STM32L4xx_HAL_Driver/Src/stm32l4xx_hal_tim_ex.c ****   __HAL_TIM_DISABLE_IT(htim, TIM_IT_CC1);
 680              		.loc 1 378 3
 681 0016 7B68     		ldr	r3, [r7, #4]
 682 0018 1B68     		ldr	r3, [r3]
 683 001a DA68     		ldr	r2, [r3, #12]
 684 001c 7B68     		ldr	r3, [r7, #4]
 685 001e 1B68     		ldr	r3, [r3]
 686 0020 22F00202 		bic	r2, r2, #2
 687 0024 DA60     		str	r2, [r3, #12]
 379:Drivers/STM32L4xx_HAL_Driver/Src/stm32l4xx_hal_tim_ex.c **** 
 380:Drivers/STM32L4xx_HAL_Driver/Src/stm32l4xx_hal_tim_ex.c ****   /* Disable the Peripheral */
 381:Drivers/STM32L4xx_HAL_Driver/Src/stm32l4xx_hal_tim_ex.c ****   __HAL_TIM_DISABLE(htim);
 688              		.loc 1 381 3
 689 0026 7B68     		ldr	r3, [r7, #4]
 690 0028 1B68     		ldr	r3, [r3]
 691 002a 1A6A     		ldr	r2, [r3, #32]
 692 002c 41F21113 		movw	r3, #4369
 693 0030 1340     		ands	r3, r3, r2
 694 0032 002B     		cmp	r3, #0
 695 0034 0FD1     		bne	.L25
 696              		.loc 1 381 3 is_stmt 0 discriminator 1
 697 0036 7B68     		ldr	r3, [r7, #4]
 698 0038 1B68     		ldr	r3, [r3]
 699 003a 1A6A     		ldr	r2, [r3, #32]
 700 003c 40F24443 		movw	r3, #1092
 701 0040 1340     		ands	r3, r3, r2
 702 0042 002B     		cmp	r3, #0
 703 0044 07D1     		bne	.L25
 704              		.loc 1 381 3 discriminator 2
 705 0046 7B68     		ldr	r3, [r7, #4]
 706 0048 1B68     		ldr	r3, [r3]
 707 004a 1A68     		ldr	r2, [r3]
 708 004c 7B68     		ldr	r3, [r7, #4]
 709 004e 1B68     		ldr	r3, [r3]
 710 0050 22F00102 		bic	r2, r2, #1
 711 0054 1A60     		str	r2, [r3]
 712              	.L25:
 382:Drivers/STM32L4xx_HAL_Driver/Src/stm32l4xx_hal_tim_ex.c **** 
 383:Drivers/STM32L4xx_HAL_Driver/Src/stm32l4xx_hal_tim_ex.c ****   /* Return function status */
 384:Drivers/STM32L4xx_HAL_Driver/Src/stm32l4xx_hal_tim_ex.c ****   return HAL_OK;
 713              		.loc 1 384 10 is_stmt 1
 714 0056 0023     		movs	r3, #0
ARM GAS  /tmp/cc9IMTcg.s 			page 20


 385:Drivers/STM32L4xx_HAL_Driver/Src/stm32l4xx_hal_tim_ex.c **** }
 715              		.loc 1 385 1
 716 0058 1846     		mov	r0, r3
 717 005a 0837     		adds	r7, r7, #8
 718              	.LCFI40:
 719              		.cfi_def_cfa_offset 8
 720 005c BD46     		mov	sp, r7
 721              	.LCFI41:
 722              		.cfi_def_cfa_register 13
 723              		@ sp needed
 724 005e 80BD     		pop	{r7, pc}
 725              		.cfi_endproc
 726              	.LFE137:
 728              		.section	.text.HAL_TIMEx_HallSensor_Start_DMA,"ax",%progbits
 729              		.align	1
 730              		.global	HAL_TIMEx_HallSensor_Start_DMA
 731              		.syntax unified
 732              		.thumb
 733              		.thumb_func
 734              		.fpu fpv4-sp-d16
 736              	HAL_TIMEx_HallSensor_Start_DMA:
 737              	.LFB138:
 386:Drivers/STM32L4xx_HAL_Driver/Src/stm32l4xx_hal_tim_ex.c **** 
 387:Drivers/STM32L4xx_HAL_Driver/Src/stm32l4xx_hal_tim_ex.c **** /**
 388:Drivers/STM32L4xx_HAL_Driver/Src/stm32l4xx_hal_tim_ex.c ****   * @brief  Starts the TIM Hall Sensor Interface in DMA mode.
 389:Drivers/STM32L4xx_HAL_Driver/Src/stm32l4xx_hal_tim_ex.c ****   * @param  htim TIM Hall Sensor Interface handle
 390:Drivers/STM32L4xx_HAL_Driver/Src/stm32l4xx_hal_tim_ex.c ****   * @param  pData The destination Buffer address.
 391:Drivers/STM32L4xx_HAL_Driver/Src/stm32l4xx_hal_tim_ex.c ****   * @param  Length The length of data to be transferred from TIM peripheral to memory.
 392:Drivers/STM32L4xx_HAL_Driver/Src/stm32l4xx_hal_tim_ex.c ****   * @retval HAL status
 393:Drivers/STM32L4xx_HAL_Driver/Src/stm32l4xx_hal_tim_ex.c ****   */
 394:Drivers/STM32L4xx_HAL_Driver/Src/stm32l4xx_hal_tim_ex.c **** HAL_StatusTypeDef HAL_TIMEx_HallSensor_Start_DMA(TIM_HandleTypeDef *htim, uint32_t *pData, uint16_t
 395:Drivers/STM32L4xx_HAL_Driver/Src/stm32l4xx_hal_tim_ex.c **** {
 738              		.loc 1 395 1
 739              		.cfi_startproc
 740              		@ args = 0, pretend = 0, frame = 24
 741              		@ frame_needed = 1, uses_anonymous_args = 0
 742 0000 80B5     		push	{r7, lr}
 743              	.LCFI42:
 744              		.cfi_def_cfa_offset 8
 745              		.cfi_offset 7, -8
 746              		.cfi_offset 14, -4
 747 0002 86B0     		sub	sp, sp, #24
 748              	.LCFI43:
 749              		.cfi_def_cfa_offset 32
 750 0004 00AF     		add	r7, sp, #0
 751              	.LCFI44:
 752              		.cfi_def_cfa_register 7
 753 0006 F860     		str	r0, [r7, #12]
 754 0008 B960     		str	r1, [r7, #8]
 755 000a 1346     		mov	r3, r2
 756 000c FB80     		strh	r3, [r7, #6]	@ movhi
 396:Drivers/STM32L4xx_HAL_Driver/Src/stm32l4xx_hal_tim_ex.c ****   uint32_t tmpsmcr;
 397:Drivers/STM32L4xx_HAL_Driver/Src/stm32l4xx_hal_tim_ex.c **** 
 398:Drivers/STM32L4xx_HAL_Driver/Src/stm32l4xx_hal_tim_ex.c ****   /* Check the parameters */
 399:Drivers/STM32L4xx_HAL_Driver/Src/stm32l4xx_hal_tim_ex.c ****   assert_param(IS_TIM_HALL_SENSOR_INTERFACE_INSTANCE(htim->Instance));
 400:Drivers/STM32L4xx_HAL_Driver/Src/stm32l4xx_hal_tim_ex.c **** 
 401:Drivers/STM32L4xx_HAL_Driver/Src/stm32l4xx_hal_tim_ex.c ****   if (htim->State == HAL_TIM_STATE_BUSY)
ARM GAS  /tmp/cc9IMTcg.s 			page 21


 757              		.loc 1 401 11
 758 000e FB68     		ldr	r3, [r7, #12]
 759 0010 93F83D30 		ldrb	r3, [r3, #61]
 760 0014 DBB2     		uxtb	r3, r3
 761              		.loc 1 401 6
 762 0016 022B     		cmp	r3, #2
 763 0018 01D1     		bne	.L28
 402:Drivers/STM32L4xx_HAL_Driver/Src/stm32l4xx_hal_tim_ex.c ****   {
 403:Drivers/STM32L4xx_HAL_Driver/Src/stm32l4xx_hal_tim_ex.c ****     return HAL_BUSY;
 764              		.loc 1 403 12
 765 001a 0223     		movs	r3, #2
 766 001c 51E0     		b	.L29
 767              	.L28:
 404:Drivers/STM32L4xx_HAL_Driver/Src/stm32l4xx_hal_tim_ex.c ****   }
 405:Drivers/STM32L4xx_HAL_Driver/Src/stm32l4xx_hal_tim_ex.c ****   else if (htim->State == HAL_TIM_STATE_READY)
 768              		.loc 1 405 16
 769 001e FB68     		ldr	r3, [r7, #12]
 770 0020 93F83D30 		ldrb	r3, [r3, #61]
 771 0024 DBB2     		uxtb	r3, r3
 772              		.loc 1 405 11
 773 0026 012B     		cmp	r3, #1
 774 0028 0BD1     		bne	.L30
 406:Drivers/STM32L4xx_HAL_Driver/Src/stm32l4xx_hal_tim_ex.c ****   {
 407:Drivers/STM32L4xx_HAL_Driver/Src/stm32l4xx_hal_tim_ex.c ****     if (((uint32_t)pData == 0U) && (Length > 0U))
 775              		.loc 1 407 8
 776 002a BB68     		ldr	r3, [r7, #8]
 777 002c 002B     		cmp	r3, #0
 778 002e 04D1     		bne	.L31
 779              		.loc 1 407 33 discriminator 1
 780 0030 FB88     		ldrh	r3, [r7, #6]
 781 0032 002B     		cmp	r3, #0
 782 0034 01D0     		beq	.L31
 408:Drivers/STM32L4xx_HAL_Driver/Src/stm32l4xx_hal_tim_ex.c ****     {
 409:Drivers/STM32L4xx_HAL_Driver/Src/stm32l4xx_hal_tim_ex.c ****       return HAL_ERROR;
 783              		.loc 1 409 14
 784 0036 0123     		movs	r3, #1
 785 0038 43E0     		b	.L29
 786              	.L31:
 410:Drivers/STM32L4xx_HAL_Driver/Src/stm32l4xx_hal_tim_ex.c ****     }
 411:Drivers/STM32L4xx_HAL_Driver/Src/stm32l4xx_hal_tim_ex.c ****     else
 412:Drivers/STM32L4xx_HAL_Driver/Src/stm32l4xx_hal_tim_ex.c ****     {
 413:Drivers/STM32L4xx_HAL_Driver/Src/stm32l4xx_hal_tim_ex.c ****       htim->State = HAL_TIM_STATE_BUSY;
 787              		.loc 1 413 19
 788 003a FB68     		ldr	r3, [r7, #12]
 789 003c 0222     		movs	r2, #2
 790 003e 83F83D20 		strb	r2, [r3, #61]
 791              	.L30:
 414:Drivers/STM32L4xx_HAL_Driver/Src/stm32l4xx_hal_tim_ex.c ****     }
 415:Drivers/STM32L4xx_HAL_Driver/Src/stm32l4xx_hal_tim_ex.c ****   }
 416:Drivers/STM32L4xx_HAL_Driver/Src/stm32l4xx_hal_tim_ex.c ****   else
 417:Drivers/STM32L4xx_HAL_Driver/Src/stm32l4xx_hal_tim_ex.c ****   {
 418:Drivers/STM32L4xx_HAL_Driver/Src/stm32l4xx_hal_tim_ex.c ****     /* nothing to do */
 419:Drivers/STM32L4xx_HAL_Driver/Src/stm32l4xx_hal_tim_ex.c ****   }
 420:Drivers/STM32L4xx_HAL_Driver/Src/stm32l4xx_hal_tim_ex.c ****   /* Enable the Input Capture channel 1
 421:Drivers/STM32L4xx_HAL_Driver/Src/stm32l4xx_hal_tim_ex.c ****     (in the Hall Sensor Interface the three possible channels that can be used are TIM_CHANNEL_1, T
 422:Drivers/STM32L4xx_HAL_Driver/Src/stm32l4xx_hal_tim_ex.c ****   TIM_CCxChannelCmd(htim->Instance, TIM_CHANNEL_1, TIM_CCx_ENABLE);
 792              		.loc 1 422 3
ARM GAS  /tmp/cc9IMTcg.s 			page 22


 793 0042 FB68     		ldr	r3, [r7, #12]
 794 0044 1B68     		ldr	r3, [r3]
 795 0046 0122     		movs	r2, #1
 796 0048 0021     		movs	r1, #0
 797 004a 1846     		mov	r0, r3
 798 004c FFF7FEFF 		bl	TIM_CCxChannelCmd
 423:Drivers/STM32L4xx_HAL_Driver/Src/stm32l4xx_hal_tim_ex.c **** 
 424:Drivers/STM32L4xx_HAL_Driver/Src/stm32l4xx_hal_tim_ex.c ****   /* Set the DMA Input Capture 1 Callbacks */
 425:Drivers/STM32L4xx_HAL_Driver/Src/stm32l4xx_hal_tim_ex.c ****   htim->hdma[TIM_DMA_ID_CC1]->XferCpltCallback = TIM_DMACaptureCplt;
 799              		.loc 1 425 13
 800 0050 FB68     		ldr	r3, [r7, #12]
 801 0052 5B6A     		ldr	r3, [r3, #36]
 802              		.loc 1 425 48
 803 0054 1D4A     		ldr	r2, .L34
 804 0056 DA62     		str	r2, [r3, #44]
 426:Drivers/STM32L4xx_HAL_Driver/Src/stm32l4xx_hal_tim_ex.c ****   htim->hdma[TIM_DMA_ID_CC1]->XferHalfCpltCallback = TIM_DMACaptureHalfCplt;
 805              		.loc 1 426 13
 806 0058 FB68     		ldr	r3, [r7, #12]
 807 005a 5B6A     		ldr	r3, [r3, #36]
 808              		.loc 1 426 52
 809 005c 1C4A     		ldr	r2, .L34+4
 810 005e 1A63     		str	r2, [r3, #48]
 427:Drivers/STM32L4xx_HAL_Driver/Src/stm32l4xx_hal_tim_ex.c ****   /* Set the DMA error callback */
 428:Drivers/STM32L4xx_HAL_Driver/Src/stm32l4xx_hal_tim_ex.c ****   htim->hdma[TIM_DMA_ID_CC1]->XferErrorCallback = TIM_DMAError ;
 811              		.loc 1 428 13
 812 0060 FB68     		ldr	r3, [r7, #12]
 813 0062 5B6A     		ldr	r3, [r3, #36]
 814              		.loc 1 428 49
 815 0064 1B4A     		ldr	r2, .L34+8
 816 0066 5A63     		str	r2, [r3, #52]
 429:Drivers/STM32L4xx_HAL_Driver/Src/stm32l4xx_hal_tim_ex.c **** 
 430:Drivers/STM32L4xx_HAL_Driver/Src/stm32l4xx_hal_tim_ex.c ****   /* Enable the DMA channel for Capture 1*/
 431:Drivers/STM32L4xx_HAL_Driver/Src/stm32l4xx_hal_tim_ex.c ****   if (HAL_DMA_Start_IT(htim->hdma[TIM_DMA_ID_CC1], (uint32_t)&htim->Instance->CCR1, (uint32_t)pData
 817              		.loc 1 431 7
 818 0068 FB68     		ldr	r3, [r7, #12]
 819 006a 586A     		ldr	r0, [r3, #36]
 820              		.loc 1 431 67
 821 006c FB68     		ldr	r3, [r7, #12]
 822 006e 1B68     		ldr	r3, [r3]
 823              		.loc 1 431 62
 824 0070 3433     		adds	r3, r3, #52
 825              		.loc 1 431 7
 826 0072 1946     		mov	r1, r3
 827 0074 BA68     		ldr	r2, [r7, #8]
 828 0076 FB88     		ldrh	r3, [r7, #6]
 829 0078 FFF7FEFF 		bl	HAL_DMA_Start_IT
 830 007c 0346     		mov	r3, r0
 831              		.loc 1 431 6
 832 007e 002B     		cmp	r3, #0
 833 0080 01D0     		beq	.L32
 432:Drivers/STM32L4xx_HAL_Driver/Src/stm32l4xx_hal_tim_ex.c ****   {
 433:Drivers/STM32L4xx_HAL_Driver/Src/stm32l4xx_hal_tim_ex.c ****     return HAL_ERROR;
 834              		.loc 1 433 12
 835 0082 0123     		movs	r3, #1
 836 0084 1DE0     		b	.L29
 837              	.L32:
 434:Drivers/STM32L4xx_HAL_Driver/Src/stm32l4xx_hal_tim_ex.c ****   }
ARM GAS  /tmp/cc9IMTcg.s 			page 23


 435:Drivers/STM32L4xx_HAL_Driver/Src/stm32l4xx_hal_tim_ex.c ****   /* Enable the capture compare 1 Interrupt */
 436:Drivers/STM32L4xx_HAL_Driver/Src/stm32l4xx_hal_tim_ex.c ****   __HAL_TIM_ENABLE_DMA(htim, TIM_DMA_CC1);
 838              		.loc 1 436 3
 839 0086 FB68     		ldr	r3, [r7, #12]
 840 0088 1B68     		ldr	r3, [r3]
 841 008a DA68     		ldr	r2, [r3, #12]
 842 008c FB68     		ldr	r3, [r7, #12]
 843 008e 1B68     		ldr	r3, [r3]
 844 0090 42F40072 		orr	r2, r2, #512
 845 0094 DA60     		str	r2, [r3, #12]
 437:Drivers/STM32L4xx_HAL_Driver/Src/stm32l4xx_hal_tim_ex.c **** 
 438:Drivers/STM32L4xx_HAL_Driver/Src/stm32l4xx_hal_tim_ex.c ****   /* Enable the Peripheral, except in trigger mode where enable is automatically done with trigger 
 439:Drivers/STM32L4xx_HAL_Driver/Src/stm32l4xx_hal_tim_ex.c ****   tmpsmcr = htim->Instance->SMCR & TIM_SMCR_SMS;
 846              		.loc 1 439 17
 847 0096 FB68     		ldr	r3, [r7, #12]
 848 0098 1B68     		ldr	r3, [r3]
 849              		.loc 1 439 27
 850 009a 9A68     		ldr	r2, [r3, #8]
 851              		.loc 1 439 11
 852 009c 0E4B     		ldr	r3, .L34+12
 853 009e 1340     		ands	r3, r3, r2
 854 00a0 7B61     		str	r3, [r7, #20]
 440:Drivers/STM32L4xx_HAL_Driver/Src/stm32l4xx_hal_tim_ex.c ****   if (!IS_TIM_SLAVEMODE_TRIGGER_ENABLED(tmpsmcr))
 855              		.loc 1 440 6
 856 00a2 7B69     		ldr	r3, [r7, #20]
 857 00a4 062B     		cmp	r3, #6
 858 00a6 0BD0     		beq	.L33
 859              		.loc 1 440 7 discriminator 1
 860 00a8 7B69     		ldr	r3, [r7, #20]
 861 00aa B3F5803F 		cmp	r3, #65536
 862 00ae 07D0     		beq	.L33
 441:Drivers/STM32L4xx_HAL_Driver/Src/stm32l4xx_hal_tim_ex.c ****   {
 442:Drivers/STM32L4xx_HAL_Driver/Src/stm32l4xx_hal_tim_ex.c ****     __HAL_TIM_ENABLE(htim);
 863              		.loc 1 442 5
 864 00b0 FB68     		ldr	r3, [r7, #12]
 865 00b2 1B68     		ldr	r3, [r3]
 866 00b4 1A68     		ldr	r2, [r3]
 867 00b6 FB68     		ldr	r3, [r7, #12]
 868 00b8 1B68     		ldr	r3, [r3]
 869 00ba 42F00102 		orr	r2, r2, #1
 870 00be 1A60     		str	r2, [r3]
 871              	.L33:
 443:Drivers/STM32L4xx_HAL_Driver/Src/stm32l4xx_hal_tim_ex.c ****   }
 444:Drivers/STM32L4xx_HAL_Driver/Src/stm32l4xx_hal_tim_ex.c **** 
 445:Drivers/STM32L4xx_HAL_Driver/Src/stm32l4xx_hal_tim_ex.c ****   /* Return function status */
 446:Drivers/STM32L4xx_HAL_Driver/Src/stm32l4xx_hal_tim_ex.c ****   return HAL_OK;
 872              		.loc 1 446 10
 873 00c0 0023     		movs	r3, #0
 874              	.L29:
 447:Drivers/STM32L4xx_HAL_Driver/Src/stm32l4xx_hal_tim_ex.c **** }
 875              		.loc 1 447 1
 876 00c2 1846     		mov	r0, r3
 877 00c4 1837     		adds	r7, r7, #24
 878              	.LCFI45:
 879              		.cfi_def_cfa_offset 8
 880 00c6 BD46     		mov	sp, r7
 881              	.LCFI46:
ARM GAS  /tmp/cc9IMTcg.s 			page 24


 882              		.cfi_def_cfa_register 13
 883              		@ sp needed
 884 00c8 80BD     		pop	{r7, pc}
 885              	.L35:
 886 00ca 00BF     		.align	2
 887              	.L34:
 888 00cc 00000000 		.word	TIM_DMACaptureCplt
 889 00d0 00000000 		.word	TIM_DMACaptureHalfCplt
 890 00d4 00000000 		.word	TIM_DMAError
 891 00d8 07000100 		.word	65543
 892              		.cfi_endproc
 893              	.LFE138:
 895              		.section	.text.HAL_TIMEx_HallSensor_Stop_DMA,"ax",%progbits
 896              		.align	1
 897              		.global	HAL_TIMEx_HallSensor_Stop_DMA
 898              		.syntax unified
 899              		.thumb
 900              		.thumb_func
 901              		.fpu fpv4-sp-d16
 903              	HAL_TIMEx_HallSensor_Stop_DMA:
 904              	.LFB139:
 448:Drivers/STM32L4xx_HAL_Driver/Src/stm32l4xx_hal_tim_ex.c **** 
 449:Drivers/STM32L4xx_HAL_Driver/Src/stm32l4xx_hal_tim_ex.c **** /**
 450:Drivers/STM32L4xx_HAL_Driver/Src/stm32l4xx_hal_tim_ex.c ****   * @brief  Stops the TIM Hall Sensor Interface in DMA mode.
 451:Drivers/STM32L4xx_HAL_Driver/Src/stm32l4xx_hal_tim_ex.c ****   * @param  htim TIM Hall Sensor Interface handle
 452:Drivers/STM32L4xx_HAL_Driver/Src/stm32l4xx_hal_tim_ex.c ****   * @retval HAL status
 453:Drivers/STM32L4xx_HAL_Driver/Src/stm32l4xx_hal_tim_ex.c ****   */
 454:Drivers/STM32L4xx_HAL_Driver/Src/stm32l4xx_hal_tim_ex.c **** HAL_StatusTypeDef HAL_TIMEx_HallSensor_Stop_DMA(TIM_HandleTypeDef *htim)
 455:Drivers/STM32L4xx_HAL_Driver/Src/stm32l4xx_hal_tim_ex.c **** {
 905              		.loc 1 455 1
 906              		.cfi_startproc
 907              		@ args = 0, pretend = 0, frame = 8
 908              		@ frame_needed = 1, uses_anonymous_args = 0
 909 0000 80B5     		push	{r7, lr}
 910              	.LCFI47:
 911              		.cfi_def_cfa_offset 8
 912              		.cfi_offset 7, -8
 913              		.cfi_offset 14, -4
 914 0002 82B0     		sub	sp, sp, #8
 915              	.LCFI48:
 916              		.cfi_def_cfa_offset 16
 917 0004 00AF     		add	r7, sp, #0
 918              	.LCFI49:
 919              		.cfi_def_cfa_register 7
 920 0006 7860     		str	r0, [r7, #4]
 456:Drivers/STM32L4xx_HAL_Driver/Src/stm32l4xx_hal_tim_ex.c ****   /* Check the parameters */
 457:Drivers/STM32L4xx_HAL_Driver/Src/stm32l4xx_hal_tim_ex.c ****   assert_param(IS_TIM_HALL_SENSOR_INTERFACE_INSTANCE(htim->Instance));
 458:Drivers/STM32L4xx_HAL_Driver/Src/stm32l4xx_hal_tim_ex.c **** 
 459:Drivers/STM32L4xx_HAL_Driver/Src/stm32l4xx_hal_tim_ex.c ****   /* Disable the Input Capture channel 1
 460:Drivers/STM32L4xx_HAL_Driver/Src/stm32l4xx_hal_tim_ex.c ****     (in the Hall Sensor Interface the three possible channels that can be used are TIM_CHANNEL_1, T
 461:Drivers/STM32L4xx_HAL_Driver/Src/stm32l4xx_hal_tim_ex.c ****   TIM_CCxChannelCmd(htim->Instance, TIM_CHANNEL_1, TIM_CCx_DISABLE);
 921              		.loc 1 461 3
 922 0008 7B68     		ldr	r3, [r7, #4]
 923 000a 1B68     		ldr	r3, [r3]
 924 000c 0022     		movs	r2, #0
 925 000e 0021     		movs	r1, #0
 926 0010 1846     		mov	r0, r3
ARM GAS  /tmp/cc9IMTcg.s 			page 25


 927 0012 FFF7FEFF 		bl	TIM_CCxChannelCmd
 462:Drivers/STM32L4xx_HAL_Driver/Src/stm32l4xx_hal_tim_ex.c **** 
 463:Drivers/STM32L4xx_HAL_Driver/Src/stm32l4xx_hal_tim_ex.c **** 
 464:Drivers/STM32L4xx_HAL_Driver/Src/stm32l4xx_hal_tim_ex.c ****   /* Disable the capture compare Interrupts 1 event */
 465:Drivers/STM32L4xx_HAL_Driver/Src/stm32l4xx_hal_tim_ex.c ****   __HAL_TIM_DISABLE_DMA(htim, TIM_DMA_CC1);
 928              		.loc 1 465 3
 929 0016 7B68     		ldr	r3, [r7, #4]
 930 0018 1B68     		ldr	r3, [r3]
 931 001a DA68     		ldr	r2, [r3, #12]
 932 001c 7B68     		ldr	r3, [r7, #4]
 933 001e 1B68     		ldr	r3, [r3]
 934 0020 22F40072 		bic	r2, r2, #512
 935 0024 DA60     		str	r2, [r3, #12]
 466:Drivers/STM32L4xx_HAL_Driver/Src/stm32l4xx_hal_tim_ex.c **** 
 467:Drivers/STM32L4xx_HAL_Driver/Src/stm32l4xx_hal_tim_ex.c ****   (void)HAL_DMA_Abort_IT(htim->hdma[TIM_DMA_ID_CC1]);
 936              		.loc 1 467 9
 937 0026 7B68     		ldr	r3, [r7, #4]
 938 0028 5B6A     		ldr	r3, [r3, #36]
 939 002a 1846     		mov	r0, r3
 940 002c FFF7FEFF 		bl	HAL_DMA_Abort_IT
 468:Drivers/STM32L4xx_HAL_Driver/Src/stm32l4xx_hal_tim_ex.c ****   /* Disable the Peripheral */
 469:Drivers/STM32L4xx_HAL_Driver/Src/stm32l4xx_hal_tim_ex.c ****   __HAL_TIM_DISABLE(htim);
 941              		.loc 1 469 3
 942 0030 7B68     		ldr	r3, [r7, #4]
 943 0032 1B68     		ldr	r3, [r3]
 944 0034 1A6A     		ldr	r2, [r3, #32]
 945 0036 41F21113 		movw	r3, #4369
 946 003a 1340     		ands	r3, r3, r2
 947 003c 002B     		cmp	r3, #0
 948 003e 0FD1     		bne	.L37
 949              		.loc 1 469 3 is_stmt 0 discriminator 1
 950 0040 7B68     		ldr	r3, [r7, #4]
 951 0042 1B68     		ldr	r3, [r3]
 952 0044 1A6A     		ldr	r2, [r3, #32]
 953 0046 40F24443 		movw	r3, #1092
 954 004a 1340     		ands	r3, r3, r2
 955 004c 002B     		cmp	r3, #0
 956 004e 07D1     		bne	.L37
 957              		.loc 1 469 3 discriminator 2
 958 0050 7B68     		ldr	r3, [r7, #4]
 959 0052 1B68     		ldr	r3, [r3]
 960 0054 1A68     		ldr	r2, [r3]
 961 0056 7B68     		ldr	r3, [r7, #4]
 962 0058 1B68     		ldr	r3, [r3]
 963 005a 22F00102 		bic	r2, r2, #1
 964 005e 1A60     		str	r2, [r3]
 965              	.L37:
 470:Drivers/STM32L4xx_HAL_Driver/Src/stm32l4xx_hal_tim_ex.c **** 
 471:Drivers/STM32L4xx_HAL_Driver/Src/stm32l4xx_hal_tim_ex.c ****   /* Return function status */
 472:Drivers/STM32L4xx_HAL_Driver/Src/stm32l4xx_hal_tim_ex.c ****   return HAL_OK;
 966              		.loc 1 472 10 is_stmt 1
 967 0060 0023     		movs	r3, #0
 473:Drivers/STM32L4xx_HAL_Driver/Src/stm32l4xx_hal_tim_ex.c **** }
 968              		.loc 1 473 1
 969 0062 1846     		mov	r0, r3
 970 0064 0837     		adds	r7, r7, #8
 971              	.LCFI50:
ARM GAS  /tmp/cc9IMTcg.s 			page 26


 972              		.cfi_def_cfa_offset 8
 973 0066 BD46     		mov	sp, r7
 974              	.LCFI51:
 975              		.cfi_def_cfa_register 13
 976              		@ sp needed
 977 0068 80BD     		pop	{r7, pc}
 978              		.cfi_endproc
 979              	.LFE139:
 981              		.section	.text.HAL_TIMEx_OCN_Start,"ax",%progbits
 982              		.align	1
 983              		.global	HAL_TIMEx_OCN_Start
 984              		.syntax unified
 985              		.thumb
 986              		.thumb_func
 987              		.fpu fpv4-sp-d16
 989              	HAL_TIMEx_OCN_Start:
 990              	.LFB140:
 474:Drivers/STM32L4xx_HAL_Driver/Src/stm32l4xx_hal_tim_ex.c **** 
 475:Drivers/STM32L4xx_HAL_Driver/Src/stm32l4xx_hal_tim_ex.c **** /**
 476:Drivers/STM32L4xx_HAL_Driver/Src/stm32l4xx_hal_tim_ex.c ****   * @}
 477:Drivers/STM32L4xx_HAL_Driver/Src/stm32l4xx_hal_tim_ex.c ****   */
 478:Drivers/STM32L4xx_HAL_Driver/Src/stm32l4xx_hal_tim_ex.c **** 
 479:Drivers/STM32L4xx_HAL_Driver/Src/stm32l4xx_hal_tim_ex.c **** /** @defgroup TIMEx_Exported_Functions_Group2 Extended Timer Complementary Output Compare functions
 480:Drivers/STM32L4xx_HAL_Driver/Src/stm32l4xx_hal_tim_ex.c ****   *  @brief   Timer Complementary Output Compare functions
 481:Drivers/STM32L4xx_HAL_Driver/Src/stm32l4xx_hal_tim_ex.c ****   *
 482:Drivers/STM32L4xx_HAL_Driver/Src/stm32l4xx_hal_tim_ex.c **** @verbatim
 483:Drivers/STM32L4xx_HAL_Driver/Src/stm32l4xx_hal_tim_ex.c ****   ==============================================================================
 484:Drivers/STM32L4xx_HAL_Driver/Src/stm32l4xx_hal_tim_ex.c ****               ##### Timer Complementary Output Compare functions #####
 485:Drivers/STM32L4xx_HAL_Driver/Src/stm32l4xx_hal_tim_ex.c ****   ==============================================================================
 486:Drivers/STM32L4xx_HAL_Driver/Src/stm32l4xx_hal_tim_ex.c ****   [..]
 487:Drivers/STM32L4xx_HAL_Driver/Src/stm32l4xx_hal_tim_ex.c ****     This section provides functions allowing to:
 488:Drivers/STM32L4xx_HAL_Driver/Src/stm32l4xx_hal_tim_ex.c ****     (+) Start the Complementary Output Compare/PWM.
 489:Drivers/STM32L4xx_HAL_Driver/Src/stm32l4xx_hal_tim_ex.c ****     (+) Stop the Complementary Output Compare/PWM.
 490:Drivers/STM32L4xx_HAL_Driver/Src/stm32l4xx_hal_tim_ex.c ****     (+) Start the Complementary Output Compare/PWM and enable interrupts.
 491:Drivers/STM32L4xx_HAL_Driver/Src/stm32l4xx_hal_tim_ex.c ****     (+) Stop the Complementary Output Compare/PWM and disable interrupts.
 492:Drivers/STM32L4xx_HAL_Driver/Src/stm32l4xx_hal_tim_ex.c ****     (+) Start the Complementary Output Compare/PWM and enable DMA transfers.
 493:Drivers/STM32L4xx_HAL_Driver/Src/stm32l4xx_hal_tim_ex.c ****     (+) Stop the Complementary Output Compare/PWM and disable DMA transfers.
 494:Drivers/STM32L4xx_HAL_Driver/Src/stm32l4xx_hal_tim_ex.c **** 
 495:Drivers/STM32L4xx_HAL_Driver/Src/stm32l4xx_hal_tim_ex.c **** @endverbatim
 496:Drivers/STM32L4xx_HAL_Driver/Src/stm32l4xx_hal_tim_ex.c ****   * @{
 497:Drivers/STM32L4xx_HAL_Driver/Src/stm32l4xx_hal_tim_ex.c ****   */
 498:Drivers/STM32L4xx_HAL_Driver/Src/stm32l4xx_hal_tim_ex.c **** 
 499:Drivers/STM32L4xx_HAL_Driver/Src/stm32l4xx_hal_tim_ex.c **** /**
 500:Drivers/STM32L4xx_HAL_Driver/Src/stm32l4xx_hal_tim_ex.c ****   * @brief  Starts the TIM Output Compare signal generation on the complementary
 501:Drivers/STM32L4xx_HAL_Driver/Src/stm32l4xx_hal_tim_ex.c ****   *         output.
 502:Drivers/STM32L4xx_HAL_Driver/Src/stm32l4xx_hal_tim_ex.c ****   * @param  htim TIM Output Compare handle
 503:Drivers/STM32L4xx_HAL_Driver/Src/stm32l4xx_hal_tim_ex.c ****   * @param  Channel TIM Channel to be enabled
 504:Drivers/STM32L4xx_HAL_Driver/Src/stm32l4xx_hal_tim_ex.c ****   *          This parameter can be one of the following values:
 505:Drivers/STM32L4xx_HAL_Driver/Src/stm32l4xx_hal_tim_ex.c ****   *            @arg TIM_CHANNEL_1: TIM Channel 1 selected
 506:Drivers/STM32L4xx_HAL_Driver/Src/stm32l4xx_hal_tim_ex.c ****   *            @arg TIM_CHANNEL_2: TIM Channel 2 selected
 507:Drivers/STM32L4xx_HAL_Driver/Src/stm32l4xx_hal_tim_ex.c ****   *            @arg TIM_CHANNEL_3: TIM Channel 3 selected
 508:Drivers/STM32L4xx_HAL_Driver/Src/stm32l4xx_hal_tim_ex.c ****   * @retval HAL status
 509:Drivers/STM32L4xx_HAL_Driver/Src/stm32l4xx_hal_tim_ex.c ****   */
 510:Drivers/STM32L4xx_HAL_Driver/Src/stm32l4xx_hal_tim_ex.c **** HAL_StatusTypeDef HAL_TIMEx_OCN_Start(TIM_HandleTypeDef *htim, uint32_t Channel)
 511:Drivers/STM32L4xx_HAL_Driver/Src/stm32l4xx_hal_tim_ex.c **** {
 991              		.loc 1 511 1
 992              		.cfi_startproc
ARM GAS  /tmp/cc9IMTcg.s 			page 27


 993              		@ args = 0, pretend = 0, frame = 16
 994              		@ frame_needed = 1, uses_anonymous_args = 0
 995 0000 80B5     		push	{r7, lr}
 996              	.LCFI52:
 997              		.cfi_def_cfa_offset 8
 998              		.cfi_offset 7, -8
 999              		.cfi_offset 14, -4
 1000 0002 84B0     		sub	sp, sp, #16
 1001              	.LCFI53:
 1002              		.cfi_def_cfa_offset 24
 1003 0004 00AF     		add	r7, sp, #0
 1004              	.LCFI54:
 1005              		.cfi_def_cfa_register 7
 1006 0006 7860     		str	r0, [r7, #4]
 1007 0008 3960     		str	r1, [r7]
 512:Drivers/STM32L4xx_HAL_Driver/Src/stm32l4xx_hal_tim_ex.c ****   uint32_t tmpsmcr;
 513:Drivers/STM32L4xx_HAL_Driver/Src/stm32l4xx_hal_tim_ex.c **** 
 514:Drivers/STM32L4xx_HAL_Driver/Src/stm32l4xx_hal_tim_ex.c ****   /* Check the parameters */
 515:Drivers/STM32L4xx_HAL_Driver/Src/stm32l4xx_hal_tim_ex.c ****   assert_param(IS_TIM_CCXN_INSTANCE(htim->Instance, Channel));
 516:Drivers/STM32L4xx_HAL_Driver/Src/stm32l4xx_hal_tim_ex.c **** 
 517:Drivers/STM32L4xx_HAL_Driver/Src/stm32l4xx_hal_tim_ex.c ****   /* Enable the Capture compare channel N */
 518:Drivers/STM32L4xx_HAL_Driver/Src/stm32l4xx_hal_tim_ex.c ****   TIM_CCxNChannelCmd(htim->Instance, Channel, TIM_CCxN_ENABLE);
 1008              		.loc 1 518 3
 1009 000a 7B68     		ldr	r3, [r7, #4]
 1010 000c 1B68     		ldr	r3, [r3]
 1011 000e 0422     		movs	r2, #4
 1012 0010 3968     		ldr	r1, [r7]
 1013 0012 1846     		mov	r0, r3
 1014 0014 FFF7FEFF 		bl	TIM_CCxNChannelCmd
 519:Drivers/STM32L4xx_HAL_Driver/Src/stm32l4xx_hal_tim_ex.c **** 
 520:Drivers/STM32L4xx_HAL_Driver/Src/stm32l4xx_hal_tim_ex.c ****   /* Enable the Main Output */
 521:Drivers/STM32L4xx_HAL_Driver/Src/stm32l4xx_hal_tim_ex.c ****   __HAL_TIM_MOE_ENABLE(htim);
 1015              		.loc 1 521 3
 1016 0018 7B68     		ldr	r3, [r7, #4]
 1017 001a 1B68     		ldr	r3, [r3]
 1018 001c 5A6C     		ldr	r2, [r3, #68]
 1019 001e 7B68     		ldr	r3, [r7, #4]
 1020 0020 1B68     		ldr	r3, [r3]
 1021 0022 42F40042 		orr	r2, r2, #32768
 1022 0026 5A64     		str	r2, [r3, #68]
 522:Drivers/STM32L4xx_HAL_Driver/Src/stm32l4xx_hal_tim_ex.c **** 
 523:Drivers/STM32L4xx_HAL_Driver/Src/stm32l4xx_hal_tim_ex.c ****   /* Enable the Peripheral, except in trigger mode where enable is automatically done with trigger 
 524:Drivers/STM32L4xx_HAL_Driver/Src/stm32l4xx_hal_tim_ex.c ****   tmpsmcr = htim->Instance->SMCR & TIM_SMCR_SMS;
 1023              		.loc 1 524 17
 1024 0028 7B68     		ldr	r3, [r7, #4]
 1025 002a 1B68     		ldr	r3, [r3]
 1026              		.loc 1 524 27
 1027 002c 9A68     		ldr	r2, [r3, #8]
 1028              		.loc 1 524 11
 1029 002e 0B4B     		ldr	r3, .L42
 1030 0030 1340     		ands	r3, r3, r2
 1031 0032 FB60     		str	r3, [r7, #12]
 525:Drivers/STM32L4xx_HAL_Driver/Src/stm32l4xx_hal_tim_ex.c ****   if (!IS_TIM_SLAVEMODE_TRIGGER_ENABLED(tmpsmcr))
 1032              		.loc 1 525 6
 1033 0034 FB68     		ldr	r3, [r7, #12]
 1034 0036 062B     		cmp	r3, #6
 1035 0038 0BD0     		beq	.L40
ARM GAS  /tmp/cc9IMTcg.s 			page 28


 1036              		.loc 1 525 7 discriminator 1
 1037 003a FB68     		ldr	r3, [r7, #12]
 1038 003c B3F5803F 		cmp	r3, #65536
 1039 0040 07D0     		beq	.L40
 526:Drivers/STM32L4xx_HAL_Driver/Src/stm32l4xx_hal_tim_ex.c ****   {
 527:Drivers/STM32L4xx_HAL_Driver/Src/stm32l4xx_hal_tim_ex.c ****     __HAL_TIM_ENABLE(htim);
 1040              		.loc 1 527 5
 1041 0042 7B68     		ldr	r3, [r7, #4]
 1042 0044 1B68     		ldr	r3, [r3]
 1043 0046 1A68     		ldr	r2, [r3]
 1044 0048 7B68     		ldr	r3, [r7, #4]
 1045 004a 1B68     		ldr	r3, [r3]
 1046 004c 42F00102 		orr	r2, r2, #1
 1047 0050 1A60     		str	r2, [r3]
 1048              	.L40:
 528:Drivers/STM32L4xx_HAL_Driver/Src/stm32l4xx_hal_tim_ex.c ****   }
 529:Drivers/STM32L4xx_HAL_Driver/Src/stm32l4xx_hal_tim_ex.c **** 
 530:Drivers/STM32L4xx_HAL_Driver/Src/stm32l4xx_hal_tim_ex.c ****   /* Return function status */
 531:Drivers/STM32L4xx_HAL_Driver/Src/stm32l4xx_hal_tim_ex.c ****   return HAL_OK;
 1049              		.loc 1 531 10
 1050 0052 0023     		movs	r3, #0
 532:Drivers/STM32L4xx_HAL_Driver/Src/stm32l4xx_hal_tim_ex.c **** }
 1051              		.loc 1 532 1
 1052 0054 1846     		mov	r0, r3
 1053 0056 1037     		adds	r7, r7, #16
 1054              	.LCFI55:
 1055              		.cfi_def_cfa_offset 8
 1056 0058 BD46     		mov	sp, r7
 1057              	.LCFI56:
 1058              		.cfi_def_cfa_register 13
 1059              		@ sp needed
 1060 005a 80BD     		pop	{r7, pc}
 1061              	.L43:
 1062              		.align	2
 1063              	.L42:
 1064 005c 07000100 		.word	65543
 1065              		.cfi_endproc
 1066              	.LFE140:
 1068              		.section	.text.HAL_TIMEx_OCN_Stop,"ax",%progbits
 1069              		.align	1
 1070              		.global	HAL_TIMEx_OCN_Stop
 1071              		.syntax unified
 1072              		.thumb
 1073              		.thumb_func
 1074              		.fpu fpv4-sp-d16
 1076              	HAL_TIMEx_OCN_Stop:
 1077              	.LFB141:
 533:Drivers/STM32L4xx_HAL_Driver/Src/stm32l4xx_hal_tim_ex.c **** 
 534:Drivers/STM32L4xx_HAL_Driver/Src/stm32l4xx_hal_tim_ex.c **** /**
 535:Drivers/STM32L4xx_HAL_Driver/Src/stm32l4xx_hal_tim_ex.c ****   * @brief  Stops the TIM Output Compare signal generation on the complementary
 536:Drivers/STM32L4xx_HAL_Driver/Src/stm32l4xx_hal_tim_ex.c ****   *         output.
 537:Drivers/STM32L4xx_HAL_Driver/Src/stm32l4xx_hal_tim_ex.c ****   * @param  htim TIM handle
 538:Drivers/STM32L4xx_HAL_Driver/Src/stm32l4xx_hal_tim_ex.c ****   * @param  Channel TIM Channel to be disabled
 539:Drivers/STM32L4xx_HAL_Driver/Src/stm32l4xx_hal_tim_ex.c ****   *          This parameter can be one of the following values:
 540:Drivers/STM32L4xx_HAL_Driver/Src/stm32l4xx_hal_tim_ex.c ****   *            @arg TIM_CHANNEL_1: TIM Channel 1 selected
 541:Drivers/STM32L4xx_HAL_Driver/Src/stm32l4xx_hal_tim_ex.c ****   *            @arg TIM_CHANNEL_2: TIM Channel 2 selected
 542:Drivers/STM32L4xx_HAL_Driver/Src/stm32l4xx_hal_tim_ex.c ****   *            @arg TIM_CHANNEL_3: TIM Channel 3 selected
ARM GAS  /tmp/cc9IMTcg.s 			page 29


 543:Drivers/STM32L4xx_HAL_Driver/Src/stm32l4xx_hal_tim_ex.c ****   * @retval HAL status
 544:Drivers/STM32L4xx_HAL_Driver/Src/stm32l4xx_hal_tim_ex.c ****   */
 545:Drivers/STM32L4xx_HAL_Driver/Src/stm32l4xx_hal_tim_ex.c **** HAL_StatusTypeDef HAL_TIMEx_OCN_Stop(TIM_HandleTypeDef *htim, uint32_t Channel)
 546:Drivers/STM32L4xx_HAL_Driver/Src/stm32l4xx_hal_tim_ex.c **** {
 1078              		.loc 1 546 1
 1079              		.cfi_startproc
 1080              		@ args = 0, pretend = 0, frame = 8
 1081              		@ frame_needed = 1, uses_anonymous_args = 0
 1082 0000 80B5     		push	{r7, lr}
 1083              	.LCFI57:
 1084              		.cfi_def_cfa_offset 8
 1085              		.cfi_offset 7, -8
 1086              		.cfi_offset 14, -4
 1087 0002 82B0     		sub	sp, sp, #8
 1088              	.LCFI58:
 1089              		.cfi_def_cfa_offset 16
 1090 0004 00AF     		add	r7, sp, #0
 1091              	.LCFI59:
 1092              		.cfi_def_cfa_register 7
 1093 0006 7860     		str	r0, [r7, #4]
 1094 0008 3960     		str	r1, [r7]
 547:Drivers/STM32L4xx_HAL_Driver/Src/stm32l4xx_hal_tim_ex.c ****   /* Check the parameters */
 548:Drivers/STM32L4xx_HAL_Driver/Src/stm32l4xx_hal_tim_ex.c ****   assert_param(IS_TIM_CCXN_INSTANCE(htim->Instance, Channel));
 549:Drivers/STM32L4xx_HAL_Driver/Src/stm32l4xx_hal_tim_ex.c **** 
 550:Drivers/STM32L4xx_HAL_Driver/Src/stm32l4xx_hal_tim_ex.c ****   /* Disable the Capture compare channel N */
 551:Drivers/STM32L4xx_HAL_Driver/Src/stm32l4xx_hal_tim_ex.c ****   TIM_CCxNChannelCmd(htim->Instance, Channel, TIM_CCxN_DISABLE);
 1095              		.loc 1 551 3
 1096 000a 7B68     		ldr	r3, [r7, #4]
 1097 000c 1B68     		ldr	r3, [r3]
 1098 000e 0022     		movs	r2, #0
 1099 0010 3968     		ldr	r1, [r7]
 1100 0012 1846     		mov	r0, r3
 1101 0014 FFF7FEFF 		bl	TIM_CCxNChannelCmd
 552:Drivers/STM32L4xx_HAL_Driver/Src/stm32l4xx_hal_tim_ex.c **** 
 553:Drivers/STM32L4xx_HAL_Driver/Src/stm32l4xx_hal_tim_ex.c ****   /* Disable the Main Output */
 554:Drivers/STM32L4xx_HAL_Driver/Src/stm32l4xx_hal_tim_ex.c ****   __HAL_TIM_MOE_DISABLE(htim);
 1102              		.loc 1 554 3
 1103 0018 7B68     		ldr	r3, [r7, #4]
 1104 001a 1B68     		ldr	r3, [r3]
 1105 001c 1A6A     		ldr	r2, [r3, #32]
 1106 001e 41F21113 		movw	r3, #4369
 1107 0022 1340     		ands	r3, r3, r2
 1108 0024 002B     		cmp	r3, #0
 1109 0026 0FD1     		bne	.L45
 1110              		.loc 1 554 3 is_stmt 0 discriminator 1
 1111 0028 7B68     		ldr	r3, [r7, #4]
 1112 002a 1B68     		ldr	r3, [r3]
 1113 002c 1A6A     		ldr	r2, [r3, #32]
 1114 002e 40F24443 		movw	r3, #1092
 1115 0032 1340     		ands	r3, r3, r2
 1116 0034 002B     		cmp	r3, #0
 1117 0036 07D1     		bne	.L45
 1118              		.loc 1 554 3 discriminator 2
 1119 0038 7B68     		ldr	r3, [r7, #4]
 1120 003a 1B68     		ldr	r3, [r3]
 1121 003c 5A6C     		ldr	r2, [r3, #68]
 1122 003e 7B68     		ldr	r3, [r7, #4]
ARM GAS  /tmp/cc9IMTcg.s 			page 30


 1123 0040 1B68     		ldr	r3, [r3]
 1124 0042 22F40042 		bic	r2, r2, #32768
 1125 0046 5A64     		str	r2, [r3, #68]
 1126              	.L45:
 555:Drivers/STM32L4xx_HAL_Driver/Src/stm32l4xx_hal_tim_ex.c **** 
 556:Drivers/STM32L4xx_HAL_Driver/Src/stm32l4xx_hal_tim_ex.c ****   /* Disable the Peripheral */
 557:Drivers/STM32L4xx_HAL_Driver/Src/stm32l4xx_hal_tim_ex.c ****   __HAL_TIM_DISABLE(htim);
 1127              		.loc 1 557 3 is_stmt 1
 1128 0048 7B68     		ldr	r3, [r7, #4]
 1129 004a 1B68     		ldr	r3, [r3]
 1130 004c 1A6A     		ldr	r2, [r3, #32]
 1131 004e 41F21113 		movw	r3, #4369
 1132 0052 1340     		ands	r3, r3, r2
 1133 0054 002B     		cmp	r3, #0
 1134 0056 0FD1     		bne	.L46
 1135              		.loc 1 557 3 is_stmt 0 discriminator 1
 1136 0058 7B68     		ldr	r3, [r7, #4]
 1137 005a 1B68     		ldr	r3, [r3]
 1138 005c 1A6A     		ldr	r2, [r3, #32]
 1139 005e 40F24443 		movw	r3, #1092
 1140 0062 1340     		ands	r3, r3, r2
 1141 0064 002B     		cmp	r3, #0
 1142 0066 07D1     		bne	.L46
 1143              		.loc 1 557 3 discriminator 2
 1144 0068 7B68     		ldr	r3, [r7, #4]
 1145 006a 1B68     		ldr	r3, [r3]
 1146 006c 1A68     		ldr	r2, [r3]
 1147 006e 7B68     		ldr	r3, [r7, #4]
 1148 0070 1B68     		ldr	r3, [r3]
 1149 0072 22F00102 		bic	r2, r2, #1
 1150 0076 1A60     		str	r2, [r3]
 1151              	.L46:
 558:Drivers/STM32L4xx_HAL_Driver/Src/stm32l4xx_hal_tim_ex.c **** 
 559:Drivers/STM32L4xx_HAL_Driver/Src/stm32l4xx_hal_tim_ex.c ****   /* Return function status */
 560:Drivers/STM32L4xx_HAL_Driver/Src/stm32l4xx_hal_tim_ex.c ****   return HAL_OK;
 1152              		.loc 1 560 10 is_stmt 1
 1153 0078 0023     		movs	r3, #0
 561:Drivers/STM32L4xx_HAL_Driver/Src/stm32l4xx_hal_tim_ex.c **** }
 1154              		.loc 1 561 1
 1155 007a 1846     		mov	r0, r3
 1156 007c 0837     		adds	r7, r7, #8
 1157              	.LCFI60:
 1158              		.cfi_def_cfa_offset 8
 1159 007e BD46     		mov	sp, r7
 1160              	.LCFI61:
 1161              		.cfi_def_cfa_register 13
 1162              		@ sp needed
 1163 0080 80BD     		pop	{r7, pc}
 1164              		.cfi_endproc
 1165              	.LFE141:
 1167              		.section	.text.HAL_TIMEx_OCN_Start_IT,"ax",%progbits
 1168              		.align	1
 1169              		.global	HAL_TIMEx_OCN_Start_IT
 1170              		.syntax unified
 1171              		.thumb
 1172              		.thumb_func
 1173              		.fpu fpv4-sp-d16
ARM GAS  /tmp/cc9IMTcg.s 			page 31


 1175              	HAL_TIMEx_OCN_Start_IT:
 1176              	.LFB142:
 562:Drivers/STM32L4xx_HAL_Driver/Src/stm32l4xx_hal_tim_ex.c **** 
 563:Drivers/STM32L4xx_HAL_Driver/Src/stm32l4xx_hal_tim_ex.c **** /**
 564:Drivers/STM32L4xx_HAL_Driver/Src/stm32l4xx_hal_tim_ex.c ****   * @brief  Starts the TIM Output Compare signal generation in interrupt mode
 565:Drivers/STM32L4xx_HAL_Driver/Src/stm32l4xx_hal_tim_ex.c ****   *         on the complementary output.
 566:Drivers/STM32L4xx_HAL_Driver/Src/stm32l4xx_hal_tim_ex.c ****   * @param  htim TIM OC handle
 567:Drivers/STM32L4xx_HAL_Driver/Src/stm32l4xx_hal_tim_ex.c ****   * @param  Channel TIM Channel to be enabled
 568:Drivers/STM32L4xx_HAL_Driver/Src/stm32l4xx_hal_tim_ex.c ****   *          This parameter can be one of the following values:
 569:Drivers/STM32L4xx_HAL_Driver/Src/stm32l4xx_hal_tim_ex.c ****   *            @arg TIM_CHANNEL_1: TIM Channel 1 selected
 570:Drivers/STM32L4xx_HAL_Driver/Src/stm32l4xx_hal_tim_ex.c ****   *            @arg TIM_CHANNEL_2: TIM Channel 2 selected
 571:Drivers/STM32L4xx_HAL_Driver/Src/stm32l4xx_hal_tim_ex.c ****   *            @arg TIM_CHANNEL_3: TIM Channel 3 selected
 572:Drivers/STM32L4xx_HAL_Driver/Src/stm32l4xx_hal_tim_ex.c ****   * @retval HAL status
 573:Drivers/STM32L4xx_HAL_Driver/Src/stm32l4xx_hal_tim_ex.c ****   */
 574:Drivers/STM32L4xx_HAL_Driver/Src/stm32l4xx_hal_tim_ex.c **** HAL_StatusTypeDef HAL_TIMEx_OCN_Start_IT(TIM_HandleTypeDef *htim, uint32_t Channel)
 575:Drivers/STM32L4xx_HAL_Driver/Src/stm32l4xx_hal_tim_ex.c **** {
 1177              		.loc 1 575 1
 1178              		.cfi_startproc
 1179              		@ args = 0, pretend = 0, frame = 16
 1180              		@ frame_needed = 1, uses_anonymous_args = 0
 1181 0000 80B5     		push	{r7, lr}
 1182              	.LCFI62:
 1183              		.cfi_def_cfa_offset 8
 1184              		.cfi_offset 7, -8
 1185              		.cfi_offset 14, -4
 1186 0002 84B0     		sub	sp, sp, #16
 1187              	.LCFI63:
 1188              		.cfi_def_cfa_offset 24
 1189 0004 00AF     		add	r7, sp, #0
 1190              	.LCFI64:
 1191              		.cfi_def_cfa_register 7
 1192 0006 7860     		str	r0, [r7, #4]
 1193 0008 3960     		str	r1, [r7]
 576:Drivers/STM32L4xx_HAL_Driver/Src/stm32l4xx_hal_tim_ex.c ****   uint32_t tmpsmcr;
 577:Drivers/STM32L4xx_HAL_Driver/Src/stm32l4xx_hal_tim_ex.c **** 
 578:Drivers/STM32L4xx_HAL_Driver/Src/stm32l4xx_hal_tim_ex.c ****   /* Check the parameters */
 579:Drivers/STM32L4xx_HAL_Driver/Src/stm32l4xx_hal_tim_ex.c ****   assert_param(IS_TIM_CCXN_INSTANCE(htim->Instance, Channel));
 580:Drivers/STM32L4xx_HAL_Driver/Src/stm32l4xx_hal_tim_ex.c **** 
 581:Drivers/STM32L4xx_HAL_Driver/Src/stm32l4xx_hal_tim_ex.c ****   switch (Channel)
 1194              		.loc 1 581 3
 1195 000a 3B68     		ldr	r3, [r7]
 1196 000c 082B     		cmp	r3, #8
 1197 000e 1BD0     		beq	.L49
 1198 0010 3B68     		ldr	r3, [r7]
 1199 0012 082B     		cmp	r3, #8
 1200 0014 21D8     		bhi	.L56
 1201 0016 3B68     		ldr	r3, [r7]
 1202 0018 002B     		cmp	r3, #0
 1203 001a 03D0     		beq	.L51
 1204 001c 3B68     		ldr	r3, [r7]
 1205 001e 042B     		cmp	r3, #4
 1206 0020 09D0     		beq	.L52
 582:Drivers/STM32L4xx_HAL_Driver/Src/stm32l4xx_hal_tim_ex.c ****   {
 583:Drivers/STM32L4xx_HAL_Driver/Src/stm32l4xx_hal_tim_ex.c ****     case TIM_CHANNEL_1:
 584:Drivers/STM32L4xx_HAL_Driver/Src/stm32l4xx_hal_tim_ex.c ****     {
 585:Drivers/STM32L4xx_HAL_Driver/Src/stm32l4xx_hal_tim_ex.c ****       /* Enable the TIM Output Compare interrupt */
 586:Drivers/STM32L4xx_HAL_Driver/Src/stm32l4xx_hal_tim_ex.c ****       __HAL_TIM_ENABLE_IT(htim, TIM_IT_CC1);
ARM GAS  /tmp/cc9IMTcg.s 			page 32


 587:Drivers/STM32L4xx_HAL_Driver/Src/stm32l4xx_hal_tim_ex.c ****       break;
 588:Drivers/STM32L4xx_HAL_Driver/Src/stm32l4xx_hal_tim_ex.c ****     }
 589:Drivers/STM32L4xx_HAL_Driver/Src/stm32l4xx_hal_tim_ex.c **** 
 590:Drivers/STM32L4xx_HAL_Driver/Src/stm32l4xx_hal_tim_ex.c ****     case TIM_CHANNEL_2:
 591:Drivers/STM32L4xx_HAL_Driver/Src/stm32l4xx_hal_tim_ex.c ****     {
 592:Drivers/STM32L4xx_HAL_Driver/Src/stm32l4xx_hal_tim_ex.c ****       /* Enable the TIM Output Compare interrupt */
 593:Drivers/STM32L4xx_HAL_Driver/Src/stm32l4xx_hal_tim_ex.c ****       __HAL_TIM_ENABLE_IT(htim, TIM_IT_CC2);
 594:Drivers/STM32L4xx_HAL_Driver/Src/stm32l4xx_hal_tim_ex.c ****       break;
 595:Drivers/STM32L4xx_HAL_Driver/Src/stm32l4xx_hal_tim_ex.c ****     }
 596:Drivers/STM32L4xx_HAL_Driver/Src/stm32l4xx_hal_tim_ex.c **** 
 597:Drivers/STM32L4xx_HAL_Driver/Src/stm32l4xx_hal_tim_ex.c ****     case TIM_CHANNEL_3:
 598:Drivers/STM32L4xx_HAL_Driver/Src/stm32l4xx_hal_tim_ex.c ****     {
 599:Drivers/STM32L4xx_HAL_Driver/Src/stm32l4xx_hal_tim_ex.c ****       /* Enable the TIM Output Compare interrupt */
 600:Drivers/STM32L4xx_HAL_Driver/Src/stm32l4xx_hal_tim_ex.c ****       __HAL_TIM_ENABLE_IT(htim, TIM_IT_CC3);
 601:Drivers/STM32L4xx_HAL_Driver/Src/stm32l4xx_hal_tim_ex.c ****       break;
 602:Drivers/STM32L4xx_HAL_Driver/Src/stm32l4xx_hal_tim_ex.c ****     }
 603:Drivers/STM32L4xx_HAL_Driver/Src/stm32l4xx_hal_tim_ex.c **** 
 604:Drivers/STM32L4xx_HAL_Driver/Src/stm32l4xx_hal_tim_ex.c **** 
 605:Drivers/STM32L4xx_HAL_Driver/Src/stm32l4xx_hal_tim_ex.c ****     default:
 606:Drivers/STM32L4xx_HAL_Driver/Src/stm32l4xx_hal_tim_ex.c ****       break;
 1207              		.loc 1 606 7
 1208 0022 1AE0     		b	.L56
 1209              	.L51:
 586:Drivers/STM32L4xx_HAL_Driver/Src/stm32l4xx_hal_tim_ex.c ****       break;
 1210              		.loc 1 586 7
 1211 0024 7B68     		ldr	r3, [r7, #4]
 1212 0026 1B68     		ldr	r3, [r3]
 1213 0028 DA68     		ldr	r2, [r3, #12]
 1214 002a 7B68     		ldr	r3, [r7, #4]
 1215 002c 1B68     		ldr	r3, [r3]
 1216 002e 42F00202 		orr	r2, r2, #2
 1217 0032 DA60     		str	r2, [r3, #12]
 587:Drivers/STM32L4xx_HAL_Driver/Src/stm32l4xx_hal_tim_ex.c ****     }
 1218              		.loc 1 587 7
 1219 0034 12E0     		b	.L53
 1220              	.L52:
 593:Drivers/STM32L4xx_HAL_Driver/Src/stm32l4xx_hal_tim_ex.c ****       break;
 1221              		.loc 1 593 7
 1222 0036 7B68     		ldr	r3, [r7, #4]
 1223 0038 1B68     		ldr	r3, [r3]
 1224 003a DA68     		ldr	r2, [r3, #12]
 1225 003c 7B68     		ldr	r3, [r7, #4]
 1226 003e 1B68     		ldr	r3, [r3]
 1227 0040 42F00402 		orr	r2, r2, #4
 1228 0044 DA60     		str	r2, [r3, #12]
 594:Drivers/STM32L4xx_HAL_Driver/Src/stm32l4xx_hal_tim_ex.c ****     }
 1229              		.loc 1 594 7
 1230 0046 09E0     		b	.L53
 1231              	.L49:
 600:Drivers/STM32L4xx_HAL_Driver/Src/stm32l4xx_hal_tim_ex.c ****       break;
 1232              		.loc 1 600 7
 1233 0048 7B68     		ldr	r3, [r7, #4]
 1234 004a 1B68     		ldr	r3, [r3]
 1235 004c DA68     		ldr	r2, [r3, #12]
 1236 004e 7B68     		ldr	r3, [r7, #4]
 1237 0050 1B68     		ldr	r3, [r3]
 1238 0052 42F00802 		orr	r2, r2, #8
ARM GAS  /tmp/cc9IMTcg.s 			page 33


 1239 0056 DA60     		str	r2, [r3, #12]
 601:Drivers/STM32L4xx_HAL_Driver/Src/stm32l4xx_hal_tim_ex.c ****     }
 1240              		.loc 1 601 7
 1241 0058 00E0     		b	.L53
 1242              	.L56:
 1243              		.loc 1 606 7
 1244 005a 00BF     		nop
 1245              	.L53:
 607:Drivers/STM32L4xx_HAL_Driver/Src/stm32l4xx_hal_tim_ex.c ****   }
 608:Drivers/STM32L4xx_HAL_Driver/Src/stm32l4xx_hal_tim_ex.c **** 
 609:Drivers/STM32L4xx_HAL_Driver/Src/stm32l4xx_hal_tim_ex.c ****   /* Enable the TIM Break interrupt */
 610:Drivers/STM32L4xx_HAL_Driver/Src/stm32l4xx_hal_tim_ex.c ****   __HAL_TIM_ENABLE_IT(htim, TIM_IT_BREAK);
 1246              		.loc 1 610 3
 1247 005c 7B68     		ldr	r3, [r7, #4]
 1248 005e 1B68     		ldr	r3, [r3]
 1249 0060 DA68     		ldr	r2, [r3, #12]
 1250 0062 7B68     		ldr	r3, [r7, #4]
 1251 0064 1B68     		ldr	r3, [r3]
 1252 0066 42F08002 		orr	r2, r2, #128
 1253 006a DA60     		str	r2, [r3, #12]
 611:Drivers/STM32L4xx_HAL_Driver/Src/stm32l4xx_hal_tim_ex.c **** 
 612:Drivers/STM32L4xx_HAL_Driver/Src/stm32l4xx_hal_tim_ex.c ****   /* Enable the Capture compare channel N */
 613:Drivers/STM32L4xx_HAL_Driver/Src/stm32l4xx_hal_tim_ex.c ****   TIM_CCxNChannelCmd(htim->Instance, Channel, TIM_CCxN_ENABLE);
 1254              		.loc 1 613 3
 1255 006c 7B68     		ldr	r3, [r7, #4]
 1256 006e 1B68     		ldr	r3, [r3]
 1257 0070 0422     		movs	r2, #4
 1258 0072 3968     		ldr	r1, [r7]
 1259 0074 1846     		mov	r0, r3
 1260 0076 FFF7FEFF 		bl	TIM_CCxNChannelCmd
 614:Drivers/STM32L4xx_HAL_Driver/Src/stm32l4xx_hal_tim_ex.c **** 
 615:Drivers/STM32L4xx_HAL_Driver/Src/stm32l4xx_hal_tim_ex.c ****   /* Enable the Main Output */
 616:Drivers/STM32L4xx_HAL_Driver/Src/stm32l4xx_hal_tim_ex.c ****   __HAL_TIM_MOE_ENABLE(htim);
 1261              		.loc 1 616 3
 1262 007a 7B68     		ldr	r3, [r7, #4]
 1263 007c 1B68     		ldr	r3, [r3]
 1264 007e 5A6C     		ldr	r2, [r3, #68]
 1265 0080 7B68     		ldr	r3, [r7, #4]
 1266 0082 1B68     		ldr	r3, [r3]
 1267 0084 42F40042 		orr	r2, r2, #32768
 1268 0088 5A64     		str	r2, [r3, #68]
 617:Drivers/STM32L4xx_HAL_Driver/Src/stm32l4xx_hal_tim_ex.c **** 
 618:Drivers/STM32L4xx_HAL_Driver/Src/stm32l4xx_hal_tim_ex.c ****   /* Enable the Peripheral, except in trigger mode where enable is automatically done with trigger 
 619:Drivers/STM32L4xx_HAL_Driver/Src/stm32l4xx_hal_tim_ex.c ****   tmpsmcr = htim->Instance->SMCR & TIM_SMCR_SMS;
 1269              		.loc 1 619 17
 1270 008a 7B68     		ldr	r3, [r7, #4]
 1271 008c 1B68     		ldr	r3, [r3]
 1272              		.loc 1 619 27
 1273 008e 9A68     		ldr	r2, [r3, #8]
 1274              		.loc 1 619 11
 1275 0090 0B4B     		ldr	r3, .L57
 1276 0092 1340     		ands	r3, r3, r2
 1277 0094 FB60     		str	r3, [r7, #12]
 620:Drivers/STM32L4xx_HAL_Driver/Src/stm32l4xx_hal_tim_ex.c ****   if (!IS_TIM_SLAVEMODE_TRIGGER_ENABLED(tmpsmcr))
 1278              		.loc 1 620 6
 1279 0096 FB68     		ldr	r3, [r7, #12]
 1280 0098 062B     		cmp	r3, #6
ARM GAS  /tmp/cc9IMTcg.s 			page 34


 1281 009a 0BD0     		beq	.L54
 1282              		.loc 1 620 7 discriminator 1
 1283 009c FB68     		ldr	r3, [r7, #12]
 1284 009e B3F5803F 		cmp	r3, #65536
 1285 00a2 07D0     		beq	.L54
 621:Drivers/STM32L4xx_HAL_Driver/Src/stm32l4xx_hal_tim_ex.c ****   {
 622:Drivers/STM32L4xx_HAL_Driver/Src/stm32l4xx_hal_tim_ex.c ****     __HAL_TIM_ENABLE(htim);
 1286              		.loc 1 622 5
 1287 00a4 7B68     		ldr	r3, [r7, #4]
 1288 00a6 1B68     		ldr	r3, [r3]
 1289 00a8 1A68     		ldr	r2, [r3]
 1290 00aa 7B68     		ldr	r3, [r7, #4]
 1291 00ac 1B68     		ldr	r3, [r3]
 1292 00ae 42F00102 		orr	r2, r2, #1
 1293 00b2 1A60     		str	r2, [r3]
 1294              	.L54:
 623:Drivers/STM32L4xx_HAL_Driver/Src/stm32l4xx_hal_tim_ex.c ****   }
 624:Drivers/STM32L4xx_HAL_Driver/Src/stm32l4xx_hal_tim_ex.c **** 
 625:Drivers/STM32L4xx_HAL_Driver/Src/stm32l4xx_hal_tim_ex.c ****   /* Return function status */
 626:Drivers/STM32L4xx_HAL_Driver/Src/stm32l4xx_hal_tim_ex.c ****   return HAL_OK;
 1295              		.loc 1 626 10
 1296 00b4 0023     		movs	r3, #0
 627:Drivers/STM32L4xx_HAL_Driver/Src/stm32l4xx_hal_tim_ex.c **** }
 1297              		.loc 1 627 1
 1298 00b6 1846     		mov	r0, r3
 1299 00b8 1037     		adds	r7, r7, #16
 1300              	.LCFI65:
 1301              		.cfi_def_cfa_offset 8
 1302 00ba BD46     		mov	sp, r7
 1303              	.LCFI66:
 1304              		.cfi_def_cfa_register 13
 1305              		@ sp needed
 1306 00bc 80BD     		pop	{r7, pc}
 1307              	.L58:
 1308 00be 00BF     		.align	2
 1309              	.L57:
 1310 00c0 07000100 		.word	65543
 1311              		.cfi_endproc
 1312              	.LFE142:
 1314              		.section	.text.HAL_TIMEx_OCN_Stop_IT,"ax",%progbits
 1315              		.align	1
 1316              		.global	HAL_TIMEx_OCN_Stop_IT
 1317              		.syntax unified
 1318              		.thumb
 1319              		.thumb_func
 1320              		.fpu fpv4-sp-d16
 1322              	HAL_TIMEx_OCN_Stop_IT:
 1323              	.LFB143:
 628:Drivers/STM32L4xx_HAL_Driver/Src/stm32l4xx_hal_tim_ex.c **** 
 629:Drivers/STM32L4xx_HAL_Driver/Src/stm32l4xx_hal_tim_ex.c **** /**
 630:Drivers/STM32L4xx_HAL_Driver/Src/stm32l4xx_hal_tim_ex.c ****   * @brief  Stops the TIM Output Compare signal generation in interrupt mode
 631:Drivers/STM32L4xx_HAL_Driver/Src/stm32l4xx_hal_tim_ex.c ****   *         on the complementary output.
 632:Drivers/STM32L4xx_HAL_Driver/Src/stm32l4xx_hal_tim_ex.c ****   * @param  htim TIM Output Compare handle
 633:Drivers/STM32L4xx_HAL_Driver/Src/stm32l4xx_hal_tim_ex.c ****   * @param  Channel TIM Channel to be disabled
 634:Drivers/STM32L4xx_HAL_Driver/Src/stm32l4xx_hal_tim_ex.c ****   *          This parameter can be one of the following values:
 635:Drivers/STM32L4xx_HAL_Driver/Src/stm32l4xx_hal_tim_ex.c ****   *            @arg TIM_CHANNEL_1: TIM Channel 1 selected
 636:Drivers/STM32L4xx_HAL_Driver/Src/stm32l4xx_hal_tim_ex.c ****   *            @arg TIM_CHANNEL_2: TIM Channel 2 selected
ARM GAS  /tmp/cc9IMTcg.s 			page 35


 637:Drivers/STM32L4xx_HAL_Driver/Src/stm32l4xx_hal_tim_ex.c ****   *            @arg TIM_CHANNEL_3: TIM Channel 3 selected
 638:Drivers/STM32L4xx_HAL_Driver/Src/stm32l4xx_hal_tim_ex.c ****   * @retval HAL status
 639:Drivers/STM32L4xx_HAL_Driver/Src/stm32l4xx_hal_tim_ex.c ****   */
 640:Drivers/STM32L4xx_HAL_Driver/Src/stm32l4xx_hal_tim_ex.c **** HAL_StatusTypeDef HAL_TIMEx_OCN_Stop_IT(TIM_HandleTypeDef *htim, uint32_t Channel)
 641:Drivers/STM32L4xx_HAL_Driver/Src/stm32l4xx_hal_tim_ex.c **** {
 1324              		.loc 1 641 1
 1325              		.cfi_startproc
 1326              		@ args = 0, pretend = 0, frame = 16
 1327              		@ frame_needed = 1, uses_anonymous_args = 0
 1328 0000 80B5     		push	{r7, lr}
 1329              	.LCFI67:
 1330              		.cfi_def_cfa_offset 8
 1331              		.cfi_offset 7, -8
 1332              		.cfi_offset 14, -4
 1333 0002 84B0     		sub	sp, sp, #16
 1334              	.LCFI68:
 1335              		.cfi_def_cfa_offset 24
 1336 0004 00AF     		add	r7, sp, #0
 1337              	.LCFI69:
 1338              		.cfi_def_cfa_register 7
 1339 0006 7860     		str	r0, [r7, #4]
 1340 0008 3960     		str	r1, [r7]
 642:Drivers/STM32L4xx_HAL_Driver/Src/stm32l4xx_hal_tim_ex.c ****   uint32_t tmpccer;
 643:Drivers/STM32L4xx_HAL_Driver/Src/stm32l4xx_hal_tim_ex.c ****   /* Check the parameters */
 644:Drivers/STM32L4xx_HAL_Driver/Src/stm32l4xx_hal_tim_ex.c ****   assert_param(IS_TIM_CCXN_INSTANCE(htim->Instance, Channel));
 645:Drivers/STM32L4xx_HAL_Driver/Src/stm32l4xx_hal_tim_ex.c **** 
 646:Drivers/STM32L4xx_HAL_Driver/Src/stm32l4xx_hal_tim_ex.c ****   switch (Channel)
 1341              		.loc 1 646 3
 1342 000a 3B68     		ldr	r3, [r7]
 1343 000c 082B     		cmp	r3, #8
 1344 000e 1BD0     		beq	.L60
 1345 0010 3B68     		ldr	r3, [r7]
 1346 0012 082B     		cmp	r3, #8
 1347 0014 21D8     		bhi	.L69
 1348 0016 3B68     		ldr	r3, [r7]
 1349 0018 002B     		cmp	r3, #0
 1350 001a 03D0     		beq	.L62
 1351 001c 3B68     		ldr	r3, [r7]
 1352 001e 042B     		cmp	r3, #4
 1353 0020 09D0     		beq	.L63
 647:Drivers/STM32L4xx_HAL_Driver/Src/stm32l4xx_hal_tim_ex.c ****   {
 648:Drivers/STM32L4xx_HAL_Driver/Src/stm32l4xx_hal_tim_ex.c ****     case TIM_CHANNEL_1:
 649:Drivers/STM32L4xx_HAL_Driver/Src/stm32l4xx_hal_tim_ex.c ****     {
 650:Drivers/STM32L4xx_HAL_Driver/Src/stm32l4xx_hal_tim_ex.c ****       /* Disable the TIM Output Compare interrupt */
 651:Drivers/STM32L4xx_HAL_Driver/Src/stm32l4xx_hal_tim_ex.c ****       __HAL_TIM_DISABLE_IT(htim, TIM_IT_CC1);
 652:Drivers/STM32L4xx_HAL_Driver/Src/stm32l4xx_hal_tim_ex.c ****       break;
 653:Drivers/STM32L4xx_HAL_Driver/Src/stm32l4xx_hal_tim_ex.c ****     }
 654:Drivers/STM32L4xx_HAL_Driver/Src/stm32l4xx_hal_tim_ex.c **** 
 655:Drivers/STM32L4xx_HAL_Driver/Src/stm32l4xx_hal_tim_ex.c ****     case TIM_CHANNEL_2:
 656:Drivers/STM32L4xx_HAL_Driver/Src/stm32l4xx_hal_tim_ex.c ****     {
 657:Drivers/STM32L4xx_HAL_Driver/Src/stm32l4xx_hal_tim_ex.c ****       /* Disable the TIM Output Compare interrupt */
 658:Drivers/STM32L4xx_HAL_Driver/Src/stm32l4xx_hal_tim_ex.c ****       __HAL_TIM_DISABLE_IT(htim, TIM_IT_CC2);
 659:Drivers/STM32L4xx_HAL_Driver/Src/stm32l4xx_hal_tim_ex.c ****       break;
 660:Drivers/STM32L4xx_HAL_Driver/Src/stm32l4xx_hal_tim_ex.c ****     }
 661:Drivers/STM32L4xx_HAL_Driver/Src/stm32l4xx_hal_tim_ex.c **** 
 662:Drivers/STM32L4xx_HAL_Driver/Src/stm32l4xx_hal_tim_ex.c ****     case TIM_CHANNEL_3:
 663:Drivers/STM32L4xx_HAL_Driver/Src/stm32l4xx_hal_tim_ex.c ****     {
ARM GAS  /tmp/cc9IMTcg.s 			page 36


 664:Drivers/STM32L4xx_HAL_Driver/Src/stm32l4xx_hal_tim_ex.c ****       /* Disable the TIM Output Compare interrupt */
 665:Drivers/STM32L4xx_HAL_Driver/Src/stm32l4xx_hal_tim_ex.c ****       __HAL_TIM_DISABLE_IT(htim, TIM_IT_CC3);
 666:Drivers/STM32L4xx_HAL_Driver/Src/stm32l4xx_hal_tim_ex.c ****       break;
 667:Drivers/STM32L4xx_HAL_Driver/Src/stm32l4xx_hal_tim_ex.c ****     }
 668:Drivers/STM32L4xx_HAL_Driver/Src/stm32l4xx_hal_tim_ex.c **** 
 669:Drivers/STM32L4xx_HAL_Driver/Src/stm32l4xx_hal_tim_ex.c ****     default:
 670:Drivers/STM32L4xx_HAL_Driver/Src/stm32l4xx_hal_tim_ex.c ****       break;
 1354              		.loc 1 670 7
 1355 0022 1AE0     		b	.L69
 1356              	.L62:
 651:Drivers/STM32L4xx_HAL_Driver/Src/stm32l4xx_hal_tim_ex.c ****       break;
 1357              		.loc 1 651 7
 1358 0024 7B68     		ldr	r3, [r7, #4]
 1359 0026 1B68     		ldr	r3, [r3]
 1360 0028 DA68     		ldr	r2, [r3, #12]
 1361 002a 7B68     		ldr	r3, [r7, #4]
 1362 002c 1B68     		ldr	r3, [r3]
 1363 002e 22F00202 		bic	r2, r2, #2
 1364 0032 DA60     		str	r2, [r3, #12]
 652:Drivers/STM32L4xx_HAL_Driver/Src/stm32l4xx_hal_tim_ex.c ****     }
 1365              		.loc 1 652 7
 1366 0034 12E0     		b	.L64
 1367              	.L63:
 658:Drivers/STM32L4xx_HAL_Driver/Src/stm32l4xx_hal_tim_ex.c ****       break;
 1368              		.loc 1 658 7
 1369 0036 7B68     		ldr	r3, [r7, #4]
 1370 0038 1B68     		ldr	r3, [r3]
 1371 003a DA68     		ldr	r2, [r3, #12]
 1372 003c 7B68     		ldr	r3, [r7, #4]
 1373 003e 1B68     		ldr	r3, [r3]
 1374 0040 22F00402 		bic	r2, r2, #4
 1375 0044 DA60     		str	r2, [r3, #12]
 659:Drivers/STM32L4xx_HAL_Driver/Src/stm32l4xx_hal_tim_ex.c ****     }
 1376              		.loc 1 659 7
 1377 0046 09E0     		b	.L64
 1378              	.L60:
 665:Drivers/STM32L4xx_HAL_Driver/Src/stm32l4xx_hal_tim_ex.c ****       break;
 1379              		.loc 1 665 7
 1380 0048 7B68     		ldr	r3, [r7, #4]
 1381 004a 1B68     		ldr	r3, [r3]
 1382 004c DA68     		ldr	r2, [r3, #12]
 1383 004e 7B68     		ldr	r3, [r7, #4]
 1384 0050 1B68     		ldr	r3, [r3]
 1385 0052 22F00802 		bic	r2, r2, #8
 1386 0056 DA60     		str	r2, [r3, #12]
 666:Drivers/STM32L4xx_HAL_Driver/Src/stm32l4xx_hal_tim_ex.c ****     }
 1387              		.loc 1 666 7
 1388 0058 00E0     		b	.L64
 1389              	.L69:
 1390              		.loc 1 670 7
 1391 005a 00BF     		nop
 1392              	.L64:
 671:Drivers/STM32L4xx_HAL_Driver/Src/stm32l4xx_hal_tim_ex.c ****   }
 672:Drivers/STM32L4xx_HAL_Driver/Src/stm32l4xx_hal_tim_ex.c **** 
 673:Drivers/STM32L4xx_HAL_Driver/Src/stm32l4xx_hal_tim_ex.c ****   /* Disable the Capture compare channel N */
 674:Drivers/STM32L4xx_HAL_Driver/Src/stm32l4xx_hal_tim_ex.c ****   TIM_CCxNChannelCmd(htim->Instance, Channel, TIM_CCxN_DISABLE);
 1393              		.loc 1 674 3
ARM GAS  /tmp/cc9IMTcg.s 			page 37


 1394 005c 7B68     		ldr	r3, [r7, #4]
 1395 005e 1B68     		ldr	r3, [r3]
 1396 0060 0022     		movs	r2, #0
 1397 0062 3968     		ldr	r1, [r7]
 1398 0064 1846     		mov	r0, r3
 1399 0066 FFF7FEFF 		bl	TIM_CCxNChannelCmd
 675:Drivers/STM32L4xx_HAL_Driver/Src/stm32l4xx_hal_tim_ex.c **** 
 676:Drivers/STM32L4xx_HAL_Driver/Src/stm32l4xx_hal_tim_ex.c ****   /* Disable the TIM Break interrupt (only if no more channel is active) */
 677:Drivers/STM32L4xx_HAL_Driver/Src/stm32l4xx_hal_tim_ex.c ****   tmpccer = htim->Instance->CCER;
 1400              		.loc 1 677 17
 1401 006a 7B68     		ldr	r3, [r7, #4]
 1402 006c 1B68     		ldr	r3, [r3]
 1403              		.loc 1 677 11
 1404 006e 1B6A     		ldr	r3, [r3, #32]
 1405 0070 FB60     		str	r3, [r7, #12]
 678:Drivers/STM32L4xx_HAL_Driver/Src/stm32l4xx_hal_tim_ex.c ****   if ((tmpccer & (TIM_CCER_CC1NE | TIM_CCER_CC2NE | TIM_CCER_CC3NE)) == (uint32_t)RESET)
 1406              		.loc 1 678 16
 1407 0072 FA68     		ldr	r2, [r7, #12]
 1408 0074 40F24443 		movw	r3, #1092
 1409 0078 1340     		ands	r3, r3, r2
 1410              		.loc 1 678 6
 1411 007a 002B     		cmp	r3, #0
 1412 007c 07D1     		bne	.L65
 679:Drivers/STM32L4xx_HAL_Driver/Src/stm32l4xx_hal_tim_ex.c ****   {
 680:Drivers/STM32L4xx_HAL_Driver/Src/stm32l4xx_hal_tim_ex.c ****     __HAL_TIM_DISABLE_IT(htim, TIM_IT_BREAK);
 1413              		.loc 1 680 5
 1414 007e 7B68     		ldr	r3, [r7, #4]
 1415 0080 1B68     		ldr	r3, [r3]
 1416 0082 DA68     		ldr	r2, [r3, #12]
 1417 0084 7B68     		ldr	r3, [r7, #4]
 1418 0086 1B68     		ldr	r3, [r3]
 1419 0088 22F08002 		bic	r2, r2, #128
 1420 008c DA60     		str	r2, [r3, #12]
 1421              	.L65:
 681:Drivers/STM32L4xx_HAL_Driver/Src/stm32l4xx_hal_tim_ex.c ****   }
 682:Drivers/STM32L4xx_HAL_Driver/Src/stm32l4xx_hal_tim_ex.c **** 
 683:Drivers/STM32L4xx_HAL_Driver/Src/stm32l4xx_hal_tim_ex.c ****   /* Disable the Main Output */
 684:Drivers/STM32L4xx_HAL_Driver/Src/stm32l4xx_hal_tim_ex.c ****   __HAL_TIM_MOE_DISABLE(htim);
 1422              		.loc 1 684 3
 1423 008e 7B68     		ldr	r3, [r7, #4]
 1424 0090 1B68     		ldr	r3, [r3]
 1425 0092 1A6A     		ldr	r2, [r3, #32]
 1426 0094 41F21113 		movw	r3, #4369
 1427 0098 1340     		ands	r3, r3, r2
 1428 009a 002B     		cmp	r3, #0
 1429 009c 0FD1     		bne	.L66
 1430              		.loc 1 684 3 is_stmt 0 discriminator 1
 1431 009e 7B68     		ldr	r3, [r7, #4]
 1432 00a0 1B68     		ldr	r3, [r3]
 1433 00a2 1A6A     		ldr	r2, [r3, #32]
 1434 00a4 40F24443 		movw	r3, #1092
 1435 00a8 1340     		ands	r3, r3, r2
 1436 00aa 002B     		cmp	r3, #0
 1437 00ac 07D1     		bne	.L66
 1438              		.loc 1 684 3 discriminator 2
 1439 00ae 7B68     		ldr	r3, [r7, #4]
 1440 00b0 1B68     		ldr	r3, [r3]
ARM GAS  /tmp/cc9IMTcg.s 			page 38


 1441 00b2 5A6C     		ldr	r2, [r3, #68]
 1442 00b4 7B68     		ldr	r3, [r7, #4]
 1443 00b6 1B68     		ldr	r3, [r3]
 1444 00b8 22F40042 		bic	r2, r2, #32768
 1445 00bc 5A64     		str	r2, [r3, #68]
 1446              	.L66:
 685:Drivers/STM32L4xx_HAL_Driver/Src/stm32l4xx_hal_tim_ex.c **** 
 686:Drivers/STM32L4xx_HAL_Driver/Src/stm32l4xx_hal_tim_ex.c ****   /* Disable the Peripheral */
 687:Drivers/STM32L4xx_HAL_Driver/Src/stm32l4xx_hal_tim_ex.c ****   __HAL_TIM_DISABLE(htim);
 1447              		.loc 1 687 3 is_stmt 1
 1448 00be 7B68     		ldr	r3, [r7, #4]
 1449 00c0 1B68     		ldr	r3, [r3]
 1450 00c2 1A6A     		ldr	r2, [r3, #32]
 1451 00c4 41F21113 		movw	r3, #4369
 1452 00c8 1340     		ands	r3, r3, r2
 1453 00ca 002B     		cmp	r3, #0
 1454 00cc 0FD1     		bne	.L67
 1455              		.loc 1 687 3 is_stmt 0 discriminator 1
 1456 00ce 7B68     		ldr	r3, [r7, #4]
 1457 00d0 1B68     		ldr	r3, [r3]
 1458 00d2 1A6A     		ldr	r2, [r3, #32]
 1459 00d4 40F24443 		movw	r3, #1092
 1460 00d8 1340     		ands	r3, r3, r2
 1461 00da 002B     		cmp	r3, #0
 1462 00dc 07D1     		bne	.L67
 1463              		.loc 1 687 3 discriminator 2
 1464 00de 7B68     		ldr	r3, [r7, #4]
 1465 00e0 1B68     		ldr	r3, [r3]
 1466 00e2 1A68     		ldr	r2, [r3]
 1467 00e4 7B68     		ldr	r3, [r7, #4]
 1468 00e6 1B68     		ldr	r3, [r3]
 1469 00e8 22F00102 		bic	r2, r2, #1
 1470 00ec 1A60     		str	r2, [r3]
 1471              	.L67:
 688:Drivers/STM32L4xx_HAL_Driver/Src/stm32l4xx_hal_tim_ex.c **** 
 689:Drivers/STM32L4xx_HAL_Driver/Src/stm32l4xx_hal_tim_ex.c ****   /* Return function status */
 690:Drivers/STM32L4xx_HAL_Driver/Src/stm32l4xx_hal_tim_ex.c ****   return HAL_OK;
 1472              		.loc 1 690 10 is_stmt 1
 1473 00ee 0023     		movs	r3, #0
 691:Drivers/STM32L4xx_HAL_Driver/Src/stm32l4xx_hal_tim_ex.c **** }
 1474              		.loc 1 691 1
 1475 00f0 1846     		mov	r0, r3
 1476 00f2 1037     		adds	r7, r7, #16
 1477              	.LCFI70:
 1478              		.cfi_def_cfa_offset 8
 1479 00f4 BD46     		mov	sp, r7
 1480              	.LCFI71:
 1481              		.cfi_def_cfa_register 13
 1482              		@ sp needed
 1483 00f6 80BD     		pop	{r7, pc}
 1484              		.cfi_endproc
 1485              	.LFE143:
 1487              		.section	.text.HAL_TIMEx_OCN_Start_DMA,"ax",%progbits
 1488              		.align	1
 1489              		.global	HAL_TIMEx_OCN_Start_DMA
 1490              		.syntax unified
 1491              		.thumb
ARM GAS  /tmp/cc9IMTcg.s 			page 39


 1492              		.thumb_func
 1493              		.fpu fpv4-sp-d16
 1495              	HAL_TIMEx_OCN_Start_DMA:
 1496              	.LFB144:
 692:Drivers/STM32L4xx_HAL_Driver/Src/stm32l4xx_hal_tim_ex.c **** 
 693:Drivers/STM32L4xx_HAL_Driver/Src/stm32l4xx_hal_tim_ex.c **** /**
 694:Drivers/STM32L4xx_HAL_Driver/Src/stm32l4xx_hal_tim_ex.c ****   * @brief  Starts the TIM Output Compare signal generation in DMA mode
 695:Drivers/STM32L4xx_HAL_Driver/Src/stm32l4xx_hal_tim_ex.c ****   *         on the complementary output.
 696:Drivers/STM32L4xx_HAL_Driver/Src/stm32l4xx_hal_tim_ex.c ****   * @param  htim TIM Output Compare handle
 697:Drivers/STM32L4xx_HAL_Driver/Src/stm32l4xx_hal_tim_ex.c ****   * @param  Channel TIM Channel to be enabled
 698:Drivers/STM32L4xx_HAL_Driver/Src/stm32l4xx_hal_tim_ex.c ****   *          This parameter can be one of the following values:
 699:Drivers/STM32L4xx_HAL_Driver/Src/stm32l4xx_hal_tim_ex.c ****   *            @arg TIM_CHANNEL_1: TIM Channel 1 selected
 700:Drivers/STM32L4xx_HAL_Driver/Src/stm32l4xx_hal_tim_ex.c ****   *            @arg TIM_CHANNEL_2: TIM Channel 2 selected
 701:Drivers/STM32L4xx_HAL_Driver/Src/stm32l4xx_hal_tim_ex.c ****   *            @arg TIM_CHANNEL_3: TIM Channel 3 selected
 702:Drivers/STM32L4xx_HAL_Driver/Src/stm32l4xx_hal_tim_ex.c ****   * @param  pData The source Buffer address.
 703:Drivers/STM32L4xx_HAL_Driver/Src/stm32l4xx_hal_tim_ex.c ****   * @param  Length The length of data to be transferred from memory to TIM peripheral
 704:Drivers/STM32L4xx_HAL_Driver/Src/stm32l4xx_hal_tim_ex.c ****   * @retval HAL status
 705:Drivers/STM32L4xx_HAL_Driver/Src/stm32l4xx_hal_tim_ex.c ****   */
 706:Drivers/STM32L4xx_HAL_Driver/Src/stm32l4xx_hal_tim_ex.c **** HAL_StatusTypeDef HAL_TIMEx_OCN_Start_DMA(TIM_HandleTypeDef *htim, uint32_t Channel, uint32_t *pDat
 707:Drivers/STM32L4xx_HAL_Driver/Src/stm32l4xx_hal_tim_ex.c **** {
 1497              		.loc 1 707 1
 1498              		.cfi_startproc
 1499              		@ args = 0, pretend = 0, frame = 24
 1500              		@ frame_needed = 1, uses_anonymous_args = 0
 1501 0000 80B5     		push	{r7, lr}
 1502              	.LCFI72:
 1503              		.cfi_def_cfa_offset 8
 1504              		.cfi_offset 7, -8
 1505              		.cfi_offset 14, -4
 1506 0002 86B0     		sub	sp, sp, #24
 1507              	.LCFI73:
 1508              		.cfi_def_cfa_offset 32
 1509 0004 00AF     		add	r7, sp, #0
 1510              	.LCFI74:
 1511              		.cfi_def_cfa_register 7
 1512 0006 F860     		str	r0, [r7, #12]
 1513 0008 B960     		str	r1, [r7, #8]
 1514 000a 7A60     		str	r2, [r7, #4]
 1515 000c 7B80     		strh	r3, [r7, #2]	@ movhi
 708:Drivers/STM32L4xx_HAL_Driver/Src/stm32l4xx_hal_tim_ex.c ****   uint32_t tmpsmcr;
 709:Drivers/STM32L4xx_HAL_Driver/Src/stm32l4xx_hal_tim_ex.c **** 
 710:Drivers/STM32L4xx_HAL_Driver/Src/stm32l4xx_hal_tim_ex.c ****   /* Check the parameters */
 711:Drivers/STM32L4xx_HAL_Driver/Src/stm32l4xx_hal_tim_ex.c ****   assert_param(IS_TIM_CCXN_INSTANCE(htim->Instance, Channel));
 712:Drivers/STM32L4xx_HAL_Driver/Src/stm32l4xx_hal_tim_ex.c **** 
 713:Drivers/STM32L4xx_HAL_Driver/Src/stm32l4xx_hal_tim_ex.c ****   if (htim->State == HAL_TIM_STATE_BUSY)
 1516              		.loc 1 713 11
 1517 000e FB68     		ldr	r3, [r7, #12]
 1518 0010 93F83D30 		ldrb	r3, [r3, #61]
 1519 0014 DBB2     		uxtb	r3, r3
 1520              		.loc 1 713 6
 1521 0016 022B     		cmp	r3, #2
 1522 0018 01D1     		bne	.L71
 714:Drivers/STM32L4xx_HAL_Driver/Src/stm32l4xx_hal_tim_ex.c ****   {
 715:Drivers/STM32L4xx_HAL_Driver/Src/stm32l4xx_hal_tim_ex.c ****     return HAL_BUSY;
 1523              		.loc 1 715 12
 1524 001a 0223     		movs	r3, #2
 1525 001c B0E0     		b	.L72
ARM GAS  /tmp/cc9IMTcg.s 			page 40


 1526              	.L71:
 716:Drivers/STM32L4xx_HAL_Driver/Src/stm32l4xx_hal_tim_ex.c ****   }
 717:Drivers/STM32L4xx_HAL_Driver/Src/stm32l4xx_hal_tim_ex.c ****   else if (htim->State == HAL_TIM_STATE_READY)
 1527              		.loc 1 717 16
 1528 001e FB68     		ldr	r3, [r7, #12]
 1529 0020 93F83D30 		ldrb	r3, [r3, #61]
 1530 0024 DBB2     		uxtb	r3, r3
 1531              		.loc 1 717 11
 1532 0026 012B     		cmp	r3, #1
 1533 0028 0BD1     		bne	.L73
 718:Drivers/STM32L4xx_HAL_Driver/Src/stm32l4xx_hal_tim_ex.c ****   {
 719:Drivers/STM32L4xx_HAL_Driver/Src/stm32l4xx_hal_tim_ex.c ****     if (((uint32_t)pData == 0U) && (Length > 0U))
 1534              		.loc 1 719 8
 1535 002a 7B68     		ldr	r3, [r7, #4]
 1536 002c 002B     		cmp	r3, #0
 1537 002e 04D1     		bne	.L74
 1538              		.loc 1 719 33 discriminator 1
 1539 0030 7B88     		ldrh	r3, [r7, #2]
 1540 0032 002B     		cmp	r3, #0
 1541 0034 01D0     		beq	.L74
 720:Drivers/STM32L4xx_HAL_Driver/Src/stm32l4xx_hal_tim_ex.c ****     {
 721:Drivers/STM32L4xx_HAL_Driver/Src/stm32l4xx_hal_tim_ex.c ****       return HAL_ERROR;
 1542              		.loc 1 721 14
 1543 0036 0123     		movs	r3, #1
 1544 0038 A2E0     		b	.L72
 1545              	.L74:
 722:Drivers/STM32L4xx_HAL_Driver/Src/stm32l4xx_hal_tim_ex.c ****     }
 723:Drivers/STM32L4xx_HAL_Driver/Src/stm32l4xx_hal_tim_ex.c ****     else
 724:Drivers/STM32L4xx_HAL_Driver/Src/stm32l4xx_hal_tim_ex.c ****     {
 725:Drivers/STM32L4xx_HAL_Driver/Src/stm32l4xx_hal_tim_ex.c ****       htim->State = HAL_TIM_STATE_BUSY;
 1546              		.loc 1 725 19
 1547 003a FB68     		ldr	r3, [r7, #12]
 1548 003c 0222     		movs	r2, #2
 1549 003e 83F83D20 		strb	r2, [r3, #61]
 1550              	.L73:
 726:Drivers/STM32L4xx_HAL_Driver/Src/stm32l4xx_hal_tim_ex.c ****     }
 727:Drivers/STM32L4xx_HAL_Driver/Src/stm32l4xx_hal_tim_ex.c ****   }
 728:Drivers/STM32L4xx_HAL_Driver/Src/stm32l4xx_hal_tim_ex.c ****   else
 729:Drivers/STM32L4xx_HAL_Driver/Src/stm32l4xx_hal_tim_ex.c ****   {
 730:Drivers/STM32L4xx_HAL_Driver/Src/stm32l4xx_hal_tim_ex.c ****     /* nothing to do  */
 731:Drivers/STM32L4xx_HAL_Driver/Src/stm32l4xx_hal_tim_ex.c ****   }
 732:Drivers/STM32L4xx_HAL_Driver/Src/stm32l4xx_hal_tim_ex.c **** 
 733:Drivers/STM32L4xx_HAL_Driver/Src/stm32l4xx_hal_tim_ex.c ****   switch (Channel)
 1551              		.loc 1 733 3
 1552 0042 BB68     		ldr	r3, [r7, #8]
 1553 0044 082B     		cmp	r3, #8
 1554 0046 51D0     		beq	.L75
 1555 0048 BB68     		ldr	r3, [r7, #8]
 1556 004a 082B     		cmp	r3, #8
 1557 004c 72D8     		bhi	.L84
 1558 004e BB68     		ldr	r3, [r7, #8]
 1559 0050 002B     		cmp	r3, #0
 1560 0052 03D0     		beq	.L77
 1561 0054 BB68     		ldr	r3, [r7, #8]
 1562 0056 042B     		cmp	r3, #4
 1563 0058 24D0     		beq	.L78
 734:Drivers/STM32L4xx_HAL_Driver/Src/stm32l4xx_hal_tim_ex.c ****   {
ARM GAS  /tmp/cc9IMTcg.s 			page 41


 735:Drivers/STM32L4xx_HAL_Driver/Src/stm32l4xx_hal_tim_ex.c ****     case TIM_CHANNEL_1:
 736:Drivers/STM32L4xx_HAL_Driver/Src/stm32l4xx_hal_tim_ex.c ****     {
 737:Drivers/STM32L4xx_HAL_Driver/Src/stm32l4xx_hal_tim_ex.c ****       /* Set the DMA compare callbacks */
 738:Drivers/STM32L4xx_HAL_Driver/Src/stm32l4xx_hal_tim_ex.c ****       htim->hdma[TIM_DMA_ID_CC1]->XferCpltCallback = TIM_DMADelayPulseCplt;
 739:Drivers/STM32L4xx_HAL_Driver/Src/stm32l4xx_hal_tim_ex.c ****       htim->hdma[TIM_DMA_ID_CC1]->XferHalfCpltCallback = TIM_DMADelayPulseHalfCplt;
 740:Drivers/STM32L4xx_HAL_Driver/Src/stm32l4xx_hal_tim_ex.c **** 
 741:Drivers/STM32L4xx_HAL_Driver/Src/stm32l4xx_hal_tim_ex.c ****       /* Set the DMA error callback */
 742:Drivers/STM32L4xx_HAL_Driver/Src/stm32l4xx_hal_tim_ex.c ****       htim->hdma[TIM_DMA_ID_CC1]->XferErrorCallback = TIM_DMAError ;
 743:Drivers/STM32L4xx_HAL_Driver/Src/stm32l4xx_hal_tim_ex.c **** 
 744:Drivers/STM32L4xx_HAL_Driver/Src/stm32l4xx_hal_tim_ex.c ****       /* Enable the DMA channel */
 745:Drivers/STM32L4xx_HAL_Driver/Src/stm32l4xx_hal_tim_ex.c ****       if (HAL_DMA_Start_IT(htim->hdma[TIM_DMA_ID_CC1], (uint32_t)pData, (uint32_t)&htim->Instance->
 746:Drivers/STM32L4xx_HAL_Driver/Src/stm32l4xx_hal_tim_ex.c ****       {
 747:Drivers/STM32L4xx_HAL_Driver/Src/stm32l4xx_hal_tim_ex.c ****         return HAL_ERROR;
 748:Drivers/STM32L4xx_HAL_Driver/Src/stm32l4xx_hal_tim_ex.c ****       }
 749:Drivers/STM32L4xx_HAL_Driver/Src/stm32l4xx_hal_tim_ex.c ****       /* Enable the TIM Output Compare DMA request */
 750:Drivers/STM32L4xx_HAL_Driver/Src/stm32l4xx_hal_tim_ex.c ****       __HAL_TIM_ENABLE_DMA(htim, TIM_DMA_CC1);
 751:Drivers/STM32L4xx_HAL_Driver/Src/stm32l4xx_hal_tim_ex.c ****       break;
 752:Drivers/STM32L4xx_HAL_Driver/Src/stm32l4xx_hal_tim_ex.c ****     }
 753:Drivers/STM32L4xx_HAL_Driver/Src/stm32l4xx_hal_tim_ex.c **** 
 754:Drivers/STM32L4xx_HAL_Driver/Src/stm32l4xx_hal_tim_ex.c ****     case TIM_CHANNEL_2:
 755:Drivers/STM32L4xx_HAL_Driver/Src/stm32l4xx_hal_tim_ex.c ****     {
 756:Drivers/STM32L4xx_HAL_Driver/Src/stm32l4xx_hal_tim_ex.c ****       /* Set the DMA compare callbacks */
 757:Drivers/STM32L4xx_HAL_Driver/Src/stm32l4xx_hal_tim_ex.c ****       htim->hdma[TIM_DMA_ID_CC2]->XferCpltCallback = TIM_DMADelayPulseCplt;
 758:Drivers/STM32L4xx_HAL_Driver/Src/stm32l4xx_hal_tim_ex.c ****       htim->hdma[TIM_DMA_ID_CC2]->XferHalfCpltCallback = TIM_DMADelayPulseHalfCplt;
 759:Drivers/STM32L4xx_HAL_Driver/Src/stm32l4xx_hal_tim_ex.c **** 
 760:Drivers/STM32L4xx_HAL_Driver/Src/stm32l4xx_hal_tim_ex.c ****       /* Set the DMA error callback */
 761:Drivers/STM32L4xx_HAL_Driver/Src/stm32l4xx_hal_tim_ex.c ****       htim->hdma[TIM_DMA_ID_CC2]->XferErrorCallback = TIM_DMAError ;
 762:Drivers/STM32L4xx_HAL_Driver/Src/stm32l4xx_hal_tim_ex.c **** 
 763:Drivers/STM32L4xx_HAL_Driver/Src/stm32l4xx_hal_tim_ex.c ****       /* Enable the DMA channel */
 764:Drivers/STM32L4xx_HAL_Driver/Src/stm32l4xx_hal_tim_ex.c ****       if (HAL_DMA_Start_IT(htim->hdma[TIM_DMA_ID_CC2], (uint32_t)pData, (uint32_t)&htim->Instance->
 765:Drivers/STM32L4xx_HAL_Driver/Src/stm32l4xx_hal_tim_ex.c ****       {
 766:Drivers/STM32L4xx_HAL_Driver/Src/stm32l4xx_hal_tim_ex.c ****         return HAL_ERROR;
 767:Drivers/STM32L4xx_HAL_Driver/Src/stm32l4xx_hal_tim_ex.c ****       }
 768:Drivers/STM32L4xx_HAL_Driver/Src/stm32l4xx_hal_tim_ex.c ****       /* Enable the TIM Output Compare DMA request */
 769:Drivers/STM32L4xx_HAL_Driver/Src/stm32l4xx_hal_tim_ex.c ****       __HAL_TIM_ENABLE_DMA(htim, TIM_DMA_CC2);
 770:Drivers/STM32L4xx_HAL_Driver/Src/stm32l4xx_hal_tim_ex.c ****       break;
 771:Drivers/STM32L4xx_HAL_Driver/Src/stm32l4xx_hal_tim_ex.c ****     }
 772:Drivers/STM32L4xx_HAL_Driver/Src/stm32l4xx_hal_tim_ex.c **** 
 773:Drivers/STM32L4xx_HAL_Driver/Src/stm32l4xx_hal_tim_ex.c ****     case TIM_CHANNEL_3:
 774:Drivers/STM32L4xx_HAL_Driver/Src/stm32l4xx_hal_tim_ex.c ****     {
 775:Drivers/STM32L4xx_HAL_Driver/Src/stm32l4xx_hal_tim_ex.c ****       /* Set the DMA compare callbacks */
 776:Drivers/STM32L4xx_HAL_Driver/Src/stm32l4xx_hal_tim_ex.c ****       htim->hdma[TIM_DMA_ID_CC3]->XferCpltCallback = TIM_DMADelayPulseCplt;
 777:Drivers/STM32L4xx_HAL_Driver/Src/stm32l4xx_hal_tim_ex.c ****       htim->hdma[TIM_DMA_ID_CC3]->XferHalfCpltCallback = TIM_DMADelayPulseHalfCplt;
 778:Drivers/STM32L4xx_HAL_Driver/Src/stm32l4xx_hal_tim_ex.c **** 
 779:Drivers/STM32L4xx_HAL_Driver/Src/stm32l4xx_hal_tim_ex.c ****       /* Set the DMA error callback */
 780:Drivers/STM32L4xx_HAL_Driver/Src/stm32l4xx_hal_tim_ex.c ****       htim->hdma[TIM_DMA_ID_CC3]->XferErrorCallback = TIM_DMAError ;
 781:Drivers/STM32L4xx_HAL_Driver/Src/stm32l4xx_hal_tim_ex.c **** 
 782:Drivers/STM32L4xx_HAL_Driver/Src/stm32l4xx_hal_tim_ex.c ****       /* Enable the DMA channel */
 783:Drivers/STM32L4xx_HAL_Driver/Src/stm32l4xx_hal_tim_ex.c ****       if (HAL_DMA_Start_IT(htim->hdma[TIM_DMA_ID_CC3], (uint32_t)pData, (uint32_t)&htim->Instance->
 784:Drivers/STM32L4xx_HAL_Driver/Src/stm32l4xx_hal_tim_ex.c ****       {
 785:Drivers/STM32L4xx_HAL_Driver/Src/stm32l4xx_hal_tim_ex.c ****         return HAL_ERROR;
 786:Drivers/STM32L4xx_HAL_Driver/Src/stm32l4xx_hal_tim_ex.c ****       }
 787:Drivers/STM32L4xx_HAL_Driver/Src/stm32l4xx_hal_tim_ex.c ****       /* Enable the TIM Output Compare DMA request */
 788:Drivers/STM32L4xx_HAL_Driver/Src/stm32l4xx_hal_tim_ex.c ****       __HAL_TIM_ENABLE_DMA(htim, TIM_DMA_CC3);
 789:Drivers/STM32L4xx_HAL_Driver/Src/stm32l4xx_hal_tim_ex.c ****       break;
 790:Drivers/STM32L4xx_HAL_Driver/Src/stm32l4xx_hal_tim_ex.c ****     }
 791:Drivers/STM32L4xx_HAL_Driver/Src/stm32l4xx_hal_tim_ex.c **** 
ARM GAS  /tmp/cc9IMTcg.s 			page 42


 792:Drivers/STM32L4xx_HAL_Driver/Src/stm32l4xx_hal_tim_ex.c ****     default:
 793:Drivers/STM32L4xx_HAL_Driver/Src/stm32l4xx_hal_tim_ex.c ****       break;
 1564              		.loc 1 793 7
 1565 005a 6BE0     		b	.L84
 1566              	.L77:
 738:Drivers/STM32L4xx_HAL_Driver/Src/stm32l4xx_hal_tim_ex.c ****       htim->hdma[TIM_DMA_ID_CC1]->XferHalfCpltCallback = TIM_DMADelayPulseHalfCplt;
 1567              		.loc 1 738 17
 1568 005c FB68     		ldr	r3, [r7, #12]
 1569 005e 5B6A     		ldr	r3, [r3, #36]
 738:Drivers/STM32L4xx_HAL_Driver/Src/stm32l4xx_hal_tim_ex.c ****       htim->hdma[TIM_DMA_ID_CC1]->XferHalfCpltCallback = TIM_DMADelayPulseHalfCplt;
 1570              		.loc 1 738 52
 1571 0060 494A     		ldr	r2, .L85
 1572 0062 DA62     		str	r2, [r3, #44]
 739:Drivers/STM32L4xx_HAL_Driver/Src/stm32l4xx_hal_tim_ex.c **** 
 1573              		.loc 1 739 17
 1574 0064 FB68     		ldr	r3, [r7, #12]
 1575 0066 5B6A     		ldr	r3, [r3, #36]
 739:Drivers/STM32L4xx_HAL_Driver/Src/stm32l4xx_hal_tim_ex.c **** 
 1576              		.loc 1 739 56
 1577 0068 484A     		ldr	r2, .L85+4
 1578 006a 1A63     		str	r2, [r3, #48]
 742:Drivers/STM32L4xx_HAL_Driver/Src/stm32l4xx_hal_tim_ex.c **** 
 1579              		.loc 1 742 17
 1580 006c FB68     		ldr	r3, [r7, #12]
 1581 006e 5B6A     		ldr	r3, [r3, #36]
 742:Drivers/STM32L4xx_HAL_Driver/Src/stm32l4xx_hal_tim_ex.c **** 
 1582              		.loc 1 742 53
 1583 0070 474A     		ldr	r2, .L85+8
 1584 0072 5A63     		str	r2, [r3, #52]
 745:Drivers/STM32L4xx_HAL_Driver/Src/stm32l4xx_hal_tim_ex.c ****       {
 1585              		.loc 1 745 11
 1586 0074 FB68     		ldr	r3, [r7, #12]
 1587 0076 586A     		ldr	r0, [r3, #36]
 1588 0078 7968     		ldr	r1, [r7, #4]
 745:Drivers/STM32L4xx_HAL_Driver/Src/stm32l4xx_hal_tim_ex.c ****       {
 1589              		.loc 1 745 88
 1590 007a FB68     		ldr	r3, [r7, #12]
 1591 007c 1B68     		ldr	r3, [r3]
 745:Drivers/STM32L4xx_HAL_Driver/Src/stm32l4xx_hal_tim_ex.c ****       {
 1592              		.loc 1 745 83
 1593 007e 3433     		adds	r3, r3, #52
 745:Drivers/STM32L4xx_HAL_Driver/Src/stm32l4xx_hal_tim_ex.c ****       {
 1594              		.loc 1 745 11
 1595 0080 1A46     		mov	r2, r3
 1596 0082 7B88     		ldrh	r3, [r7, #2]
 1597 0084 FFF7FEFF 		bl	HAL_DMA_Start_IT
 1598 0088 0346     		mov	r3, r0
 745:Drivers/STM32L4xx_HAL_Driver/Src/stm32l4xx_hal_tim_ex.c ****       {
 1599              		.loc 1 745 10
 1600 008a 002B     		cmp	r3, #0
 1601 008c 01D0     		beq	.L79
 747:Drivers/STM32L4xx_HAL_Driver/Src/stm32l4xx_hal_tim_ex.c ****       }
 1602              		.loc 1 747 16
 1603 008e 0123     		movs	r3, #1
 1604 0090 76E0     		b	.L72
 1605              	.L79:
 750:Drivers/STM32L4xx_HAL_Driver/Src/stm32l4xx_hal_tim_ex.c ****       break;
ARM GAS  /tmp/cc9IMTcg.s 			page 43


 1606              		.loc 1 750 7
 1607 0092 FB68     		ldr	r3, [r7, #12]
 1608 0094 1B68     		ldr	r3, [r3]
 1609 0096 DA68     		ldr	r2, [r3, #12]
 1610 0098 FB68     		ldr	r3, [r7, #12]
 1611 009a 1B68     		ldr	r3, [r3]
 1612 009c 42F40072 		orr	r2, r2, #512
 1613 00a0 DA60     		str	r2, [r3, #12]
 751:Drivers/STM32L4xx_HAL_Driver/Src/stm32l4xx_hal_tim_ex.c ****     }
 1614              		.loc 1 751 7
 1615 00a2 48E0     		b	.L80
 1616              	.L78:
 757:Drivers/STM32L4xx_HAL_Driver/Src/stm32l4xx_hal_tim_ex.c ****       htim->hdma[TIM_DMA_ID_CC2]->XferHalfCpltCallback = TIM_DMADelayPulseHalfCplt;
 1617              		.loc 1 757 17
 1618 00a4 FB68     		ldr	r3, [r7, #12]
 1619 00a6 9B6A     		ldr	r3, [r3, #40]
 757:Drivers/STM32L4xx_HAL_Driver/Src/stm32l4xx_hal_tim_ex.c ****       htim->hdma[TIM_DMA_ID_CC2]->XferHalfCpltCallback = TIM_DMADelayPulseHalfCplt;
 1620              		.loc 1 757 52
 1621 00a8 374A     		ldr	r2, .L85
 1622 00aa DA62     		str	r2, [r3, #44]
 758:Drivers/STM32L4xx_HAL_Driver/Src/stm32l4xx_hal_tim_ex.c **** 
 1623              		.loc 1 758 17
 1624 00ac FB68     		ldr	r3, [r7, #12]
 1625 00ae 9B6A     		ldr	r3, [r3, #40]
 758:Drivers/STM32L4xx_HAL_Driver/Src/stm32l4xx_hal_tim_ex.c **** 
 1626              		.loc 1 758 56
 1627 00b0 364A     		ldr	r2, .L85+4
 1628 00b2 1A63     		str	r2, [r3, #48]
 761:Drivers/STM32L4xx_HAL_Driver/Src/stm32l4xx_hal_tim_ex.c **** 
 1629              		.loc 1 761 17
 1630 00b4 FB68     		ldr	r3, [r7, #12]
 1631 00b6 9B6A     		ldr	r3, [r3, #40]
 761:Drivers/STM32L4xx_HAL_Driver/Src/stm32l4xx_hal_tim_ex.c **** 
 1632              		.loc 1 761 53
 1633 00b8 354A     		ldr	r2, .L85+8
 1634 00ba 5A63     		str	r2, [r3, #52]
 764:Drivers/STM32L4xx_HAL_Driver/Src/stm32l4xx_hal_tim_ex.c ****       {
 1635              		.loc 1 764 11
 1636 00bc FB68     		ldr	r3, [r7, #12]
 1637 00be 986A     		ldr	r0, [r3, #40]
 1638 00c0 7968     		ldr	r1, [r7, #4]
 764:Drivers/STM32L4xx_HAL_Driver/Src/stm32l4xx_hal_tim_ex.c ****       {
 1639              		.loc 1 764 88
 1640 00c2 FB68     		ldr	r3, [r7, #12]
 1641 00c4 1B68     		ldr	r3, [r3]
 764:Drivers/STM32L4xx_HAL_Driver/Src/stm32l4xx_hal_tim_ex.c ****       {
 1642              		.loc 1 764 83
 1643 00c6 3833     		adds	r3, r3, #56
 764:Drivers/STM32L4xx_HAL_Driver/Src/stm32l4xx_hal_tim_ex.c ****       {
 1644              		.loc 1 764 11
 1645 00c8 1A46     		mov	r2, r3
 1646 00ca 7B88     		ldrh	r3, [r7, #2]
 1647 00cc FFF7FEFF 		bl	HAL_DMA_Start_IT
 1648 00d0 0346     		mov	r3, r0
 764:Drivers/STM32L4xx_HAL_Driver/Src/stm32l4xx_hal_tim_ex.c ****       {
 1649              		.loc 1 764 10
 1650 00d2 002B     		cmp	r3, #0
ARM GAS  /tmp/cc9IMTcg.s 			page 44


 1651 00d4 01D0     		beq	.L81
 766:Drivers/STM32L4xx_HAL_Driver/Src/stm32l4xx_hal_tim_ex.c ****       }
 1652              		.loc 1 766 16
 1653 00d6 0123     		movs	r3, #1
 1654 00d8 52E0     		b	.L72
 1655              	.L81:
 769:Drivers/STM32L4xx_HAL_Driver/Src/stm32l4xx_hal_tim_ex.c ****       break;
 1656              		.loc 1 769 7
 1657 00da FB68     		ldr	r3, [r7, #12]
 1658 00dc 1B68     		ldr	r3, [r3]
 1659 00de DA68     		ldr	r2, [r3, #12]
 1660 00e0 FB68     		ldr	r3, [r7, #12]
 1661 00e2 1B68     		ldr	r3, [r3]
 1662 00e4 42F48062 		orr	r2, r2, #1024
 1663 00e8 DA60     		str	r2, [r3, #12]
 770:Drivers/STM32L4xx_HAL_Driver/Src/stm32l4xx_hal_tim_ex.c ****     }
 1664              		.loc 1 770 7
 1665 00ea 24E0     		b	.L80
 1666              	.L75:
 776:Drivers/STM32L4xx_HAL_Driver/Src/stm32l4xx_hal_tim_ex.c ****       htim->hdma[TIM_DMA_ID_CC3]->XferHalfCpltCallback = TIM_DMADelayPulseHalfCplt;
 1667              		.loc 1 776 17
 1668 00ec FB68     		ldr	r3, [r7, #12]
 1669 00ee DB6A     		ldr	r3, [r3, #44]
 776:Drivers/STM32L4xx_HAL_Driver/Src/stm32l4xx_hal_tim_ex.c ****       htim->hdma[TIM_DMA_ID_CC3]->XferHalfCpltCallback = TIM_DMADelayPulseHalfCplt;
 1670              		.loc 1 776 52
 1671 00f0 254A     		ldr	r2, .L85
 1672 00f2 DA62     		str	r2, [r3, #44]
 777:Drivers/STM32L4xx_HAL_Driver/Src/stm32l4xx_hal_tim_ex.c **** 
 1673              		.loc 1 777 17
 1674 00f4 FB68     		ldr	r3, [r7, #12]
 1675 00f6 DB6A     		ldr	r3, [r3, #44]
 777:Drivers/STM32L4xx_HAL_Driver/Src/stm32l4xx_hal_tim_ex.c **** 
 1676              		.loc 1 777 56
 1677 00f8 244A     		ldr	r2, .L85+4
 1678 00fa 1A63     		str	r2, [r3, #48]
 780:Drivers/STM32L4xx_HAL_Driver/Src/stm32l4xx_hal_tim_ex.c **** 
 1679              		.loc 1 780 17
 1680 00fc FB68     		ldr	r3, [r7, #12]
 1681 00fe DB6A     		ldr	r3, [r3, #44]
 780:Drivers/STM32L4xx_HAL_Driver/Src/stm32l4xx_hal_tim_ex.c **** 
 1682              		.loc 1 780 53
 1683 0100 234A     		ldr	r2, .L85+8
 1684 0102 5A63     		str	r2, [r3, #52]
 783:Drivers/STM32L4xx_HAL_Driver/Src/stm32l4xx_hal_tim_ex.c ****       {
 1685              		.loc 1 783 11
 1686 0104 FB68     		ldr	r3, [r7, #12]
 1687 0106 D86A     		ldr	r0, [r3, #44]
 1688 0108 7968     		ldr	r1, [r7, #4]
 783:Drivers/STM32L4xx_HAL_Driver/Src/stm32l4xx_hal_tim_ex.c ****       {
 1689              		.loc 1 783 88
 1690 010a FB68     		ldr	r3, [r7, #12]
 1691 010c 1B68     		ldr	r3, [r3]
 783:Drivers/STM32L4xx_HAL_Driver/Src/stm32l4xx_hal_tim_ex.c ****       {
 1692              		.loc 1 783 83
 1693 010e 3C33     		adds	r3, r3, #60
 783:Drivers/STM32L4xx_HAL_Driver/Src/stm32l4xx_hal_tim_ex.c ****       {
 1694              		.loc 1 783 11
ARM GAS  /tmp/cc9IMTcg.s 			page 45


 1695 0110 1A46     		mov	r2, r3
 1696 0112 7B88     		ldrh	r3, [r7, #2]
 1697 0114 FFF7FEFF 		bl	HAL_DMA_Start_IT
 1698 0118 0346     		mov	r3, r0
 783:Drivers/STM32L4xx_HAL_Driver/Src/stm32l4xx_hal_tim_ex.c ****       {
 1699              		.loc 1 783 10
 1700 011a 002B     		cmp	r3, #0
 1701 011c 01D0     		beq	.L82
 785:Drivers/STM32L4xx_HAL_Driver/Src/stm32l4xx_hal_tim_ex.c ****       }
 1702              		.loc 1 785 16
 1703 011e 0123     		movs	r3, #1
 1704 0120 2EE0     		b	.L72
 1705              	.L82:
 788:Drivers/STM32L4xx_HAL_Driver/Src/stm32l4xx_hal_tim_ex.c ****       break;
 1706              		.loc 1 788 7
 1707 0122 FB68     		ldr	r3, [r7, #12]
 1708 0124 1B68     		ldr	r3, [r3]
 1709 0126 DA68     		ldr	r2, [r3, #12]
 1710 0128 FB68     		ldr	r3, [r7, #12]
 1711 012a 1B68     		ldr	r3, [r3]
 1712 012c 42F40062 		orr	r2, r2, #2048
 1713 0130 DA60     		str	r2, [r3, #12]
 789:Drivers/STM32L4xx_HAL_Driver/Src/stm32l4xx_hal_tim_ex.c ****     }
 1714              		.loc 1 789 7
 1715 0132 00E0     		b	.L80
 1716              	.L84:
 1717              		.loc 1 793 7
 1718 0134 00BF     		nop
 1719              	.L80:
 794:Drivers/STM32L4xx_HAL_Driver/Src/stm32l4xx_hal_tim_ex.c ****   }
 795:Drivers/STM32L4xx_HAL_Driver/Src/stm32l4xx_hal_tim_ex.c **** 
 796:Drivers/STM32L4xx_HAL_Driver/Src/stm32l4xx_hal_tim_ex.c ****   /* Enable the Capture compare channel N */
 797:Drivers/STM32L4xx_HAL_Driver/Src/stm32l4xx_hal_tim_ex.c ****   TIM_CCxNChannelCmd(htim->Instance, Channel, TIM_CCxN_ENABLE);
 1720              		.loc 1 797 3
 1721 0136 FB68     		ldr	r3, [r7, #12]
 1722 0138 1B68     		ldr	r3, [r3]
 1723 013a 0422     		movs	r2, #4
 1724 013c B968     		ldr	r1, [r7, #8]
 1725 013e 1846     		mov	r0, r3
 1726 0140 FFF7FEFF 		bl	TIM_CCxNChannelCmd
 798:Drivers/STM32L4xx_HAL_Driver/Src/stm32l4xx_hal_tim_ex.c **** 
 799:Drivers/STM32L4xx_HAL_Driver/Src/stm32l4xx_hal_tim_ex.c ****   /* Enable the Main Output */
 800:Drivers/STM32L4xx_HAL_Driver/Src/stm32l4xx_hal_tim_ex.c ****   __HAL_TIM_MOE_ENABLE(htim);
 1727              		.loc 1 800 3
 1728 0144 FB68     		ldr	r3, [r7, #12]
 1729 0146 1B68     		ldr	r3, [r3]
 1730 0148 5A6C     		ldr	r2, [r3, #68]
 1731 014a FB68     		ldr	r3, [r7, #12]
 1732 014c 1B68     		ldr	r3, [r3]
 1733 014e 42F40042 		orr	r2, r2, #32768
 1734 0152 5A64     		str	r2, [r3, #68]
 801:Drivers/STM32L4xx_HAL_Driver/Src/stm32l4xx_hal_tim_ex.c **** 
 802:Drivers/STM32L4xx_HAL_Driver/Src/stm32l4xx_hal_tim_ex.c ****   /* Enable the Peripheral, except in trigger mode where enable is automatically done with trigger 
 803:Drivers/STM32L4xx_HAL_Driver/Src/stm32l4xx_hal_tim_ex.c ****   tmpsmcr = htim->Instance->SMCR & TIM_SMCR_SMS;
 1735              		.loc 1 803 17
 1736 0154 FB68     		ldr	r3, [r7, #12]
 1737 0156 1B68     		ldr	r3, [r3]
ARM GAS  /tmp/cc9IMTcg.s 			page 46


 1738              		.loc 1 803 27
 1739 0158 9A68     		ldr	r2, [r3, #8]
 1740              		.loc 1 803 11
 1741 015a 0E4B     		ldr	r3, .L85+12
 1742 015c 1340     		ands	r3, r3, r2
 1743 015e 7B61     		str	r3, [r7, #20]
 804:Drivers/STM32L4xx_HAL_Driver/Src/stm32l4xx_hal_tim_ex.c ****   if (!IS_TIM_SLAVEMODE_TRIGGER_ENABLED(tmpsmcr))
 1744              		.loc 1 804 6
 1745 0160 7B69     		ldr	r3, [r7, #20]
 1746 0162 062B     		cmp	r3, #6
 1747 0164 0BD0     		beq	.L83
 1748              		.loc 1 804 7 discriminator 1
 1749 0166 7B69     		ldr	r3, [r7, #20]
 1750 0168 B3F5803F 		cmp	r3, #65536
 1751 016c 07D0     		beq	.L83
 805:Drivers/STM32L4xx_HAL_Driver/Src/stm32l4xx_hal_tim_ex.c ****   {
 806:Drivers/STM32L4xx_HAL_Driver/Src/stm32l4xx_hal_tim_ex.c ****     __HAL_TIM_ENABLE(htim);
 1752              		.loc 1 806 5
 1753 016e FB68     		ldr	r3, [r7, #12]
 1754 0170 1B68     		ldr	r3, [r3]
 1755 0172 1A68     		ldr	r2, [r3]
 1756 0174 FB68     		ldr	r3, [r7, #12]
 1757 0176 1B68     		ldr	r3, [r3]
 1758 0178 42F00102 		orr	r2, r2, #1
 1759 017c 1A60     		str	r2, [r3]
 1760              	.L83:
 807:Drivers/STM32L4xx_HAL_Driver/Src/stm32l4xx_hal_tim_ex.c ****   }
 808:Drivers/STM32L4xx_HAL_Driver/Src/stm32l4xx_hal_tim_ex.c **** 
 809:Drivers/STM32L4xx_HAL_Driver/Src/stm32l4xx_hal_tim_ex.c ****   /* Return function status */
 810:Drivers/STM32L4xx_HAL_Driver/Src/stm32l4xx_hal_tim_ex.c ****   return HAL_OK;
 1761              		.loc 1 810 10
 1762 017e 0023     		movs	r3, #0
 1763              	.L72:
 811:Drivers/STM32L4xx_HAL_Driver/Src/stm32l4xx_hal_tim_ex.c **** }
 1764              		.loc 1 811 1
 1765 0180 1846     		mov	r0, r3
 1766 0182 1837     		adds	r7, r7, #24
 1767              	.LCFI75:
 1768              		.cfi_def_cfa_offset 8
 1769 0184 BD46     		mov	sp, r7
 1770              	.LCFI76:
 1771              		.cfi_def_cfa_register 13
 1772              		@ sp needed
 1773 0186 80BD     		pop	{r7, pc}
 1774              	.L86:
 1775              		.align	2
 1776              	.L85:
 1777 0188 00000000 		.word	TIM_DMADelayPulseCplt
 1778 018c 00000000 		.word	TIM_DMADelayPulseHalfCplt
 1779 0190 00000000 		.word	TIM_DMAError
 1780 0194 07000100 		.word	65543
 1781              		.cfi_endproc
 1782              	.LFE144:
 1784              		.section	.text.HAL_TIMEx_OCN_Stop_DMA,"ax",%progbits
 1785              		.align	1
 1786              		.global	HAL_TIMEx_OCN_Stop_DMA
 1787              		.syntax unified
ARM GAS  /tmp/cc9IMTcg.s 			page 47


 1788              		.thumb
 1789              		.thumb_func
 1790              		.fpu fpv4-sp-d16
 1792              	HAL_TIMEx_OCN_Stop_DMA:
 1793              	.LFB145:
 812:Drivers/STM32L4xx_HAL_Driver/Src/stm32l4xx_hal_tim_ex.c **** 
 813:Drivers/STM32L4xx_HAL_Driver/Src/stm32l4xx_hal_tim_ex.c **** /**
 814:Drivers/STM32L4xx_HAL_Driver/Src/stm32l4xx_hal_tim_ex.c ****   * @brief  Stops the TIM Output Compare signal generation in DMA mode
 815:Drivers/STM32L4xx_HAL_Driver/Src/stm32l4xx_hal_tim_ex.c ****   *         on the complementary output.
 816:Drivers/STM32L4xx_HAL_Driver/Src/stm32l4xx_hal_tim_ex.c ****   * @param  htim TIM Output Compare handle
 817:Drivers/STM32L4xx_HAL_Driver/Src/stm32l4xx_hal_tim_ex.c ****   * @param  Channel TIM Channel to be disabled
 818:Drivers/STM32L4xx_HAL_Driver/Src/stm32l4xx_hal_tim_ex.c ****   *          This parameter can be one of the following values:
 819:Drivers/STM32L4xx_HAL_Driver/Src/stm32l4xx_hal_tim_ex.c ****   *            @arg TIM_CHANNEL_1: TIM Channel 1 selected
 820:Drivers/STM32L4xx_HAL_Driver/Src/stm32l4xx_hal_tim_ex.c ****   *            @arg TIM_CHANNEL_2: TIM Channel 2 selected
 821:Drivers/STM32L4xx_HAL_Driver/Src/stm32l4xx_hal_tim_ex.c ****   *            @arg TIM_CHANNEL_3: TIM Channel 3 selected
 822:Drivers/STM32L4xx_HAL_Driver/Src/stm32l4xx_hal_tim_ex.c ****   * @retval HAL status
 823:Drivers/STM32L4xx_HAL_Driver/Src/stm32l4xx_hal_tim_ex.c ****   */
 824:Drivers/STM32L4xx_HAL_Driver/Src/stm32l4xx_hal_tim_ex.c **** HAL_StatusTypeDef HAL_TIMEx_OCN_Stop_DMA(TIM_HandleTypeDef *htim, uint32_t Channel)
 825:Drivers/STM32L4xx_HAL_Driver/Src/stm32l4xx_hal_tim_ex.c **** {
 1794              		.loc 1 825 1
 1795              		.cfi_startproc
 1796              		@ args = 0, pretend = 0, frame = 8
 1797              		@ frame_needed = 1, uses_anonymous_args = 0
 1798 0000 80B5     		push	{r7, lr}
 1799              	.LCFI77:
 1800              		.cfi_def_cfa_offset 8
 1801              		.cfi_offset 7, -8
 1802              		.cfi_offset 14, -4
 1803 0002 82B0     		sub	sp, sp, #8
 1804              	.LCFI78:
 1805              		.cfi_def_cfa_offset 16
 1806 0004 00AF     		add	r7, sp, #0
 1807              	.LCFI79:
 1808              		.cfi_def_cfa_register 7
 1809 0006 7860     		str	r0, [r7, #4]
 1810 0008 3960     		str	r1, [r7]
 826:Drivers/STM32L4xx_HAL_Driver/Src/stm32l4xx_hal_tim_ex.c ****   /* Check the parameters */
 827:Drivers/STM32L4xx_HAL_Driver/Src/stm32l4xx_hal_tim_ex.c ****   assert_param(IS_TIM_CCXN_INSTANCE(htim->Instance, Channel));
 828:Drivers/STM32L4xx_HAL_Driver/Src/stm32l4xx_hal_tim_ex.c **** 
 829:Drivers/STM32L4xx_HAL_Driver/Src/stm32l4xx_hal_tim_ex.c ****   switch (Channel)
 1811              		.loc 1 829 3
 1812 000a 3B68     		ldr	r3, [r7]
 1813 000c 082B     		cmp	r3, #8
 1814 000e 25D0     		beq	.L88
 1815 0010 3B68     		ldr	r3, [r7]
 1816 0012 082B     		cmp	r3, #8
 1817 0014 30D8     		bhi	.L96
 1818 0016 3B68     		ldr	r3, [r7]
 1819 0018 002B     		cmp	r3, #0
 1820 001a 03D0     		beq	.L90
 1821 001c 3B68     		ldr	r3, [r7]
 1822 001e 042B     		cmp	r3, #4
 1823 0020 0ED0     		beq	.L91
 830:Drivers/STM32L4xx_HAL_Driver/Src/stm32l4xx_hal_tim_ex.c ****   {
 831:Drivers/STM32L4xx_HAL_Driver/Src/stm32l4xx_hal_tim_ex.c ****     case TIM_CHANNEL_1:
 832:Drivers/STM32L4xx_HAL_Driver/Src/stm32l4xx_hal_tim_ex.c ****     {
 833:Drivers/STM32L4xx_HAL_Driver/Src/stm32l4xx_hal_tim_ex.c ****       /* Disable the TIM Output Compare DMA request */
ARM GAS  /tmp/cc9IMTcg.s 			page 48


 834:Drivers/STM32L4xx_HAL_Driver/Src/stm32l4xx_hal_tim_ex.c ****       __HAL_TIM_DISABLE_DMA(htim, TIM_DMA_CC1);
 835:Drivers/STM32L4xx_HAL_Driver/Src/stm32l4xx_hal_tim_ex.c ****       (void)HAL_DMA_Abort_IT(htim->hdma[TIM_DMA_ID_CC1]);
 836:Drivers/STM32L4xx_HAL_Driver/Src/stm32l4xx_hal_tim_ex.c ****       break;
 837:Drivers/STM32L4xx_HAL_Driver/Src/stm32l4xx_hal_tim_ex.c ****     }
 838:Drivers/STM32L4xx_HAL_Driver/Src/stm32l4xx_hal_tim_ex.c **** 
 839:Drivers/STM32L4xx_HAL_Driver/Src/stm32l4xx_hal_tim_ex.c ****     case TIM_CHANNEL_2:
 840:Drivers/STM32L4xx_HAL_Driver/Src/stm32l4xx_hal_tim_ex.c ****     {
 841:Drivers/STM32L4xx_HAL_Driver/Src/stm32l4xx_hal_tim_ex.c ****       /* Disable the TIM Output Compare DMA request */
 842:Drivers/STM32L4xx_HAL_Driver/Src/stm32l4xx_hal_tim_ex.c ****       __HAL_TIM_DISABLE_DMA(htim, TIM_DMA_CC2);
 843:Drivers/STM32L4xx_HAL_Driver/Src/stm32l4xx_hal_tim_ex.c ****       (void)HAL_DMA_Abort_IT(htim->hdma[TIM_DMA_ID_CC2]);
 844:Drivers/STM32L4xx_HAL_Driver/Src/stm32l4xx_hal_tim_ex.c ****       break;
 845:Drivers/STM32L4xx_HAL_Driver/Src/stm32l4xx_hal_tim_ex.c ****     }
 846:Drivers/STM32L4xx_HAL_Driver/Src/stm32l4xx_hal_tim_ex.c **** 
 847:Drivers/STM32L4xx_HAL_Driver/Src/stm32l4xx_hal_tim_ex.c ****     case TIM_CHANNEL_3:
 848:Drivers/STM32L4xx_HAL_Driver/Src/stm32l4xx_hal_tim_ex.c ****     {
 849:Drivers/STM32L4xx_HAL_Driver/Src/stm32l4xx_hal_tim_ex.c ****       /* Disable the TIM Output Compare DMA request */
 850:Drivers/STM32L4xx_HAL_Driver/Src/stm32l4xx_hal_tim_ex.c ****       __HAL_TIM_DISABLE_DMA(htim, TIM_DMA_CC3);
 851:Drivers/STM32L4xx_HAL_Driver/Src/stm32l4xx_hal_tim_ex.c ****       (void)HAL_DMA_Abort_IT(htim->hdma[TIM_DMA_ID_CC3]);
 852:Drivers/STM32L4xx_HAL_Driver/Src/stm32l4xx_hal_tim_ex.c ****       break;
 853:Drivers/STM32L4xx_HAL_Driver/Src/stm32l4xx_hal_tim_ex.c ****     }
 854:Drivers/STM32L4xx_HAL_Driver/Src/stm32l4xx_hal_tim_ex.c **** 
 855:Drivers/STM32L4xx_HAL_Driver/Src/stm32l4xx_hal_tim_ex.c ****     default:
 856:Drivers/STM32L4xx_HAL_Driver/Src/stm32l4xx_hal_tim_ex.c ****       break;
 1824              		.loc 1 856 7
 1825 0022 29E0     		b	.L96
 1826              	.L90:
 834:Drivers/STM32L4xx_HAL_Driver/Src/stm32l4xx_hal_tim_ex.c ****       (void)HAL_DMA_Abort_IT(htim->hdma[TIM_DMA_ID_CC1]);
 1827              		.loc 1 834 7
 1828 0024 7B68     		ldr	r3, [r7, #4]
 1829 0026 1B68     		ldr	r3, [r3]
 1830 0028 DA68     		ldr	r2, [r3, #12]
 1831 002a 7B68     		ldr	r3, [r7, #4]
 1832 002c 1B68     		ldr	r3, [r3]
 1833 002e 22F40072 		bic	r2, r2, #512
 1834 0032 DA60     		str	r2, [r3, #12]
 835:Drivers/STM32L4xx_HAL_Driver/Src/stm32l4xx_hal_tim_ex.c ****       break;
 1835              		.loc 1 835 13
 1836 0034 7B68     		ldr	r3, [r7, #4]
 1837 0036 5B6A     		ldr	r3, [r3, #36]
 1838 0038 1846     		mov	r0, r3
 1839 003a FFF7FEFF 		bl	HAL_DMA_Abort_IT
 836:Drivers/STM32L4xx_HAL_Driver/Src/stm32l4xx_hal_tim_ex.c ****     }
 1840              		.loc 1 836 7
 1841 003e 1CE0     		b	.L92
 1842              	.L91:
 842:Drivers/STM32L4xx_HAL_Driver/Src/stm32l4xx_hal_tim_ex.c ****       (void)HAL_DMA_Abort_IT(htim->hdma[TIM_DMA_ID_CC2]);
 1843              		.loc 1 842 7
 1844 0040 7B68     		ldr	r3, [r7, #4]
 1845 0042 1B68     		ldr	r3, [r3]
 1846 0044 DA68     		ldr	r2, [r3, #12]
 1847 0046 7B68     		ldr	r3, [r7, #4]
 1848 0048 1B68     		ldr	r3, [r3]
 1849 004a 22F48062 		bic	r2, r2, #1024
 1850 004e DA60     		str	r2, [r3, #12]
 843:Drivers/STM32L4xx_HAL_Driver/Src/stm32l4xx_hal_tim_ex.c ****       break;
 1851              		.loc 1 843 13
 1852 0050 7B68     		ldr	r3, [r7, #4]
ARM GAS  /tmp/cc9IMTcg.s 			page 49


 1853 0052 9B6A     		ldr	r3, [r3, #40]
 1854 0054 1846     		mov	r0, r3
 1855 0056 FFF7FEFF 		bl	HAL_DMA_Abort_IT
 844:Drivers/STM32L4xx_HAL_Driver/Src/stm32l4xx_hal_tim_ex.c ****     }
 1856              		.loc 1 844 7
 1857 005a 0EE0     		b	.L92
 1858              	.L88:
 850:Drivers/STM32L4xx_HAL_Driver/Src/stm32l4xx_hal_tim_ex.c ****       (void)HAL_DMA_Abort_IT(htim->hdma[TIM_DMA_ID_CC3]);
 1859              		.loc 1 850 7
 1860 005c 7B68     		ldr	r3, [r7, #4]
 1861 005e 1B68     		ldr	r3, [r3]
 1862 0060 DA68     		ldr	r2, [r3, #12]
 1863 0062 7B68     		ldr	r3, [r7, #4]
 1864 0064 1B68     		ldr	r3, [r3]
 1865 0066 22F40062 		bic	r2, r2, #2048
 1866 006a DA60     		str	r2, [r3, #12]
 851:Drivers/STM32L4xx_HAL_Driver/Src/stm32l4xx_hal_tim_ex.c ****       break;
 1867              		.loc 1 851 13
 1868 006c 7B68     		ldr	r3, [r7, #4]
 1869 006e DB6A     		ldr	r3, [r3, #44]
 1870 0070 1846     		mov	r0, r3
 1871 0072 FFF7FEFF 		bl	HAL_DMA_Abort_IT
 852:Drivers/STM32L4xx_HAL_Driver/Src/stm32l4xx_hal_tim_ex.c ****     }
 1872              		.loc 1 852 7
 1873 0076 00E0     		b	.L92
 1874              	.L96:
 1875              		.loc 1 856 7
 1876 0078 00BF     		nop
 1877              	.L92:
 857:Drivers/STM32L4xx_HAL_Driver/Src/stm32l4xx_hal_tim_ex.c ****   }
 858:Drivers/STM32L4xx_HAL_Driver/Src/stm32l4xx_hal_tim_ex.c **** 
 859:Drivers/STM32L4xx_HAL_Driver/Src/stm32l4xx_hal_tim_ex.c ****   /* Disable the Capture compare channel N */
 860:Drivers/STM32L4xx_HAL_Driver/Src/stm32l4xx_hal_tim_ex.c ****   TIM_CCxNChannelCmd(htim->Instance, Channel, TIM_CCxN_DISABLE);
 1878              		.loc 1 860 3
 1879 007a 7B68     		ldr	r3, [r7, #4]
 1880 007c 1B68     		ldr	r3, [r3]
 1881 007e 0022     		movs	r2, #0
 1882 0080 3968     		ldr	r1, [r7]
 1883 0082 1846     		mov	r0, r3
 1884 0084 FFF7FEFF 		bl	TIM_CCxNChannelCmd
 861:Drivers/STM32L4xx_HAL_Driver/Src/stm32l4xx_hal_tim_ex.c **** 
 862:Drivers/STM32L4xx_HAL_Driver/Src/stm32l4xx_hal_tim_ex.c ****   /* Disable the Main Output */
 863:Drivers/STM32L4xx_HAL_Driver/Src/stm32l4xx_hal_tim_ex.c ****   __HAL_TIM_MOE_DISABLE(htim);
 1885              		.loc 1 863 3
 1886 0088 7B68     		ldr	r3, [r7, #4]
 1887 008a 1B68     		ldr	r3, [r3]
 1888 008c 1A6A     		ldr	r2, [r3, #32]
 1889 008e 41F21113 		movw	r3, #4369
 1890 0092 1340     		ands	r3, r3, r2
 1891 0094 002B     		cmp	r3, #0
 1892 0096 0FD1     		bne	.L93
 1893              		.loc 1 863 3 is_stmt 0 discriminator 1
 1894 0098 7B68     		ldr	r3, [r7, #4]
 1895 009a 1B68     		ldr	r3, [r3]
 1896 009c 1A6A     		ldr	r2, [r3, #32]
 1897 009e 40F24443 		movw	r3, #1092
 1898 00a2 1340     		ands	r3, r3, r2
ARM GAS  /tmp/cc9IMTcg.s 			page 50


 1899 00a4 002B     		cmp	r3, #0
 1900 00a6 07D1     		bne	.L93
 1901              		.loc 1 863 3 discriminator 2
 1902 00a8 7B68     		ldr	r3, [r7, #4]
 1903 00aa 1B68     		ldr	r3, [r3]
 1904 00ac 5A6C     		ldr	r2, [r3, #68]
 1905 00ae 7B68     		ldr	r3, [r7, #4]
 1906 00b0 1B68     		ldr	r3, [r3]
 1907 00b2 22F40042 		bic	r2, r2, #32768
 1908 00b6 5A64     		str	r2, [r3, #68]
 1909              	.L93:
 864:Drivers/STM32L4xx_HAL_Driver/Src/stm32l4xx_hal_tim_ex.c **** 
 865:Drivers/STM32L4xx_HAL_Driver/Src/stm32l4xx_hal_tim_ex.c ****   /* Disable the Peripheral */
 866:Drivers/STM32L4xx_HAL_Driver/Src/stm32l4xx_hal_tim_ex.c ****   __HAL_TIM_DISABLE(htim);
 1910              		.loc 1 866 3 is_stmt 1
 1911 00b8 7B68     		ldr	r3, [r7, #4]
 1912 00ba 1B68     		ldr	r3, [r3]
 1913 00bc 1A6A     		ldr	r2, [r3, #32]
 1914 00be 41F21113 		movw	r3, #4369
 1915 00c2 1340     		ands	r3, r3, r2
 1916 00c4 002B     		cmp	r3, #0
 1917 00c6 0FD1     		bne	.L94
 1918              		.loc 1 866 3 is_stmt 0 discriminator 1
 1919 00c8 7B68     		ldr	r3, [r7, #4]
 1920 00ca 1B68     		ldr	r3, [r3]
 1921 00cc 1A6A     		ldr	r2, [r3, #32]
 1922 00ce 40F24443 		movw	r3, #1092
 1923 00d2 1340     		ands	r3, r3, r2
 1924 00d4 002B     		cmp	r3, #0
 1925 00d6 07D1     		bne	.L94
 1926              		.loc 1 866 3 discriminator 2
 1927 00d8 7B68     		ldr	r3, [r7, #4]
 1928 00da 1B68     		ldr	r3, [r3]
 1929 00dc 1A68     		ldr	r2, [r3]
 1930 00de 7B68     		ldr	r3, [r7, #4]
 1931 00e0 1B68     		ldr	r3, [r3]
 1932 00e2 22F00102 		bic	r2, r2, #1
 1933 00e6 1A60     		str	r2, [r3]
 1934              	.L94:
 867:Drivers/STM32L4xx_HAL_Driver/Src/stm32l4xx_hal_tim_ex.c **** 
 868:Drivers/STM32L4xx_HAL_Driver/Src/stm32l4xx_hal_tim_ex.c ****   /* Change the htim state */
 869:Drivers/STM32L4xx_HAL_Driver/Src/stm32l4xx_hal_tim_ex.c ****   htim->State = HAL_TIM_STATE_READY;
 1935              		.loc 1 869 15 is_stmt 1
 1936 00e8 7B68     		ldr	r3, [r7, #4]
 1937 00ea 0122     		movs	r2, #1
 1938 00ec 83F83D20 		strb	r2, [r3, #61]
 870:Drivers/STM32L4xx_HAL_Driver/Src/stm32l4xx_hal_tim_ex.c **** 
 871:Drivers/STM32L4xx_HAL_Driver/Src/stm32l4xx_hal_tim_ex.c ****   /* Return function status */
 872:Drivers/STM32L4xx_HAL_Driver/Src/stm32l4xx_hal_tim_ex.c ****   return HAL_OK;
 1939              		.loc 1 872 10
 1940 00f0 0023     		movs	r3, #0
 873:Drivers/STM32L4xx_HAL_Driver/Src/stm32l4xx_hal_tim_ex.c **** }
 1941              		.loc 1 873 1
 1942 00f2 1846     		mov	r0, r3
 1943 00f4 0837     		adds	r7, r7, #8
 1944              	.LCFI80:
 1945              		.cfi_def_cfa_offset 8
ARM GAS  /tmp/cc9IMTcg.s 			page 51


 1946 00f6 BD46     		mov	sp, r7
 1947              	.LCFI81:
 1948              		.cfi_def_cfa_register 13
 1949              		@ sp needed
 1950 00f8 80BD     		pop	{r7, pc}
 1951              		.cfi_endproc
 1952              	.LFE145:
 1954              		.section	.text.HAL_TIMEx_PWMN_Start,"ax",%progbits
 1955              		.align	1
 1956              		.global	HAL_TIMEx_PWMN_Start
 1957              		.syntax unified
 1958              		.thumb
 1959              		.thumb_func
 1960              		.fpu fpv4-sp-d16
 1962              	HAL_TIMEx_PWMN_Start:
 1963              	.LFB146:
 874:Drivers/STM32L4xx_HAL_Driver/Src/stm32l4xx_hal_tim_ex.c **** 
 875:Drivers/STM32L4xx_HAL_Driver/Src/stm32l4xx_hal_tim_ex.c **** /**
 876:Drivers/STM32L4xx_HAL_Driver/Src/stm32l4xx_hal_tim_ex.c ****   * @}
 877:Drivers/STM32L4xx_HAL_Driver/Src/stm32l4xx_hal_tim_ex.c ****   */
 878:Drivers/STM32L4xx_HAL_Driver/Src/stm32l4xx_hal_tim_ex.c **** 
 879:Drivers/STM32L4xx_HAL_Driver/Src/stm32l4xx_hal_tim_ex.c **** /** @defgroup TIMEx_Exported_Functions_Group3 Extended Timer Complementary PWM functions
 880:Drivers/STM32L4xx_HAL_Driver/Src/stm32l4xx_hal_tim_ex.c ****   * @brief    Timer Complementary PWM functions
 881:Drivers/STM32L4xx_HAL_Driver/Src/stm32l4xx_hal_tim_ex.c ****   *
 882:Drivers/STM32L4xx_HAL_Driver/Src/stm32l4xx_hal_tim_ex.c **** @verbatim
 883:Drivers/STM32L4xx_HAL_Driver/Src/stm32l4xx_hal_tim_ex.c ****   ==============================================================================
 884:Drivers/STM32L4xx_HAL_Driver/Src/stm32l4xx_hal_tim_ex.c ****                  ##### Timer Complementary PWM functions #####
 885:Drivers/STM32L4xx_HAL_Driver/Src/stm32l4xx_hal_tim_ex.c ****   ==============================================================================
 886:Drivers/STM32L4xx_HAL_Driver/Src/stm32l4xx_hal_tim_ex.c ****   [..]
 887:Drivers/STM32L4xx_HAL_Driver/Src/stm32l4xx_hal_tim_ex.c ****     This section provides functions allowing to:
 888:Drivers/STM32L4xx_HAL_Driver/Src/stm32l4xx_hal_tim_ex.c ****     (+) Start the Complementary PWM.
 889:Drivers/STM32L4xx_HAL_Driver/Src/stm32l4xx_hal_tim_ex.c ****     (+) Stop the Complementary PWM.
 890:Drivers/STM32L4xx_HAL_Driver/Src/stm32l4xx_hal_tim_ex.c ****     (+) Start the Complementary PWM and enable interrupts.
 891:Drivers/STM32L4xx_HAL_Driver/Src/stm32l4xx_hal_tim_ex.c ****     (+) Stop the Complementary PWM and disable interrupts.
 892:Drivers/STM32L4xx_HAL_Driver/Src/stm32l4xx_hal_tim_ex.c ****     (+) Start the Complementary PWM and enable DMA transfers.
 893:Drivers/STM32L4xx_HAL_Driver/Src/stm32l4xx_hal_tim_ex.c ****     (+) Stop the Complementary PWM and disable DMA transfers.
 894:Drivers/STM32L4xx_HAL_Driver/Src/stm32l4xx_hal_tim_ex.c ****     (+) Start the Complementary Input Capture measurement.
 895:Drivers/STM32L4xx_HAL_Driver/Src/stm32l4xx_hal_tim_ex.c ****     (+) Stop the Complementary Input Capture.
 896:Drivers/STM32L4xx_HAL_Driver/Src/stm32l4xx_hal_tim_ex.c ****     (+) Start the Complementary Input Capture and enable interrupts.
 897:Drivers/STM32L4xx_HAL_Driver/Src/stm32l4xx_hal_tim_ex.c ****     (+) Stop the Complementary Input Capture and disable interrupts.
 898:Drivers/STM32L4xx_HAL_Driver/Src/stm32l4xx_hal_tim_ex.c ****     (+) Start the Complementary Input Capture and enable DMA transfers.
 899:Drivers/STM32L4xx_HAL_Driver/Src/stm32l4xx_hal_tim_ex.c ****     (+) Stop the Complementary Input Capture and disable DMA transfers.
 900:Drivers/STM32L4xx_HAL_Driver/Src/stm32l4xx_hal_tim_ex.c ****     (+) Start the Complementary One Pulse generation.
 901:Drivers/STM32L4xx_HAL_Driver/Src/stm32l4xx_hal_tim_ex.c ****     (+) Stop the Complementary One Pulse.
 902:Drivers/STM32L4xx_HAL_Driver/Src/stm32l4xx_hal_tim_ex.c ****     (+) Start the Complementary One Pulse and enable interrupts.
 903:Drivers/STM32L4xx_HAL_Driver/Src/stm32l4xx_hal_tim_ex.c ****     (+) Stop the Complementary One Pulse and disable interrupts.
 904:Drivers/STM32L4xx_HAL_Driver/Src/stm32l4xx_hal_tim_ex.c **** 
 905:Drivers/STM32L4xx_HAL_Driver/Src/stm32l4xx_hal_tim_ex.c **** @endverbatim
 906:Drivers/STM32L4xx_HAL_Driver/Src/stm32l4xx_hal_tim_ex.c ****   * @{
 907:Drivers/STM32L4xx_HAL_Driver/Src/stm32l4xx_hal_tim_ex.c ****   */
 908:Drivers/STM32L4xx_HAL_Driver/Src/stm32l4xx_hal_tim_ex.c **** 
 909:Drivers/STM32L4xx_HAL_Driver/Src/stm32l4xx_hal_tim_ex.c **** /**
 910:Drivers/STM32L4xx_HAL_Driver/Src/stm32l4xx_hal_tim_ex.c ****   * @brief  Starts the PWM signal generation on the complementary output.
 911:Drivers/STM32L4xx_HAL_Driver/Src/stm32l4xx_hal_tim_ex.c ****   * @param  htim TIM handle
 912:Drivers/STM32L4xx_HAL_Driver/Src/stm32l4xx_hal_tim_ex.c ****   * @param  Channel TIM Channel to be enabled
 913:Drivers/STM32L4xx_HAL_Driver/Src/stm32l4xx_hal_tim_ex.c ****   *          This parameter can be one of the following values:
 914:Drivers/STM32L4xx_HAL_Driver/Src/stm32l4xx_hal_tim_ex.c ****   *            @arg TIM_CHANNEL_1: TIM Channel 1 selected
ARM GAS  /tmp/cc9IMTcg.s 			page 52


 915:Drivers/STM32L4xx_HAL_Driver/Src/stm32l4xx_hal_tim_ex.c ****   *            @arg TIM_CHANNEL_2: TIM Channel 2 selected
 916:Drivers/STM32L4xx_HAL_Driver/Src/stm32l4xx_hal_tim_ex.c ****   *            @arg TIM_CHANNEL_3: TIM Channel 3 selected
 917:Drivers/STM32L4xx_HAL_Driver/Src/stm32l4xx_hal_tim_ex.c ****   * @retval HAL status
 918:Drivers/STM32L4xx_HAL_Driver/Src/stm32l4xx_hal_tim_ex.c ****   */
 919:Drivers/STM32L4xx_HAL_Driver/Src/stm32l4xx_hal_tim_ex.c **** HAL_StatusTypeDef HAL_TIMEx_PWMN_Start(TIM_HandleTypeDef *htim, uint32_t Channel)
 920:Drivers/STM32L4xx_HAL_Driver/Src/stm32l4xx_hal_tim_ex.c **** {
 1964              		.loc 1 920 1
 1965              		.cfi_startproc
 1966              		@ args = 0, pretend = 0, frame = 16
 1967              		@ frame_needed = 1, uses_anonymous_args = 0
 1968 0000 80B5     		push	{r7, lr}
 1969              	.LCFI82:
 1970              		.cfi_def_cfa_offset 8
 1971              		.cfi_offset 7, -8
 1972              		.cfi_offset 14, -4
 1973 0002 84B0     		sub	sp, sp, #16
 1974              	.LCFI83:
 1975              		.cfi_def_cfa_offset 24
 1976 0004 00AF     		add	r7, sp, #0
 1977              	.LCFI84:
 1978              		.cfi_def_cfa_register 7
 1979 0006 7860     		str	r0, [r7, #4]
 1980 0008 3960     		str	r1, [r7]
 921:Drivers/STM32L4xx_HAL_Driver/Src/stm32l4xx_hal_tim_ex.c ****   uint32_t tmpsmcr;
 922:Drivers/STM32L4xx_HAL_Driver/Src/stm32l4xx_hal_tim_ex.c **** 
 923:Drivers/STM32L4xx_HAL_Driver/Src/stm32l4xx_hal_tim_ex.c ****   /* Check the parameters */
 924:Drivers/STM32L4xx_HAL_Driver/Src/stm32l4xx_hal_tim_ex.c ****   assert_param(IS_TIM_CCXN_INSTANCE(htim->Instance, Channel));
 925:Drivers/STM32L4xx_HAL_Driver/Src/stm32l4xx_hal_tim_ex.c **** 
 926:Drivers/STM32L4xx_HAL_Driver/Src/stm32l4xx_hal_tim_ex.c ****   /* Enable the complementary PWM output  */
 927:Drivers/STM32L4xx_HAL_Driver/Src/stm32l4xx_hal_tim_ex.c ****   TIM_CCxNChannelCmd(htim->Instance, Channel, TIM_CCxN_ENABLE);
 1981              		.loc 1 927 3
 1982 000a 7B68     		ldr	r3, [r7, #4]
 1983 000c 1B68     		ldr	r3, [r3]
 1984 000e 0422     		movs	r2, #4
 1985 0010 3968     		ldr	r1, [r7]
 1986 0012 1846     		mov	r0, r3
 1987 0014 FFF7FEFF 		bl	TIM_CCxNChannelCmd
 928:Drivers/STM32L4xx_HAL_Driver/Src/stm32l4xx_hal_tim_ex.c **** 
 929:Drivers/STM32L4xx_HAL_Driver/Src/stm32l4xx_hal_tim_ex.c ****   /* Enable the Main Output */
 930:Drivers/STM32L4xx_HAL_Driver/Src/stm32l4xx_hal_tim_ex.c ****   __HAL_TIM_MOE_ENABLE(htim);
 1988              		.loc 1 930 3
 1989 0018 7B68     		ldr	r3, [r7, #4]
 1990 001a 1B68     		ldr	r3, [r3]
 1991 001c 5A6C     		ldr	r2, [r3, #68]
 1992 001e 7B68     		ldr	r3, [r7, #4]
 1993 0020 1B68     		ldr	r3, [r3]
 1994 0022 42F40042 		orr	r2, r2, #32768
 1995 0026 5A64     		str	r2, [r3, #68]
 931:Drivers/STM32L4xx_HAL_Driver/Src/stm32l4xx_hal_tim_ex.c **** 
 932:Drivers/STM32L4xx_HAL_Driver/Src/stm32l4xx_hal_tim_ex.c ****   /* Enable the Peripheral, except in trigger mode where enable is automatically done with trigger 
 933:Drivers/STM32L4xx_HAL_Driver/Src/stm32l4xx_hal_tim_ex.c ****   tmpsmcr = htim->Instance->SMCR & TIM_SMCR_SMS;
 1996              		.loc 1 933 17
 1997 0028 7B68     		ldr	r3, [r7, #4]
 1998 002a 1B68     		ldr	r3, [r3]
 1999              		.loc 1 933 27
 2000 002c 9A68     		ldr	r2, [r3, #8]
 2001              		.loc 1 933 11
ARM GAS  /tmp/cc9IMTcg.s 			page 53


 2002 002e 0B4B     		ldr	r3, .L100
 2003 0030 1340     		ands	r3, r3, r2
 2004 0032 FB60     		str	r3, [r7, #12]
 934:Drivers/STM32L4xx_HAL_Driver/Src/stm32l4xx_hal_tim_ex.c ****   if (!IS_TIM_SLAVEMODE_TRIGGER_ENABLED(tmpsmcr))
 2005              		.loc 1 934 6
 2006 0034 FB68     		ldr	r3, [r7, #12]
 2007 0036 062B     		cmp	r3, #6
 2008 0038 0BD0     		beq	.L98
 2009              		.loc 1 934 7 discriminator 1
 2010 003a FB68     		ldr	r3, [r7, #12]
 2011 003c B3F5803F 		cmp	r3, #65536
 2012 0040 07D0     		beq	.L98
 935:Drivers/STM32L4xx_HAL_Driver/Src/stm32l4xx_hal_tim_ex.c ****   {
 936:Drivers/STM32L4xx_HAL_Driver/Src/stm32l4xx_hal_tim_ex.c ****     __HAL_TIM_ENABLE(htim);
 2013              		.loc 1 936 5
 2014 0042 7B68     		ldr	r3, [r7, #4]
 2015 0044 1B68     		ldr	r3, [r3]
 2016 0046 1A68     		ldr	r2, [r3]
 2017 0048 7B68     		ldr	r3, [r7, #4]
 2018 004a 1B68     		ldr	r3, [r3]
 2019 004c 42F00102 		orr	r2, r2, #1
 2020 0050 1A60     		str	r2, [r3]
 2021              	.L98:
 937:Drivers/STM32L4xx_HAL_Driver/Src/stm32l4xx_hal_tim_ex.c ****   }
 938:Drivers/STM32L4xx_HAL_Driver/Src/stm32l4xx_hal_tim_ex.c **** 
 939:Drivers/STM32L4xx_HAL_Driver/Src/stm32l4xx_hal_tim_ex.c ****   /* Return function status */
 940:Drivers/STM32L4xx_HAL_Driver/Src/stm32l4xx_hal_tim_ex.c ****   return HAL_OK;
 2022              		.loc 1 940 10
 2023 0052 0023     		movs	r3, #0
 941:Drivers/STM32L4xx_HAL_Driver/Src/stm32l4xx_hal_tim_ex.c **** }
 2024              		.loc 1 941 1
 2025 0054 1846     		mov	r0, r3
 2026 0056 1037     		adds	r7, r7, #16
 2027              	.LCFI85:
 2028              		.cfi_def_cfa_offset 8
 2029 0058 BD46     		mov	sp, r7
 2030              	.LCFI86:
 2031              		.cfi_def_cfa_register 13
 2032              		@ sp needed
 2033 005a 80BD     		pop	{r7, pc}
 2034              	.L101:
 2035              		.align	2
 2036              	.L100:
 2037 005c 07000100 		.word	65543
 2038              		.cfi_endproc
 2039              	.LFE146:
 2041              		.section	.text.HAL_TIMEx_PWMN_Stop,"ax",%progbits
 2042              		.align	1
 2043              		.global	HAL_TIMEx_PWMN_Stop
 2044              		.syntax unified
 2045              		.thumb
 2046              		.thumb_func
 2047              		.fpu fpv4-sp-d16
 2049              	HAL_TIMEx_PWMN_Stop:
 2050              	.LFB147:
 942:Drivers/STM32L4xx_HAL_Driver/Src/stm32l4xx_hal_tim_ex.c **** 
 943:Drivers/STM32L4xx_HAL_Driver/Src/stm32l4xx_hal_tim_ex.c **** /**
ARM GAS  /tmp/cc9IMTcg.s 			page 54


 944:Drivers/STM32L4xx_HAL_Driver/Src/stm32l4xx_hal_tim_ex.c ****   * @brief  Stops the PWM signal generation on the complementary output.
 945:Drivers/STM32L4xx_HAL_Driver/Src/stm32l4xx_hal_tim_ex.c ****   * @param  htim TIM handle
 946:Drivers/STM32L4xx_HAL_Driver/Src/stm32l4xx_hal_tim_ex.c ****   * @param  Channel TIM Channel to be disabled
 947:Drivers/STM32L4xx_HAL_Driver/Src/stm32l4xx_hal_tim_ex.c ****   *          This parameter can be one of the following values:
 948:Drivers/STM32L4xx_HAL_Driver/Src/stm32l4xx_hal_tim_ex.c ****   *            @arg TIM_CHANNEL_1: TIM Channel 1 selected
 949:Drivers/STM32L4xx_HAL_Driver/Src/stm32l4xx_hal_tim_ex.c ****   *            @arg TIM_CHANNEL_2: TIM Channel 2 selected
 950:Drivers/STM32L4xx_HAL_Driver/Src/stm32l4xx_hal_tim_ex.c ****   *            @arg TIM_CHANNEL_3: TIM Channel 3 selected
 951:Drivers/STM32L4xx_HAL_Driver/Src/stm32l4xx_hal_tim_ex.c ****   * @retval HAL status
 952:Drivers/STM32L4xx_HAL_Driver/Src/stm32l4xx_hal_tim_ex.c ****   */
 953:Drivers/STM32L4xx_HAL_Driver/Src/stm32l4xx_hal_tim_ex.c **** HAL_StatusTypeDef HAL_TIMEx_PWMN_Stop(TIM_HandleTypeDef *htim, uint32_t Channel)
 954:Drivers/STM32L4xx_HAL_Driver/Src/stm32l4xx_hal_tim_ex.c **** {
 2051              		.loc 1 954 1
 2052              		.cfi_startproc
 2053              		@ args = 0, pretend = 0, frame = 8
 2054              		@ frame_needed = 1, uses_anonymous_args = 0
 2055 0000 80B5     		push	{r7, lr}
 2056              	.LCFI87:
 2057              		.cfi_def_cfa_offset 8
 2058              		.cfi_offset 7, -8
 2059              		.cfi_offset 14, -4
 2060 0002 82B0     		sub	sp, sp, #8
 2061              	.LCFI88:
 2062              		.cfi_def_cfa_offset 16
 2063 0004 00AF     		add	r7, sp, #0
 2064              	.LCFI89:
 2065              		.cfi_def_cfa_register 7
 2066 0006 7860     		str	r0, [r7, #4]
 2067 0008 3960     		str	r1, [r7]
 955:Drivers/STM32L4xx_HAL_Driver/Src/stm32l4xx_hal_tim_ex.c ****   /* Check the parameters */
 956:Drivers/STM32L4xx_HAL_Driver/Src/stm32l4xx_hal_tim_ex.c ****   assert_param(IS_TIM_CCXN_INSTANCE(htim->Instance, Channel));
 957:Drivers/STM32L4xx_HAL_Driver/Src/stm32l4xx_hal_tim_ex.c **** 
 958:Drivers/STM32L4xx_HAL_Driver/Src/stm32l4xx_hal_tim_ex.c ****   /* Disable the complementary PWM output  */
 959:Drivers/STM32L4xx_HAL_Driver/Src/stm32l4xx_hal_tim_ex.c ****   TIM_CCxNChannelCmd(htim->Instance, Channel, TIM_CCxN_DISABLE);
 2068              		.loc 1 959 3
 2069 000a 7B68     		ldr	r3, [r7, #4]
 2070 000c 1B68     		ldr	r3, [r3]
 2071 000e 0022     		movs	r2, #0
 2072 0010 3968     		ldr	r1, [r7]
 2073 0012 1846     		mov	r0, r3
 2074 0014 FFF7FEFF 		bl	TIM_CCxNChannelCmd
 960:Drivers/STM32L4xx_HAL_Driver/Src/stm32l4xx_hal_tim_ex.c **** 
 961:Drivers/STM32L4xx_HAL_Driver/Src/stm32l4xx_hal_tim_ex.c ****   /* Disable the Main Output */
 962:Drivers/STM32L4xx_HAL_Driver/Src/stm32l4xx_hal_tim_ex.c ****   __HAL_TIM_MOE_DISABLE(htim);
 2075              		.loc 1 962 3
 2076 0018 7B68     		ldr	r3, [r7, #4]
 2077 001a 1B68     		ldr	r3, [r3]
 2078 001c 1A6A     		ldr	r2, [r3, #32]
 2079 001e 41F21113 		movw	r3, #4369
 2080 0022 1340     		ands	r3, r3, r2
 2081 0024 002B     		cmp	r3, #0
 2082 0026 0FD1     		bne	.L103
 2083              		.loc 1 962 3 is_stmt 0 discriminator 1
 2084 0028 7B68     		ldr	r3, [r7, #4]
 2085 002a 1B68     		ldr	r3, [r3]
 2086 002c 1A6A     		ldr	r2, [r3, #32]
 2087 002e 40F24443 		movw	r3, #1092
 2088 0032 1340     		ands	r3, r3, r2
ARM GAS  /tmp/cc9IMTcg.s 			page 55


 2089 0034 002B     		cmp	r3, #0
 2090 0036 07D1     		bne	.L103
 2091              		.loc 1 962 3 discriminator 2
 2092 0038 7B68     		ldr	r3, [r7, #4]
 2093 003a 1B68     		ldr	r3, [r3]
 2094 003c 5A6C     		ldr	r2, [r3, #68]
 2095 003e 7B68     		ldr	r3, [r7, #4]
 2096 0040 1B68     		ldr	r3, [r3]
 2097 0042 22F40042 		bic	r2, r2, #32768
 2098 0046 5A64     		str	r2, [r3, #68]
 2099              	.L103:
 963:Drivers/STM32L4xx_HAL_Driver/Src/stm32l4xx_hal_tim_ex.c **** 
 964:Drivers/STM32L4xx_HAL_Driver/Src/stm32l4xx_hal_tim_ex.c ****   /* Disable the Peripheral */
 965:Drivers/STM32L4xx_HAL_Driver/Src/stm32l4xx_hal_tim_ex.c ****   __HAL_TIM_DISABLE(htim);
 2100              		.loc 1 965 3 is_stmt 1
 2101 0048 7B68     		ldr	r3, [r7, #4]
 2102 004a 1B68     		ldr	r3, [r3]
 2103 004c 1A6A     		ldr	r2, [r3, #32]
 2104 004e 41F21113 		movw	r3, #4369
 2105 0052 1340     		ands	r3, r3, r2
 2106 0054 002B     		cmp	r3, #0
 2107 0056 0FD1     		bne	.L104
 2108              		.loc 1 965 3 is_stmt 0 discriminator 1
 2109 0058 7B68     		ldr	r3, [r7, #4]
 2110 005a 1B68     		ldr	r3, [r3]
 2111 005c 1A6A     		ldr	r2, [r3, #32]
 2112 005e 40F24443 		movw	r3, #1092
 2113 0062 1340     		ands	r3, r3, r2
 2114 0064 002B     		cmp	r3, #0
 2115 0066 07D1     		bne	.L104
 2116              		.loc 1 965 3 discriminator 2
 2117 0068 7B68     		ldr	r3, [r7, #4]
 2118 006a 1B68     		ldr	r3, [r3]
 2119 006c 1A68     		ldr	r2, [r3]
 2120 006e 7B68     		ldr	r3, [r7, #4]
 2121 0070 1B68     		ldr	r3, [r3]
 2122 0072 22F00102 		bic	r2, r2, #1
 2123 0076 1A60     		str	r2, [r3]
 2124              	.L104:
 966:Drivers/STM32L4xx_HAL_Driver/Src/stm32l4xx_hal_tim_ex.c **** 
 967:Drivers/STM32L4xx_HAL_Driver/Src/stm32l4xx_hal_tim_ex.c ****   /* Return function status */
 968:Drivers/STM32L4xx_HAL_Driver/Src/stm32l4xx_hal_tim_ex.c ****   return HAL_OK;
 2125              		.loc 1 968 10 is_stmt 1
 2126 0078 0023     		movs	r3, #0
 969:Drivers/STM32L4xx_HAL_Driver/Src/stm32l4xx_hal_tim_ex.c **** }
 2127              		.loc 1 969 1
 2128 007a 1846     		mov	r0, r3
 2129 007c 0837     		adds	r7, r7, #8
 2130              	.LCFI90:
 2131              		.cfi_def_cfa_offset 8
 2132 007e BD46     		mov	sp, r7
 2133              	.LCFI91:
 2134              		.cfi_def_cfa_register 13
 2135              		@ sp needed
 2136 0080 80BD     		pop	{r7, pc}
 2137              		.cfi_endproc
 2138              	.LFE147:
ARM GAS  /tmp/cc9IMTcg.s 			page 56


 2140              		.section	.text.HAL_TIMEx_PWMN_Start_IT,"ax",%progbits
 2141              		.align	1
 2142              		.global	HAL_TIMEx_PWMN_Start_IT
 2143              		.syntax unified
 2144              		.thumb
 2145              		.thumb_func
 2146              		.fpu fpv4-sp-d16
 2148              	HAL_TIMEx_PWMN_Start_IT:
 2149              	.LFB148:
 970:Drivers/STM32L4xx_HAL_Driver/Src/stm32l4xx_hal_tim_ex.c **** 
 971:Drivers/STM32L4xx_HAL_Driver/Src/stm32l4xx_hal_tim_ex.c **** /**
 972:Drivers/STM32L4xx_HAL_Driver/Src/stm32l4xx_hal_tim_ex.c ****   * @brief  Starts the PWM signal generation in interrupt mode on the
 973:Drivers/STM32L4xx_HAL_Driver/Src/stm32l4xx_hal_tim_ex.c ****   *         complementary output.
 974:Drivers/STM32L4xx_HAL_Driver/Src/stm32l4xx_hal_tim_ex.c ****   * @param  htim TIM handle
 975:Drivers/STM32L4xx_HAL_Driver/Src/stm32l4xx_hal_tim_ex.c ****   * @param  Channel TIM Channel to be disabled
 976:Drivers/STM32L4xx_HAL_Driver/Src/stm32l4xx_hal_tim_ex.c ****   *          This parameter can be one of the following values:
 977:Drivers/STM32L4xx_HAL_Driver/Src/stm32l4xx_hal_tim_ex.c ****   *            @arg TIM_CHANNEL_1: TIM Channel 1 selected
 978:Drivers/STM32L4xx_HAL_Driver/Src/stm32l4xx_hal_tim_ex.c ****   *            @arg TIM_CHANNEL_2: TIM Channel 2 selected
 979:Drivers/STM32L4xx_HAL_Driver/Src/stm32l4xx_hal_tim_ex.c ****   *            @arg TIM_CHANNEL_3: TIM Channel 3 selected
 980:Drivers/STM32L4xx_HAL_Driver/Src/stm32l4xx_hal_tim_ex.c ****   * @retval HAL status
 981:Drivers/STM32L4xx_HAL_Driver/Src/stm32l4xx_hal_tim_ex.c ****   */
 982:Drivers/STM32L4xx_HAL_Driver/Src/stm32l4xx_hal_tim_ex.c **** HAL_StatusTypeDef HAL_TIMEx_PWMN_Start_IT(TIM_HandleTypeDef *htim, uint32_t Channel)
 983:Drivers/STM32L4xx_HAL_Driver/Src/stm32l4xx_hal_tim_ex.c **** {
 2150              		.loc 1 983 1
 2151              		.cfi_startproc
 2152              		@ args = 0, pretend = 0, frame = 16
 2153              		@ frame_needed = 1, uses_anonymous_args = 0
 2154 0000 80B5     		push	{r7, lr}
 2155              	.LCFI92:
 2156              		.cfi_def_cfa_offset 8
 2157              		.cfi_offset 7, -8
 2158              		.cfi_offset 14, -4
 2159 0002 84B0     		sub	sp, sp, #16
 2160              	.LCFI93:
 2161              		.cfi_def_cfa_offset 24
 2162 0004 00AF     		add	r7, sp, #0
 2163              	.LCFI94:
 2164              		.cfi_def_cfa_register 7
 2165 0006 7860     		str	r0, [r7, #4]
 2166 0008 3960     		str	r1, [r7]
 984:Drivers/STM32L4xx_HAL_Driver/Src/stm32l4xx_hal_tim_ex.c ****   uint32_t tmpsmcr;
 985:Drivers/STM32L4xx_HAL_Driver/Src/stm32l4xx_hal_tim_ex.c **** 
 986:Drivers/STM32L4xx_HAL_Driver/Src/stm32l4xx_hal_tim_ex.c ****   /* Check the parameters */
 987:Drivers/STM32L4xx_HAL_Driver/Src/stm32l4xx_hal_tim_ex.c ****   assert_param(IS_TIM_CCXN_INSTANCE(htim->Instance, Channel));
 988:Drivers/STM32L4xx_HAL_Driver/Src/stm32l4xx_hal_tim_ex.c **** 
 989:Drivers/STM32L4xx_HAL_Driver/Src/stm32l4xx_hal_tim_ex.c ****   switch (Channel)
 2167              		.loc 1 989 3
 2168 000a 3B68     		ldr	r3, [r7]
 2169 000c 082B     		cmp	r3, #8
 2170 000e 1BD0     		beq	.L107
 2171 0010 3B68     		ldr	r3, [r7]
 2172 0012 082B     		cmp	r3, #8
 2173 0014 21D8     		bhi	.L114
 2174 0016 3B68     		ldr	r3, [r7]
 2175 0018 002B     		cmp	r3, #0
 2176 001a 03D0     		beq	.L109
 2177 001c 3B68     		ldr	r3, [r7]
ARM GAS  /tmp/cc9IMTcg.s 			page 57


 2178 001e 042B     		cmp	r3, #4
 2179 0020 09D0     		beq	.L110
 990:Drivers/STM32L4xx_HAL_Driver/Src/stm32l4xx_hal_tim_ex.c ****   {
 991:Drivers/STM32L4xx_HAL_Driver/Src/stm32l4xx_hal_tim_ex.c ****     case TIM_CHANNEL_1:
 992:Drivers/STM32L4xx_HAL_Driver/Src/stm32l4xx_hal_tim_ex.c ****     {
 993:Drivers/STM32L4xx_HAL_Driver/Src/stm32l4xx_hal_tim_ex.c ****       /* Enable the TIM Capture/Compare 1 interrupt */
 994:Drivers/STM32L4xx_HAL_Driver/Src/stm32l4xx_hal_tim_ex.c ****       __HAL_TIM_ENABLE_IT(htim, TIM_IT_CC1);
 995:Drivers/STM32L4xx_HAL_Driver/Src/stm32l4xx_hal_tim_ex.c ****       break;
 996:Drivers/STM32L4xx_HAL_Driver/Src/stm32l4xx_hal_tim_ex.c ****     }
 997:Drivers/STM32L4xx_HAL_Driver/Src/stm32l4xx_hal_tim_ex.c **** 
 998:Drivers/STM32L4xx_HAL_Driver/Src/stm32l4xx_hal_tim_ex.c ****     case TIM_CHANNEL_2:
 999:Drivers/STM32L4xx_HAL_Driver/Src/stm32l4xx_hal_tim_ex.c ****     {
1000:Drivers/STM32L4xx_HAL_Driver/Src/stm32l4xx_hal_tim_ex.c ****       /* Enable the TIM Capture/Compare 2 interrupt */
1001:Drivers/STM32L4xx_HAL_Driver/Src/stm32l4xx_hal_tim_ex.c ****       __HAL_TIM_ENABLE_IT(htim, TIM_IT_CC2);
1002:Drivers/STM32L4xx_HAL_Driver/Src/stm32l4xx_hal_tim_ex.c ****       break;
1003:Drivers/STM32L4xx_HAL_Driver/Src/stm32l4xx_hal_tim_ex.c ****     }
1004:Drivers/STM32L4xx_HAL_Driver/Src/stm32l4xx_hal_tim_ex.c **** 
1005:Drivers/STM32L4xx_HAL_Driver/Src/stm32l4xx_hal_tim_ex.c ****     case TIM_CHANNEL_3:
1006:Drivers/STM32L4xx_HAL_Driver/Src/stm32l4xx_hal_tim_ex.c ****     {
1007:Drivers/STM32L4xx_HAL_Driver/Src/stm32l4xx_hal_tim_ex.c ****       /* Enable the TIM Capture/Compare 3 interrupt */
1008:Drivers/STM32L4xx_HAL_Driver/Src/stm32l4xx_hal_tim_ex.c ****       __HAL_TIM_ENABLE_IT(htim, TIM_IT_CC3);
1009:Drivers/STM32L4xx_HAL_Driver/Src/stm32l4xx_hal_tim_ex.c ****       break;
1010:Drivers/STM32L4xx_HAL_Driver/Src/stm32l4xx_hal_tim_ex.c ****     }
1011:Drivers/STM32L4xx_HAL_Driver/Src/stm32l4xx_hal_tim_ex.c **** 
1012:Drivers/STM32L4xx_HAL_Driver/Src/stm32l4xx_hal_tim_ex.c ****     default:
1013:Drivers/STM32L4xx_HAL_Driver/Src/stm32l4xx_hal_tim_ex.c ****       break;
 2180              		.loc 1 1013 7
 2181 0022 1AE0     		b	.L114
 2182              	.L109:
 994:Drivers/STM32L4xx_HAL_Driver/Src/stm32l4xx_hal_tim_ex.c ****       break;
 2183              		.loc 1 994 7
 2184 0024 7B68     		ldr	r3, [r7, #4]
 2185 0026 1B68     		ldr	r3, [r3]
 2186 0028 DA68     		ldr	r2, [r3, #12]
 2187 002a 7B68     		ldr	r3, [r7, #4]
 2188 002c 1B68     		ldr	r3, [r3]
 2189 002e 42F00202 		orr	r2, r2, #2
 2190 0032 DA60     		str	r2, [r3, #12]
 995:Drivers/STM32L4xx_HAL_Driver/Src/stm32l4xx_hal_tim_ex.c ****     }
 2191              		.loc 1 995 7
 2192 0034 12E0     		b	.L111
 2193              	.L110:
1001:Drivers/STM32L4xx_HAL_Driver/Src/stm32l4xx_hal_tim_ex.c ****       break;
 2194              		.loc 1 1001 7
 2195 0036 7B68     		ldr	r3, [r7, #4]
 2196 0038 1B68     		ldr	r3, [r3]
 2197 003a DA68     		ldr	r2, [r3, #12]
 2198 003c 7B68     		ldr	r3, [r7, #4]
 2199 003e 1B68     		ldr	r3, [r3]
 2200 0040 42F00402 		orr	r2, r2, #4
 2201 0044 DA60     		str	r2, [r3, #12]
1002:Drivers/STM32L4xx_HAL_Driver/Src/stm32l4xx_hal_tim_ex.c ****     }
 2202              		.loc 1 1002 7
 2203 0046 09E0     		b	.L111
 2204              	.L107:
1008:Drivers/STM32L4xx_HAL_Driver/Src/stm32l4xx_hal_tim_ex.c ****       break;
 2205              		.loc 1 1008 7
ARM GAS  /tmp/cc9IMTcg.s 			page 58


 2206 0048 7B68     		ldr	r3, [r7, #4]
 2207 004a 1B68     		ldr	r3, [r3]
 2208 004c DA68     		ldr	r2, [r3, #12]
 2209 004e 7B68     		ldr	r3, [r7, #4]
 2210 0050 1B68     		ldr	r3, [r3]
 2211 0052 42F00802 		orr	r2, r2, #8
 2212 0056 DA60     		str	r2, [r3, #12]
1009:Drivers/STM32L4xx_HAL_Driver/Src/stm32l4xx_hal_tim_ex.c ****     }
 2213              		.loc 1 1009 7
 2214 0058 00E0     		b	.L111
 2215              	.L114:
 2216              		.loc 1 1013 7
 2217 005a 00BF     		nop
 2218              	.L111:
1014:Drivers/STM32L4xx_HAL_Driver/Src/stm32l4xx_hal_tim_ex.c ****   }
1015:Drivers/STM32L4xx_HAL_Driver/Src/stm32l4xx_hal_tim_ex.c **** 
1016:Drivers/STM32L4xx_HAL_Driver/Src/stm32l4xx_hal_tim_ex.c ****   /* Enable the TIM Break interrupt */
1017:Drivers/STM32L4xx_HAL_Driver/Src/stm32l4xx_hal_tim_ex.c ****   __HAL_TIM_ENABLE_IT(htim, TIM_IT_BREAK);
 2219              		.loc 1 1017 3
 2220 005c 7B68     		ldr	r3, [r7, #4]
 2221 005e 1B68     		ldr	r3, [r3]
 2222 0060 DA68     		ldr	r2, [r3, #12]
 2223 0062 7B68     		ldr	r3, [r7, #4]
 2224 0064 1B68     		ldr	r3, [r3]
 2225 0066 42F08002 		orr	r2, r2, #128
 2226 006a DA60     		str	r2, [r3, #12]
1018:Drivers/STM32L4xx_HAL_Driver/Src/stm32l4xx_hal_tim_ex.c **** 
1019:Drivers/STM32L4xx_HAL_Driver/Src/stm32l4xx_hal_tim_ex.c ****   /* Enable the complementary PWM output  */
1020:Drivers/STM32L4xx_HAL_Driver/Src/stm32l4xx_hal_tim_ex.c ****   TIM_CCxNChannelCmd(htim->Instance, Channel, TIM_CCxN_ENABLE);
 2227              		.loc 1 1020 3
 2228 006c 7B68     		ldr	r3, [r7, #4]
 2229 006e 1B68     		ldr	r3, [r3]
 2230 0070 0422     		movs	r2, #4
 2231 0072 3968     		ldr	r1, [r7]
 2232 0074 1846     		mov	r0, r3
 2233 0076 FFF7FEFF 		bl	TIM_CCxNChannelCmd
1021:Drivers/STM32L4xx_HAL_Driver/Src/stm32l4xx_hal_tim_ex.c **** 
1022:Drivers/STM32L4xx_HAL_Driver/Src/stm32l4xx_hal_tim_ex.c ****   /* Enable the Main Output */
1023:Drivers/STM32L4xx_HAL_Driver/Src/stm32l4xx_hal_tim_ex.c ****   __HAL_TIM_MOE_ENABLE(htim);
 2234              		.loc 1 1023 3
 2235 007a 7B68     		ldr	r3, [r7, #4]
 2236 007c 1B68     		ldr	r3, [r3]
 2237 007e 5A6C     		ldr	r2, [r3, #68]
 2238 0080 7B68     		ldr	r3, [r7, #4]
 2239 0082 1B68     		ldr	r3, [r3]
 2240 0084 42F40042 		orr	r2, r2, #32768
 2241 0088 5A64     		str	r2, [r3, #68]
1024:Drivers/STM32L4xx_HAL_Driver/Src/stm32l4xx_hal_tim_ex.c **** 
1025:Drivers/STM32L4xx_HAL_Driver/Src/stm32l4xx_hal_tim_ex.c ****   /* Enable the Peripheral, except in trigger mode where enable is automatically done with trigger 
1026:Drivers/STM32L4xx_HAL_Driver/Src/stm32l4xx_hal_tim_ex.c ****   tmpsmcr = htim->Instance->SMCR & TIM_SMCR_SMS;
 2242              		.loc 1 1026 17
 2243 008a 7B68     		ldr	r3, [r7, #4]
 2244 008c 1B68     		ldr	r3, [r3]
 2245              		.loc 1 1026 27
 2246 008e 9A68     		ldr	r2, [r3, #8]
 2247              		.loc 1 1026 11
 2248 0090 0B4B     		ldr	r3, .L115
ARM GAS  /tmp/cc9IMTcg.s 			page 59


 2249 0092 1340     		ands	r3, r3, r2
 2250 0094 FB60     		str	r3, [r7, #12]
1027:Drivers/STM32L4xx_HAL_Driver/Src/stm32l4xx_hal_tim_ex.c ****   if (!IS_TIM_SLAVEMODE_TRIGGER_ENABLED(tmpsmcr))
 2251              		.loc 1 1027 6
 2252 0096 FB68     		ldr	r3, [r7, #12]
 2253 0098 062B     		cmp	r3, #6
 2254 009a 0BD0     		beq	.L112
 2255              		.loc 1 1027 7 discriminator 1
 2256 009c FB68     		ldr	r3, [r7, #12]
 2257 009e B3F5803F 		cmp	r3, #65536
 2258 00a2 07D0     		beq	.L112
1028:Drivers/STM32L4xx_HAL_Driver/Src/stm32l4xx_hal_tim_ex.c ****   {
1029:Drivers/STM32L4xx_HAL_Driver/Src/stm32l4xx_hal_tim_ex.c ****     __HAL_TIM_ENABLE(htim);
 2259              		.loc 1 1029 5
 2260 00a4 7B68     		ldr	r3, [r7, #4]
 2261 00a6 1B68     		ldr	r3, [r3]
 2262 00a8 1A68     		ldr	r2, [r3]
 2263 00aa 7B68     		ldr	r3, [r7, #4]
 2264 00ac 1B68     		ldr	r3, [r3]
 2265 00ae 42F00102 		orr	r2, r2, #1
 2266 00b2 1A60     		str	r2, [r3]
 2267              	.L112:
1030:Drivers/STM32L4xx_HAL_Driver/Src/stm32l4xx_hal_tim_ex.c ****   }
1031:Drivers/STM32L4xx_HAL_Driver/Src/stm32l4xx_hal_tim_ex.c **** 
1032:Drivers/STM32L4xx_HAL_Driver/Src/stm32l4xx_hal_tim_ex.c ****   /* Return function status */
1033:Drivers/STM32L4xx_HAL_Driver/Src/stm32l4xx_hal_tim_ex.c ****   return HAL_OK;
 2268              		.loc 1 1033 10
 2269 00b4 0023     		movs	r3, #0
1034:Drivers/STM32L4xx_HAL_Driver/Src/stm32l4xx_hal_tim_ex.c **** }
 2270              		.loc 1 1034 1
 2271 00b6 1846     		mov	r0, r3
 2272 00b8 1037     		adds	r7, r7, #16
 2273              	.LCFI95:
 2274              		.cfi_def_cfa_offset 8
 2275 00ba BD46     		mov	sp, r7
 2276              	.LCFI96:
 2277              		.cfi_def_cfa_register 13
 2278              		@ sp needed
 2279 00bc 80BD     		pop	{r7, pc}
 2280              	.L116:
 2281 00be 00BF     		.align	2
 2282              	.L115:
 2283 00c0 07000100 		.word	65543
 2284              		.cfi_endproc
 2285              	.LFE148:
 2287              		.section	.text.HAL_TIMEx_PWMN_Stop_IT,"ax",%progbits
 2288              		.align	1
 2289              		.global	HAL_TIMEx_PWMN_Stop_IT
 2290              		.syntax unified
 2291              		.thumb
 2292              		.thumb_func
 2293              		.fpu fpv4-sp-d16
 2295              	HAL_TIMEx_PWMN_Stop_IT:
 2296              	.LFB149:
1035:Drivers/STM32L4xx_HAL_Driver/Src/stm32l4xx_hal_tim_ex.c **** 
1036:Drivers/STM32L4xx_HAL_Driver/Src/stm32l4xx_hal_tim_ex.c **** /**
1037:Drivers/STM32L4xx_HAL_Driver/Src/stm32l4xx_hal_tim_ex.c ****   * @brief  Stops the PWM signal generation in interrupt mode on the
ARM GAS  /tmp/cc9IMTcg.s 			page 60


1038:Drivers/STM32L4xx_HAL_Driver/Src/stm32l4xx_hal_tim_ex.c ****   *         complementary output.
1039:Drivers/STM32L4xx_HAL_Driver/Src/stm32l4xx_hal_tim_ex.c ****   * @param  htim TIM handle
1040:Drivers/STM32L4xx_HAL_Driver/Src/stm32l4xx_hal_tim_ex.c ****   * @param  Channel TIM Channel to be disabled
1041:Drivers/STM32L4xx_HAL_Driver/Src/stm32l4xx_hal_tim_ex.c ****   *          This parameter can be one of the following values:
1042:Drivers/STM32L4xx_HAL_Driver/Src/stm32l4xx_hal_tim_ex.c ****   *            @arg TIM_CHANNEL_1: TIM Channel 1 selected
1043:Drivers/STM32L4xx_HAL_Driver/Src/stm32l4xx_hal_tim_ex.c ****   *            @arg TIM_CHANNEL_2: TIM Channel 2 selected
1044:Drivers/STM32L4xx_HAL_Driver/Src/stm32l4xx_hal_tim_ex.c ****   *            @arg TIM_CHANNEL_3: TIM Channel 3 selected
1045:Drivers/STM32L4xx_HAL_Driver/Src/stm32l4xx_hal_tim_ex.c ****   * @retval HAL status
1046:Drivers/STM32L4xx_HAL_Driver/Src/stm32l4xx_hal_tim_ex.c ****   */
1047:Drivers/STM32L4xx_HAL_Driver/Src/stm32l4xx_hal_tim_ex.c **** HAL_StatusTypeDef HAL_TIMEx_PWMN_Stop_IT(TIM_HandleTypeDef *htim, uint32_t Channel)
1048:Drivers/STM32L4xx_HAL_Driver/Src/stm32l4xx_hal_tim_ex.c **** {
 2297              		.loc 1 1048 1
 2298              		.cfi_startproc
 2299              		@ args = 0, pretend = 0, frame = 16
 2300              		@ frame_needed = 1, uses_anonymous_args = 0
 2301 0000 80B5     		push	{r7, lr}
 2302              	.LCFI97:
 2303              		.cfi_def_cfa_offset 8
 2304              		.cfi_offset 7, -8
 2305              		.cfi_offset 14, -4
 2306 0002 84B0     		sub	sp, sp, #16
 2307              	.LCFI98:
 2308              		.cfi_def_cfa_offset 24
 2309 0004 00AF     		add	r7, sp, #0
 2310              	.LCFI99:
 2311              		.cfi_def_cfa_register 7
 2312 0006 7860     		str	r0, [r7, #4]
 2313 0008 3960     		str	r1, [r7]
1049:Drivers/STM32L4xx_HAL_Driver/Src/stm32l4xx_hal_tim_ex.c ****   uint32_t tmpccer;
1050:Drivers/STM32L4xx_HAL_Driver/Src/stm32l4xx_hal_tim_ex.c **** 
1051:Drivers/STM32L4xx_HAL_Driver/Src/stm32l4xx_hal_tim_ex.c ****   /* Check the parameters */
1052:Drivers/STM32L4xx_HAL_Driver/Src/stm32l4xx_hal_tim_ex.c ****   assert_param(IS_TIM_CCXN_INSTANCE(htim->Instance, Channel));
1053:Drivers/STM32L4xx_HAL_Driver/Src/stm32l4xx_hal_tim_ex.c **** 
1054:Drivers/STM32L4xx_HAL_Driver/Src/stm32l4xx_hal_tim_ex.c ****   switch (Channel)
 2314              		.loc 1 1054 3
 2315 000a 3B68     		ldr	r3, [r7]
 2316 000c 082B     		cmp	r3, #8
 2317 000e 1BD0     		beq	.L118
 2318 0010 3B68     		ldr	r3, [r7]
 2319 0012 082B     		cmp	r3, #8
 2320 0014 21D8     		bhi	.L127
 2321 0016 3B68     		ldr	r3, [r7]
 2322 0018 002B     		cmp	r3, #0
 2323 001a 03D0     		beq	.L120
 2324 001c 3B68     		ldr	r3, [r7]
 2325 001e 042B     		cmp	r3, #4
 2326 0020 09D0     		beq	.L121
1055:Drivers/STM32L4xx_HAL_Driver/Src/stm32l4xx_hal_tim_ex.c ****   {
1056:Drivers/STM32L4xx_HAL_Driver/Src/stm32l4xx_hal_tim_ex.c ****     case TIM_CHANNEL_1:
1057:Drivers/STM32L4xx_HAL_Driver/Src/stm32l4xx_hal_tim_ex.c ****     {
1058:Drivers/STM32L4xx_HAL_Driver/Src/stm32l4xx_hal_tim_ex.c ****       /* Disable the TIM Capture/Compare 1 interrupt */
1059:Drivers/STM32L4xx_HAL_Driver/Src/stm32l4xx_hal_tim_ex.c ****       __HAL_TIM_DISABLE_IT(htim, TIM_IT_CC1);
1060:Drivers/STM32L4xx_HAL_Driver/Src/stm32l4xx_hal_tim_ex.c ****       break;
1061:Drivers/STM32L4xx_HAL_Driver/Src/stm32l4xx_hal_tim_ex.c ****     }
1062:Drivers/STM32L4xx_HAL_Driver/Src/stm32l4xx_hal_tim_ex.c **** 
1063:Drivers/STM32L4xx_HAL_Driver/Src/stm32l4xx_hal_tim_ex.c ****     case TIM_CHANNEL_2:
1064:Drivers/STM32L4xx_HAL_Driver/Src/stm32l4xx_hal_tim_ex.c ****     {
ARM GAS  /tmp/cc9IMTcg.s 			page 61


1065:Drivers/STM32L4xx_HAL_Driver/Src/stm32l4xx_hal_tim_ex.c ****       /* Disable the TIM Capture/Compare 2 interrupt */
1066:Drivers/STM32L4xx_HAL_Driver/Src/stm32l4xx_hal_tim_ex.c ****       __HAL_TIM_DISABLE_IT(htim, TIM_IT_CC2);
1067:Drivers/STM32L4xx_HAL_Driver/Src/stm32l4xx_hal_tim_ex.c ****       break;
1068:Drivers/STM32L4xx_HAL_Driver/Src/stm32l4xx_hal_tim_ex.c ****     }
1069:Drivers/STM32L4xx_HAL_Driver/Src/stm32l4xx_hal_tim_ex.c **** 
1070:Drivers/STM32L4xx_HAL_Driver/Src/stm32l4xx_hal_tim_ex.c ****     case TIM_CHANNEL_3:
1071:Drivers/STM32L4xx_HAL_Driver/Src/stm32l4xx_hal_tim_ex.c ****     {
1072:Drivers/STM32L4xx_HAL_Driver/Src/stm32l4xx_hal_tim_ex.c ****       /* Disable the TIM Capture/Compare 3 interrupt */
1073:Drivers/STM32L4xx_HAL_Driver/Src/stm32l4xx_hal_tim_ex.c ****       __HAL_TIM_DISABLE_IT(htim, TIM_IT_CC3);
1074:Drivers/STM32L4xx_HAL_Driver/Src/stm32l4xx_hal_tim_ex.c ****       break;
1075:Drivers/STM32L4xx_HAL_Driver/Src/stm32l4xx_hal_tim_ex.c ****     }
1076:Drivers/STM32L4xx_HAL_Driver/Src/stm32l4xx_hal_tim_ex.c **** 
1077:Drivers/STM32L4xx_HAL_Driver/Src/stm32l4xx_hal_tim_ex.c ****     default:
1078:Drivers/STM32L4xx_HAL_Driver/Src/stm32l4xx_hal_tim_ex.c ****       break;
 2327              		.loc 1 1078 7
 2328 0022 1AE0     		b	.L127
 2329              	.L120:
1059:Drivers/STM32L4xx_HAL_Driver/Src/stm32l4xx_hal_tim_ex.c ****       break;
 2330              		.loc 1 1059 7
 2331 0024 7B68     		ldr	r3, [r7, #4]
 2332 0026 1B68     		ldr	r3, [r3]
 2333 0028 DA68     		ldr	r2, [r3, #12]
 2334 002a 7B68     		ldr	r3, [r7, #4]
 2335 002c 1B68     		ldr	r3, [r3]
 2336 002e 22F00202 		bic	r2, r2, #2
 2337 0032 DA60     		str	r2, [r3, #12]
1060:Drivers/STM32L4xx_HAL_Driver/Src/stm32l4xx_hal_tim_ex.c ****     }
 2338              		.loc 1 1060 7
 2339 0034 12E0     		b	.L122
 2340              	.L121:
1066:Drivers/STM32L4xx_HAL_Driver/Src/stm32l4xx_hal_tim_ex.c ****       break;
 2341              		.loc 1 1066 7
 2342 0036 7B68     		ldr	r3, [r7, #4]
 2343 0038 1B68     		ldr	r3, [r3]
 2344 003a DA68     		ldr	r2, [r3, #12]
 2345 003c 7B68     		ldr	r3, [r7, #4]
 2346 003e 1B68     		ldr	r3, [r3]
 2347 0040 22F00402 		bic	r2, r2, #4
 2348 0044 DA60     		str	r2, [r3, #12]
1067:Drivers/STM32L4xx_HAL_Driver/Src/stm32l4xx_hal_tim_ex.c ****     }
 2349              		.loc 1 1067 7
 2350 0046 09E0     		b	.L122
 2351              	.L118:
1073:Drivers/STM32L4xx_HAL_Driver/Src/stm32l4xx_hal_tim_ex.c ****       break;
 2352              		.loc 1 1073 7
 2353 0048 7B68     		ldr	r3, [r7, #4]
 2354 004a 1B68     		ldr	r3, [r3]
 2355 004c DA68     		ldr	r2, [r3, #12]
 2356 004e 7B68     		ldr	r3, [r7, #4]
 2357 0050 1B68     		ldr	r3, [r3]
 2358 0052 22F00802 		bic	r2, r2, #8
 2359 0056 DA60     		str	r2, [r3, #12]
1074:Drivers/STM32L4xx_HAL_Driver/Src/stm32l4xx_hal_tim_ex.c ****     }
 2360              		.loc 1 1074 7
 2361 0058 00E0     		b	.L122
 2362              	.L127:
 2363              		.loc 1 1078 7
ARM GAS  /tmp/cc9IMTcg.s 			page 62


 2364 005a 00BF     		nop
 2365              	.L122:
1079:Drivers/STM32L4xx_HAL_Driver/Src/stm32l4xx_hal_tim_ex.c ****   }
1080:Drivers/STM32L4xx_HAL_Driver/Src/stm32l4xx_hal_tim_ex.c **** 
1081:Drivers/STM32L4xx_HAL_Driver/Src/stm32l4xx_hal_tim_ex.c ****   /* Disable the complementary PWM output  */
1082:Drivers/STM32L4xx_HAL_Driver/Src/stm32l4xx_hal_tim_ex.c ****   TIM_CCxNChannelCmd(htim->Instance, Channel, TIM_CCxN_DISABLE);
 2366              		.loc 1 1082 3
 2367 005c 7B68     		ldr	r3, [r7, #4]
 2368 005e 1B68     		ldr	r3, [r3]
 2369 0060 0022     		movs	r2, #0
 2370 0062 3968     		ldr	r1, [r7]
 2371 0064 1846     		mov	r0, r3
 2372 0066 FFF7FEFF 		bl	TIM_CCxNChannelCmd
1083:Drivers/STM32L4xx_HAL_Driver/Src/stm32l4xx_hal_tim_ex.c **** 
1084:Drivers/STM32L4xx_HAL_Driver/Src/stm32l4xx_hal_tim_ex.c ****   /* Disable the TIM Break interrupt (only if no more channel is active) */
1085:Drivers/STM32L4xx_HAL_Driver/Src/stm32l4xx_hal_tim_ex.c ****   tmpccer = htim->Instance->CCER;
 2373              		.loc 1 1085 17
 2374 006a 7B68     		ldr	r3, [r7, #4]
 2375 006c 1B68     		ldr	r3, [r3]
 2376              		.loc 1 1085 11
 2377 006e 1B6A     		ldr	r3, [r3, #32]
 2378 0070 FB60     		str	r3, [r7, #12]
1086:Drivers/STM32L4xx_HAL_Driver/Src/stm32l4xx_hal_tim_ex.c ****   if ((tmpccer & (TIM_CCER_CC1NE | TIM_CCER_CC2NE | TIM_CCER_CC3NE)) == (uint32_t)RESET)
 2379              		.loc 1 1086 16
 2380 0072 FA68     		ldr	r2, [r7, #12]
 2381 0074 40F24443 		movw	r3, #1092
 2382 0078 1340     		ands	r3, r3, r2
 2383              		.loc 1 1086 6
 2384 007a 002B     		cmp	r3, #0
 2385 007c 07D1     		bne	.L123
1087:Drivers/STM32L4xx_HAL_Driver/Src/stm32l4xx_hal_tim_ex.c ****   {
1088:Drivers/STM32L4xx_HAL_Driver/Src/stm32l4xx_hal_tim_ex.c ****     __HAL_TIM_DISABLE_IT(htim, TIM_IT_BREAK);
 2386              		.loc 1 1088 5
 2387 007e 7B68     		ldr	r3, [r7, #4]
 2388 0080 1B68     		ldr	r3, [r3]
 2389 0082 DA68     		ldr	r2, [r3, #12]
 2390 0084 7B68     		ldr	r3, [r7, #4]
 2391 0086 1B68     		ldr	r3, [r3]
 2392 0088 22F08002 		bic	r2, r2, #128
 2393 008c DA60     		str	r2, [r3, #12]
 2394              	.L123:
1089:Drivers/STM32L4xx_HAL_Driver/Src/stm32l4xx_hal_tim_ex.c ****   }
1090:Drivers/STM32L4xx_HAL_Driver/Src/stm32l4xx_hal_tim_ex.c **** 
1091:Drivers/STM32L4xx_HAL_Driver/Src/stm32l4xx_hal_tim_ex.c ****   /* Disable the Main Output */
1092:Drivers/STM32L4xx_HAL_Driver/Src/stm32l4xx_hal_tim_ex.c ****   __HAL_TIM_MOE_DISABLE(htim);
 2395              		.loc 1 1092 3
 2396 008e 7B68     		ldr	r3, [r7, #4]
 2397 0090 1B68     		ldr	r3, [r3]
 2398 0092 1A6A     		ldr	r2, [r3, #32]
 2399 0094 41F21113 		movw	r3, #4369
 2400 0098 1340     		ands	r3, r3, r2
 2401 009a 002B     		cmp	r3, #0
 2402 009c 0FD1     		bne	.L124
 2403              		.loc 1 1092 3 is_stmt 0 discriminator 1
 2404 009e 7B68     		ldr	r3, [r7, #4]
 2405 00a0 1B68     		ldr	r3, [r3]
 2406 00a2 1A6A     		ldr	r2, [r3, #32]
ARM GAS  /tmp/cc9IMTcg.s 			page 63


 2407 00a4 40F24443 		movw	r3, #1092
 2408 00a8 1340     		ands	r3, r3, r2
 2409 00aa 002B     		cmp	r3, #0
 2410 00ac 07D1     		bne	.L124
 2411              		.loc 1 1092 3 discriminator 2
 2412 00ae 7B68     		ldr	r3, [r7, #4]
 2413 00b0 1B68     		ldr	r3, [r3]
 2414 00b2 5A6C     		ldr	r2, [r3, #68]
 2415 00b4 7B68     		ldr	r3, [r7, #4]
 2416 00b6 1B68     		ldr	r3, [r3]
 2417 00b8 22F40042 		bic	r2, r2, #32768
 2418 00bc 5A64     		str	r2, [r3, #68]
 2419              	.L124:
1093:Drivers/STM32L4xx_HAL_Driver/Src/stm32l4xx_hal_tim_ex.c **** 
1094:Drivers/STM32L4xx_HAL_Driver/Src/stm32l4xx_hal_tim_ex.c ****   /* Disable the Peripheral */
1095:Drivers/STM32L4xx_HAL_Driver/Src/stm32l4xx_hal_tim_ex.c ****   __HAL_TIM_DISABLE(htim);
 2420              		.loc 1 1095 3 is_stmt 1
 2421 00be 7B68     		ldr	r3, [r7, #4]
 2422 00c0 1B68     		ldr	r3, [r3]
 2423 00c2 1A6A     		ldr	r2, [r3, #32]
 2424 00c4 41F21113 		movw	r3, #4369
 2425 00c8 1340     		ands	r3, r3, r2
 2426 00ca 002B     		cmp	r3, #0
 2427 00cc 0FD1     		bne	.L125
 2428              		.loc 1 1095 3 is_stmt 0 discriminator 1
 2429 00ce 7B68     		ldr	r3, [r7, #4]
 2430 00d0 1B68     		ldr	r3, [r3]
 2431 00d2 1A6A     		ldr	r2, [r3, #32]
 2432 00d4 40F24443 		movw	r3, #1092
 2433 00d8 1340     		ands	r3, r3, r2
 2434 00da 002B     		cmp	r3, #0
 2435 00dc 07D1     		bne	.L125
 2436              		.loc 1 1095 3 discriminator 2
 2437 00de 7B68     		ldr	r3, [r7, #4]
 2438 00e0 1B68     		ldr	r3, [r3]
 2439 00e2 1A68     		ldr	r2, [r3]
 2440 00e4 7B68     		ldr	r3, [r7, #4]
 2441 00e6 1B68     		ldr	r3, [r3]
 2442 00e8 22F00102 		bic	r2, r2, #1
 2443 00ec 1A60     		str	r2, [r3]
 2444              	.L125:
1096:Drivers/STM32L4xx_HAL_Driver/Src/stm32l4xx_hal_tim_ex.c **** 
1097:Drivers/STM32L4xx_HAL_Driver/Src/stm32l4xx_hal_tim_ex.c ****   /* Return function status */
1098:Drivers/STM32L4xx_HAL_Driver/Src/stm32l4xx_hal_tim_ex.c ****   return HAL_OK;
 2445              		.loc 1 1098 10 is_stmt 1
 2446 00ee 0023     		movs	r3, #0
1099:Drivers/STM32L4xx_HAL_Driver/Src/stm32l4xx_hal_tim_ex.c **** }
 2447              		.loc 1 1099 1
 2448 00f0 1846     		mov	r0, r3
 2449 00f2 1037     		adds	r7, r7, #16
 2450              	.LCFI100:
 2451              		.cfi_def_cfa_offset 8
 2452 00f4 BD46     		mov	sp, r7
 2453              	.LCFI101:
 2454              		.cfi_def_cfa_register 13
 2455              		@ sp needed
 2456 00f6 80BD     		pop	{r7, pc}
ARM GAS  /tmp/cc9IMTcg.s 			page 64


 2457              		.cfi_endproc
 2458              	.LFE149:
 2460              		.section	.text.HAL_TIMEx_PWMN_Start_DMA,"ax",%progbits
 2461              		.align	1
 2462              		.global	HAL_TIMEx_PWMN_Start_DMA
 2463              		.syntax unified
 2464              		.thumb
 2465              		.thumb_func
 2466              		.fpu fpv4-sp-d16
 2468              	HAL_TIMEx_PWMN_Start_DMA:
 2469              	.LFB150:
1100:Drivers/STM32L4xx_HAL_Driver/Src/stm32l4xx_hal_tim_ex.c **** 
1101:Drivers/STM32L4xx_HAL_Driver/Src/stm32l4xx_hal_tim_ex.c **** /**
1102:Drivers/STM32L4xx_HAL_Driver/Src/stm32l4xx_hal_tim_ex.c ****   * @brief  Starts the TIM PWM signal generation in DMA mode on the
1103:Drivers/STM32L4xx_HAL_Driver/Src/stm32l4xx_hal_tim_ex.c ****   *         complementary output
1104:Drivers/STM32L4xx_HAL_Driver/Src/stm32l4xx_hal_tim_ex.c ****   * @param  htim TIM handle
1105:Drivers/STM32L4xx_HAL_Driver/Src/stm32l4xx_hal_tim_ex.c ****   * @param  Channel TIM Channel to be enabled
1106:Drivers/STM32L4xx_HAL_Driver/Src/stm32l4xx_hal_tim_ex.c ****   *          This parameter can be one of the following values:
1107:Drivers/STM32L4xx_HAL_Driver/Src/stm32l4xx_hal_tim_ex.c ****   *            @arg TIM_CHANNEL_1: TIM Channel 1 selected
1108:Drivers/STM32L4xx_HAL_Driver/Src/stm32l4xx_hal_tim_ex.c ****   *            @arg TIM_CHANNEL_2: TIM Channel 2 selected
1109:Drivers/STM32L4xx_HAL_Driver/Src/stm32l4xx_hal_tim_ex.c ****   *            @arg TIM_CHANNEL_3: TIM Channel 3 selected
1110:Drivers/STM32L4xx_HAL_Driver/Src/stm32l4xx_hal_tim_ex.c ****   * @param  pData The source Buffer address.
1111:Drivers/STM32L4xx_HAL_Driver/Src/stm32l4xx_hal_tim_ex.c ****   * @param  Length The length of data to be transferred from memory to TIM peripheral
1112:Drivers/STM32L4xx_HAL_Driver/Src/stm32l4xx_hal_tim_ex.c ****   * @retval HAL status
1113:Drivers/STM32L4xx_HAL_Driver/Src/stm32l4xx_hal_tim_ex.c ****   */
1114:Drivers/STM32L4xx_HAL_Driver/Src/stm32l4xx_hal_tim_ex.c **** HAL_StatusTypeDef HAL_TIMEx_PWMN_Start_DMA(TIM_HandleTypeDef *htim, uint32_t Channel, uint32_t *pDa
1115:Drivers/STM32L4xx_HAL_Driver/Src/stm32l4xx_hal_tim_ex.c **** {
 2470              		.loc 1 1115 1
 2471              		.cfi_startproc
 2472              		@ args = 0, pretend = 0, frame = 24
 2473              		@ frame_needed = 1, uses_anonymous_args = 0
 2474 0000 80B5     		push	{r7, lr}
 2475              	.LCFI102:
 2476              		.cfi_def_cfa_offset 8
 2477              		.cfi_offset 7, -8
 2478              		.cfi_offset 14, -4
 2479 0002 86B0     		sub	sp, sp, #24
 2480              	.LCFI103:
 2481              		.cfi_def_cfa_offset 32
 2482 0004 00AF     		add	r7, sp, #0
 2483              	.LCFI104:
 2484              		.cfi_def_cfa_register 7
 2485 0006 F860     		str	r0, [r7, #12]
 2486 0008 B960     		str	r1, [r7, #8]
 2487 000a 7A60     		str	r2, [r7, #4]
 2488 000c 7B80     		strh	r3, [r7, #2]	@ movhi
1116:Drivers/STM32L4xx_HAL_Driver/Src/stm32l4xx_hal_tim_ex.c ****   uint32_t tmpsmcr;
1117:Drivers/STM32L4xx_HAL_Driver/Src/stm32l4xx_hal_tim_ex.c **** 
1118:Drivers/STM32L4xx_HAL_Driver/Src/stm32l4xx_hal_tim_ex.c ****   /* Check the parameters */
1119:Drivers/STM32L4xx_HAL_Driver/Src/stm32l4xx_hal_tim_ex.c ****   assert_param(IS_TIM_CCXN_INSTANCE(htim->Instance, Channel));
1120:Drivers/STM32L4xx_HAL_Driver/Src/stm32l4xx_hal_tim_ex.c **** 
1121:Drivers/STM32L4xx_HAL_Driver/Src/stm32l4xx_hal_tim_ex.c ****   if (htim->State == HAL_TIM_STATE_BUSY)
 2489              		.loc 1 1121 11
 2490 000e FB68     		ldr	r3, [r7, #12]
 2491 0010 93F83D30 		ldrb	r3, [r3, #61]
 2492 0014 DBB2     		uxtb	r3, r3
 2493              		.loc 1 1121 6
ARM GAS  /tmp/cc9IMTcg.s 			page 65


 2494 0016 022B     		cmp	r3, #2
 2495 0018 01D1     		bne	.L129
1122:Drivers/STM32L4xx_HAL_Driver/Src/stm32l4xx_hal_tim_ex.c ****   {
1123:Drivers/STM32L4xx_HAL_Driver/Src/stm32l4xx_hal_tim_ex.c ****     return HAL_BUSY;
 2496              		.loc 1 1123 12
 2497 001a 0223     		movs	r3, #2
 2498 001c B0E0     		b	.L130
 2499              	.L129:
1124:Drivers/STM32L4xx_HAL_Driver/Src/stm32l4xx_hal_tim_ex.c ****   }
1125:Drivers/STM32L4xx_HAL_Driver/Src/stm32l4xx_hal_tim_ex.c ****   else if (htim->State == HAL_TIM_STATE_READY)
 2500              		.loc 1 1125 16
 2501 001e FB68     		ldr	r3, [r7, #12]
 2502 0020 93F83D30 		ldrb	r3, [r3, #61]
 2503 0024 DBB2     		uxtb	r3, r3
 2504              		.loc 1 1125 11
 2505 0026 012B     		cmp	r3, #1
 2506 0028 0BD1     		bne	.L131
1126:Drivers/STM32L4xx_HAL_Driver/Src/stm32l4xx_hal_tim_ex.c ****   {
1127:Drivers/STM32L4xx_HAL_Driver/Src/stm32l4xx_hal_tim_ex.c ****     if (((uint32_t)pData == 0U) && (Length > 0U))
 2507              		.loc 1 1127 8
 2508 002a 7B68     		ldr	r3, [r7, #4]
 2509 002c 002B     		cmp	r3, #0
 2510 002e 04D1     		bne	.L132
 2511              		.loc 1 1127 33 discriminator 1
 2512 0030 7B88     		ldrh	r3, [r7, #2]
 2513 0032 002B     		cmp	r3, #0
 2514 0034 01D0     		beq	.L132
1128:Drivers/STM32L4xx_HAL_Driver/Src/stm32l4xx_hal_tim_ex.c ****     {
1129:Drivers/STM32L4xx_HAL_Driver/Src/stm32l4xx_hal_tim_ex.c ****       return HAL_ERROR;
 2515              		.loc 1 1129 14
 2516 0036 0123     		movs	r3, #1
 2517 0038 A2E0     		b	.L130
 2518              	.L132:
1130:Drivers/STM32L4xx_HAL_Driver/Src/stm32l4xx_hal_tim_ex.c ****     }
1131:Drivers/STM32L4xx_HAL_Driver/Src/stm32l4xx_hal_tim_ex.c ****     else
1132:Drivers/STM32L4xx_HAL_Driver/Src/stm32l4xx_hal_tim_ex.c ****     {
1133:Drivers/STM32L4xx_HAL_Driver/Src/stm32l4xx_hal_tim_ex.c ****       htim->State = HAL_TIM_STATE_BUSY;
 2519              		.loc 1 1133 19
 2520 003a FB68     		ldr	r3, [r7, #12]
 2521 003c 0222     		movs	r2, #2
 2522 003e 83F83D20 		strb	r2, [r3, #61]
 2523              	.L131:
1134:Drivers/STM32L4xx_HAL_Driver/Src/stm32l4xx_hal_tim_ex.c ****     }
1135:Drivers/STM32L4xx_HAL_Driver/Src/stm32l4xx_hal_tim_ex.c ****   }
1136:Drivers/STM32L4xx_HAL_Driver/Src/stm32l4xx_hal_tim_ex.c ****   else
1137:Drivers/STM32L4xx_HAL_Driver/Src/stm32l4xx_hal_tim_ex.c ****   {
1138:Drivers/STM32L4xx_HAL_Driver/Src/stm32l4xx_hal_tim_ex.c ****     /* nothing to do */
1139:Drivers/STM32L4xx_HAL_Driver/Src/stm32l4xx_hal_tim_ex.c ****   }
1140:Drivers/STM32L4xx_HAL_Driver/Src/stm32l4xx_hal_tim_ex.c ****   switch (Channel)
 2524              		.loc 1 1140 3
 2525 0042 BB68     		ldr	r3, [r7, #8]
 2526 0044 082B     		cmp	r3, #8
 2527 0046 51D0     		beq	.L133
 2528 0048 BB68     		ldr	r3, [r7, #8]
 2529 004a 082B     		cmp	r3, #8
 2530 004c 72D8     		bhi	.L142
 2531 004e BB68     		ldr	r3, [r7, #8]
ARM GAS  /tmp/cc9IMTcg.s 			page 66


 2532 0050 002B     		cmp	r3, #0
 2533 0052 03D0     		beq	.L135
 2534 0054 BB68     		ldr	r3, [r7, #8]
 2535 0056 042B     		cmp	r3, #4
 2536 0058 24D0     		beq	.L136
1141:Drivers/STM32L4xx_HAL_Driver/Src/stm32l4xx_hal_tim_ex.c ****   {
1142:Drivers/STM32L4xx_HAL_Driver/Src/stm32l4xx_hal_tim_ex.c ****     case TIM_CHANNEL_1:
1143:Drivers/STM32L4xx_HAL_Driver/Src/stm32l4xx_hal_tim_ex.c ****     {
1144:Drivers/STM32L4xx_HAL_Driver/Src/stm32l4xx_hal_tim_ex.c ****       /* Set the DMA compare callbacks */
1145:Drivers/STM32L4xx_HAL_Driver/Src/stm32l4xx_hal_tim_ex.c ****       htim->hdma[TIM_DMA_ID_CC1]->XferCpltCallback = TIM_DMADelayPulseCplt;
1146:Drivers/STM32L4xx_HAL_Driver/Src/stm32l4xx_hal_tim_ex.c ****       htim->hdma[TIM_DMA_ID_CC1]->XferHalfCpltCallback = TIM_DMADelayPulseHalfCplt;
1147:Drivers/STM32L4xx_HAL_Driver/Src/stm32l4xx_hal_tim_ex.c **** 
1148:Drivers/STM32L4xx_HAL_Driver/Src/stm32l4xx_hal_tim_ex.c ****       /* Set the DMA error callback */
1149:Drivers/STM32L4xx_HAL_Driver/Src/stm32l4xx_hal_tim_ex.c ****       htim->hdma[TIM_DMA_ID_CC1]->XferErrorCallback = TIM_DMAError ;
1150:Drivers/STM32L4xx_HAL_Driver/Src/stm32l4xx_hal_tim_ex.c **** 
1151:Drivers/STM32L4xx_HAL_Driver/Src/stm32l4xx_hal_tim_ex.c ****       /* Enable the DMA channel */
1152:Drivers/STM32L4xx_HAL_Driver/Src/stm32l4xx_hal_tim_ex.c ****       if (HAL_DMA_Start_IT(htim->hdma[TIM_DMA_ID_CC1], (uint32_t)pData, (uint32_t)&htim->Instance->
1153:Drivers/STM32L4xx_HAL_Driver/Src/stm32l4xx_hal_tim_ex.c ****       {
1154:Drivers/STM32L4xx_HAL_Driver/Src/stm32l4xx_hal_tim_ex.c ****         return HAL_ERROR;
1155:Drivers/STM32L4xx_HAL_Driver/Src/stm32l4xx_hal_tim_ex.c ****       }
1156:Drivers/STM32L4xx_HAL_Driver/Src/stm32l4xx_hal_tim_ex.c ****       /* Enable the TIM Capture/Compare 1 DMA request */
1157:Drivers/STM32L4xx_HAL_Driver/Src/stm32l4xx_hal_tim_ex.c ****       __HAL_TIM_ENABLE_DMA(htim, TIM_DMA_CC1);
1158:Drivers/STM32L4xx_HAL_Driver/Src/stm32l4xx_hal_tim_ex.c ****       break;
1159:Drivers/STM32L4xx_HAL_Driver/Src/stm32l4xx_hal_tim_ex.c ****     }
1160:Drivers/STM32L4xx_HAL_Driver/Src/stm32l4xx_hal_tim_ex.c **** 
1161:Drivers/STM32L4xx_HAL_Driver/Src/stm32l4xx_hal_tim_ex.c ****     case TIM_CHANNEL_2:
1162:Drivers/STM32L4xx_HAL_Driver/Src/stm32l4xx_hal_tim_ex.c ****     {
1163:Drivers/STM32L4xx_HAL_Driver/Src/stm32l4xx_hal_tim_ex.c ****       /* Set the DMA compare callbacks */
1164:Drivers/STM32L4xx_HAL_Driver/Src/stm32l4xx_hal_tim_ex.c ****       htim->hdma[TIM_DMA_ID_CC2]->XferCpltCallback = TIM_DMADelayPulseCplt;
1165:Drivers/STM32L4xx_HAL_Driver/Src/stm32l4xx_hal_tim_ex.c ****       htim->hdma[TIM_DMA_ID_CC2]->XferHalfCpltCallback = TIM_DMADelayPulseHalfCplt;
1166:Drivers/STM32L4xx_HAL_Driver/Src/stm32l4xx_hal_tim_ex.c **** 
1167:Drivers/STM32L4xx_HAL_Driver/Src/stm32l4xx_hal_tim_ex.c ****       /* Set the DMA error callback */
1168:Drivers/STM32L4xx_HAL_Driver/Src/stm32l4xx_hal_tim_ex.c ****       htim->hdma[TIM_DMA_ID_CC2]->XferErrorCallback = TIM_DMAError ;
1169:Drivers/STM32L4xx_HAL_Driver/Src/stm32l4xx_hal_tim_ex.c **** 
1170:Drivers/STM32L4xx_HAL_Driver/Src/stm32l4xx_hal_tim_ex.c ****       /* Enable the DMA channel */
1171:Drivers/STM32L4xx_HAL_Driver/Src/stm32l4xx_hal_tim_ex.c ****       if (HAL_DMA_Start_IT(htim->hdma[TIM_DMA_ID_CC2], (uint32_t)pData, (uint32_t)&htim->Instance->
1172:Drivers/STM32L4xx_HAL_Driver/Src/stm32l4xx_hal_tim_ex.c ****       {
1173:Drivers/STM32L4xx_HAL_Driver/Src/stm32l4xx_hal_tim_ex.c ****         return HAL_ERROR;
1174:Drivers/STM32L4xx_HAL_Driver/Src/stm32l4xx_hal_tim_ex.c ****       }
1175:Drivers/STM32L4xx_HAL_Driver/Src/stm32l4xx_hal_tim_ex.c ****       /* Enable the TIM Capture/Compare 2 DMA request */
1176:Drivers/STM32L4xx_HAL_Driver/Src/stm32l4xx_hal_tim_ex.c ****       __HAL_TIM_ENABLE_DMA(htim, TIM_DMA_CC2);
1177:Drivers/STM32L4xx_HAL_Driver/Src/stm32l4xx_hal_tim_ex.c ****       break;
1178:Drivers/STM32L4xx_HAL_Driver/Src/stm32l4xx_hal_tim_ex.c ****     }
1179:Drivers/STM32L4xx_HAL_Driver/Src/stm32l4xx_hal_tim_ex.c **** 
1180:Drivers/STM32L4xx_HAL_Driver/Src/stm32l4xx_hal_tim_ex.c ****     case TIM_CHANNEL_3:
1181:Drivers/STM32L4xx_HAL_Driver/Src/stm32l4xx_hal_tim_ex.c ****     {
1182:Drivers/STM32L4xx_HAL_Driver/Src/stm32l4xx_hal_tim_ex.c ****       /* Set the DMA compare callbacks */
1183:Drivers/STM32L4xx_HAL_Driver/Src/stm32l4xx_hal_tim_ex.c ****       htim->hdma[TIM_DMA_ID_CC3]->XferCpltCallback = TIM_DMADelayPulseCplt;
1184:Drivers/STM32L4xx_HAL_Driver/Src/stm32l4xx_hal_tim_ex.c ****       htim->hdma[TIM_DMA_ID_CC3]->XferHalfCpltCallback = TIM_DMADelayPulseHalfCplt;
1185:Drivers/STM32L4xx_HAL_Driver/Src/stm32l4xx_hal_tim_ex.c **** 
1186:Drivers/STM32L4xx_HAL_Driver/Src/stm32l4xx_hal_tim_ex.c ****       /* Set the DMA error callback */
1187:Drivers/STM32L4xx_HAL_Driver/Src/stm32l4xx_hal_tim_ex.c ****       htim->hdma[TIM_DMA_ID_CC3]->XferErrorCallback = TIM_DMAError ;
1188:Drivers/STM32L4xx_HAL_Driver/Src/stm32l4xx_hal_tim_ex.c **** 
1189:Drivers/STM32L4xx_HAL_Driver/Src/stm32l4xx_hal_tim_ex.c ****       /* Enable the DMA channel */
1190:Drivers/STM32L4xx_HAL_Driver/Src/stm32l4xx_hal_tim_ex.c ****       if (HAL_DMA_Start_IT(htim->hdma[TIM_DMA_ID_CC3], (uint32_t)pData, (uint32_t)&htim->Instance->
1191:Drivers/STM32L4xx_HAL_Driver/Src/stm32l4xx_hal_tim_ex.c ****       {
1192:Drivers/STM32L4xx_HAL_Driver/Src/stm32l4xx_hal_tim_ex.c ****         return HAL_ERROR;
ARM GAS  /tmp/cc9IMTcg.s 			page 67


1193:Drivers/STM32L4xx_HAL_Driver/Src/stm32l4xx_hal_tim_ex.c ****       }
1194:Drivers/STM32L4xx_HAL_Driver/Src/stm32l4xx_hal_tim_ex.c ****       /* Enable the TIM Capture/Compare 3 DMA request */
1195:Drivers/STM32L4xx_HAL_Driver/Src/stm32l4xx_hal_tim_ex.c ****       __HAL_TIM_ENABLE_DMA(htim, TIM_DMA_CC3);
1196:Drivers/STM32L4xx_HAL_Driver/Src/stm32l4xx_hal_tim_ex.c ****       break;
1197:Drivers/STM32L4xx_HAL_Driver/Src/stm32l4xx_hal_tim_ex.c ****     }
1198:Drivers/STM32L4xx_HAL_Driver/Src/stm32l4xx_hal_tim_ex.c **** 
1199:Drivers/STM32L4xx_HAL_Driver/Src/stm32l4xx_hal_tim_ex.c ****     default:
1200:Drivers/STM32L4xx_HAL_Driver/Src/stm32l4xx_hal_tim_ex.c ****       break;
 2537              		.loc 1 1200 7
 2538 005a 6BE0     		b	.L142
 2539              	.L135:
1145:Drivers/STM32L4xx_HAL_Driver/Src/stm32l4xx_hal_tim_ex.c ****       htim->hdma[TIM_DMA_ID_CC1]->XferHalfCpltCallback = TIM_DMADelayPulseHalfCplt;
 2540              		.loc 1 1145 17
 2541 005c FB68     		ldr	r3, [r7, #12]
 2542 005e 5B6A     		ldr	r3, [r3, #36]
1145:Drivers/STM32L4xx_HAL_Driver/Src/stm32l4xx_hal_tim_ex.c ****       htim->hdma[TIM_DMA_ID_CC1]->XferHalfCpltCallback = TIM_DMADelayPulseHalfCplt;
 2543              		.loc 1 1145 52
 2544 0060 494A     		ldr	r2, .L143
 2545 0062 DA62     		str	r2, [r3, #44]
1146:Drivers/STM32L4xx_HAL_Driver/Src/stm32l4xx_hal_tim_ex.c **** 
 2546              		.loc 1 1146 17
 2547 0064 FB68     		ldr	r3, [r7, #12]
 2548 0066 5B6A     		ldr	r3, [r3, #36]
1146:Drivers/STM32L4xx_HAL_Driver/Src/stm32l4xx_hal_tim_ex.c **** 
 2549              		.loc 1 1146 56
 2550 0068 484A     		ldr	r2, .L143+4
 2551 006a 1A63     		str	r2, [r3, #48]
1149:Drivers/STM32L4xx_HAL_Driver/Src/stm32l4xx_hal_tim_ex.c **** 
 2552              		.loc 1 1149 17
 2553 006c FB68     		ldr	r3, [r7, #12]
 2554 006e 5B6A     		ldr	r3, [r3, #36]
1149:Drivers/STM32L4xx_HAL_Driver/Src/stm32l4xx_hal_tim_ex.c **** 
 2555              		.loc 1 1149 53
 2556 0070 474A     		ldr	r2, .L143+8
 2557 0072 5A63     		str	r2, [r3, #52]
1152:Drivers/STM32L4xx_HAL_Driver/Src/stm32l4xx_hal_tim_ex.c ****       {
 2558              		.loc 1 1152 11
 2559 0074 FB68     		ldr	r3, [r7, #12]
 2560 0076 586A     		ldr	r0, [r3, #36]
 2561 0078 7968     		ldr	r1, [r7, #4]
1152:Drivers/STM32L4xx_HAL_Driver/Src/stm32l4xx_hal_tim_ex.c ****       {
 2562              		.loc 1 1152 88
 2563 007a FB68     		ldr	r3, [r7, #12]
 2564 007c 1B68     		ldr	r3, [r3]
1152:Drivers/STM32L4xx_HAL_Driver/Src/stm32l4xx_hal_tim_ex.c ****       {
 2565              		.loc 1 1152 83
 2566 007e 3433     		adds	r3, r3, #52
1152:Drivers/STM32L4xx_HAL_Driver/Src/stm32l4xx_hal_tim_ex.c ****       {
 2567              		.loc 1 1152 11
 2568 0080 1A46     		mov	r2, r3
 2569 0082 7B88     		ldrh	r3, [r7, #2]
 2570 0084 FFF7FEFF 		bl	HAL_DMA_Start_IT
 2571 0088 0346     		mov	r3, r0
1152:Drivers/STM32L4xx_HAL_Driver/Src/stm32l4xx_hal_tim_ex.c ****       {
 2572              		.loc 1 1152 10
 2573 008a 002B     		cmp	r3, #0
 2574 008c 01D0     		beq	.L137
ARM GAS  /tmp/cc9IMTcg.s 			page 68


1154:Drivers/STM32L4xx_HAL_Driver/Src/stm32l4xx_hal_tim_ex.c ****       }
 2575              		.loc 1 1154 16
 2576 008e 0123     		movs	r3, #1
 2577 0090 76E0     		b	.L130
 2578              	.L137:
1157:Drivers/STM32L4xx_HAL_Driver/Src/stm32l4xx_hal_tim_ex.c ****       break;
 2579              		.loc 1 1157 7
 2580 0092 FB68     		ldr	r3, [r7, #12]
 2581 0094 1B68     		ldr	r3, [r3]
 2582 0096 DA68     		ldr	r2, [r3, #12]
 2583 0098 FB68     		ldr	r3, [r7, #12]
 2584 009a 1B68     		ldr	r3, [r3]
 2585 009c 42F40072 		orr	r2, r2, #512
 2586 00a0 DA60     		str	r2, [r3, #12]
1158:Drivers/STM32L4xx_HAL_Driver/Src/stm32l4xx_hal_tim_ex.c ****     }
 2587              		.loc 1 1158 7
 2588 00a2 48E0     		b	.L138
 2589              	.L136:
1164:Drivers/STM32L4xx_HAL_Driver/Src/stm32l4xx_hal_tim_ex.c ****       htim->hdma[TIM_DMA_ID_CC2]->XferHalfCpltCallback = TIM_DMADelayPulseHalfCplt;
 2590              		.loc 1 1164 17
 2591 00a4 FB68     		ldr	r3, [r7, #12]
 2592 00a6 9B6A     		ldr	r3, [r3, #40]
1164:Drivers/STM32L4xx_HAL_Driver/Src/stm32l4xx_hal_tim_ex.c ****       htim->hdma[TIM_DMA_ID_CC2]->XferHalfCpltCallback = TIM_DMADelayPulseHalfCplt;
 2593              		.loc 1 1164 52
 2594 00a8 374A     		ldr	r2, .L143
 2595 00aa DA62     		str	r2, [r3, #44]
1165:Drivers/STM32L4xx_HAL_Driver/Src/stm32l4xx_hal_tim_ex.c **** 
 2596              		.loc 1 1165 17
 2597 00ac FB68     		ldr	r3, [r7, #12]
 2598 00ae 9B6A     		ldr	r3, [r3, #40]
1165:Drivers/STM32L4xx_HAL_Driver/Src/stm32l4xx_hal_tim_ex.c **** 
 2599              		.loc 1 1165 56
 2600 00b0 364A     		ldr	r2, .L143+4
 2601 00b2 1A63     		str	r2, [r3, #48]
1168:Drivers/STM32L4xx_HAL_Driver/Src/stm32l4xx_hal_tim_ex.c **** 
 2602              		.loc 1 1168 17
 2603 00b4 FB68     		ldr	r3, [r7, #12]
 2604 00b6 9B6A     		ldr	r3, [r3, #40]
1168:Drivers/STM32L4xx_HAL_Driver/Src/stm32l4xx_hal_tim_ex.c **** 
 2605              		.loc 1 1168 53
 2606 00b8 354A     		ldr	r2, .L143+8
 2607 00ba 5A63     		str	r2, [r3, #52]
1171:Drivers/STM32L4xx_HAL_Driver/Src/stm32l4xx_hal_tim_ex.c ****       {
 2608              		.loc 1 1171 11
 2609 00bc FB68     		ldr	r3, [r7, #12]
 2610 00be 986A     		ldr	r0, [r3, #40]
 2611 00c0 7968     		ldr	r1, [r7, #4]
1171:Drivers/STM32L4xx_HAL_Driver/Src/stm32l4xx_hal_tim_ex.c ****       {
 2612              		.loc 1 1171 88
 2613 00c2 FB68     		ldr	r3, [r7, #12]
 2614 00c4 1B68     		ldr	r3, [r3]
1171:Drivers/STM32L4xx_HAL_Driver/Src/stm32l4xx_hal_tim_ex.c ****       {
 2615              		.loc 1 1171 83
 2616 00c6 3833     		adds	r3, r3, #56
1171:Drivers/STM32L4xx_HAL_Driver/Src/stm32l4xx_hal_tim_ex.c ****       {
 2617              		.loc 1 1171 11
 2618 00c8 1A46     		mov	r2, r3
ARM GAS  /tmp/cc9IMTcg.s 			page 69


 2619 00ca 7B88     		ldrh	r3, [r7, #2]
 2620 00cc FFF7FEFF 		bl	HAL_DMA_Start_IT
 2621 00d0 0346     		mov	r3, r0
1171:Drivers/STM32L4xx_HAL_Driver/Src/stm32l4xx_hal_tim_ex.c ****       {
 2622              		.loc 1 1171 10
 2623 00d2 002B     		cmp	r3, #0
 2624 00d4 01D0     		beq	.L139
1173:Drivers/STM32L4xx_HAL_Driver/Src/stm32l4xx_hal_tim_ex.c ****       }
 2625              		.loc 1 1173 16
 2626 00d6 0123     		movs	r3, #1
 2627 00d8 52E0     		b	.L130
 2628              	.L139:
1176:Drivers/STM32L4xx_HAL_Driver/Src/stm32l4xx_hal_tim_ex.c ****       break;
 2629              		.loc 1 1176 7
 2630 00da FB68     		ldr	r3, [r7, #12]
 2631 00dc 1B68     		ldr	r3, [r3]
 2632 00de DA68     		ldr	r2, [r3, #12]
 2633 00e0 FB68     		ldr	r3, [r7, #12]
 2634 00e2 1B68     		ldr	r3, [r3]
 2635 00e4 42F48062 		orr	r2, r2, #1024
 2636 00e8 DA60     		str	r2, [r3, #12]
1177:Drivers/STM32L4xx_HAL_Driver/Src/stm32l4xx_hal_tim_ex.c ****     }
 2637              		.loc 1 1177 7
 2638 00ea 24E0     		b	.L138
 2639              	.L133:
1183:Drivers/STM32L4xx_HAL_Driver/Src/stm32l4xx_hal_tim_ex.c ****       htim->hdma[TIM_DMA_ID_CC3]->XferHalfCpltCallback = TIM_DMADelayPulseHalfCplt;
 2640              		.loc 1 1183 17
 2641 00ec FB68     		ldr	r3, [r7, #12]
 2642 00ee DB6A     		ldr	r3, [r3, #44]
1183:Drivers/STM32L4xx_HAL_Driver/Src/stm32l4xx_hal_tim_ex.c ****       htim->hdma[TIM_DMA_ID_CC3]->XferHalfCpltCallback = TIM_DMADelayPulseHalfCplt;
 2643              		.loc 1 1183 52
 2644 00f0 254A     		ldr	r2, .L143
 2645 00f2 DA62     		str	r2, [r3, #44]
1184:Drivers/STM32L4xx_HAL_Driver/Src/stm32l4xx_hal_tim_ex.c **** 
 2646              		.loc 1 1184 17
 2647 00f4 FB68     		ldr	r3, [r7, #12]
 2648 00f6 DB6A     		ldr	r3, [r3, #44]
1184:Drivers/STM32L4xx_HAL_Driver/Src/stm32l4xx_hal_tim_ex.c **** 
 2649              		.loc 1 1184 56
 2650 00f8 244A     		ldr	r2, .L143+4
 2651 00fa 1A63     		str	r2, [r3, #48]
1187:Drivers/STM32L4xx_HAL_Driver/Src/stm32l4xx_hal_tim_ex.c **** 
 2652              		.loc 1 1187 17
 2653 00fc FB68     		ldr	r3, [r7, #12]
 2654 00fe DB6A     		ldr	r3, [r3, #44]
1187:Drivers/STM32L4xx_HAL_Driver/Src/stm32l4xx_hal_tim_ex.c **** 
 2655              		.loc 1 1187 53
 2656 0100 234A     		ldr	r2, .L143+8
 2657 0102 5A63     		str	r2, [r3, #52]
1190:Drivers/STM32L4xx_HAL_Driver/Src/stm32l4xx_hal_tim_ex.c ****       {
 2658              		.loc 1 1190 11
 2659 0104 FB68     		ldr	r3, [r7, #12]
 2660 0106 D86A     		ldr	r0, [r3, #44]
 2661 0108 7968     		ldr	r1, [r7, #4]
1190:Drivers/STM32L4xx_HAL_Driver/Src/stm32l4xx_hal_tim_ex.c ****       {
 2662              		.loc 1 1190 88
 2663 010a FB68     		ldr	r3, [r7, #12]
ARM GAS  /tmp/cc9IMTcg.s 			page 70


 2664 010c 1B68     		ldr	r3, [r3]
1190:Drivers/STM32L4xx_HAL_Driver/Src/stm32l4xx_hal_tim_ex.c ****       {
 2665              		.loc 1 1190 83
 2666 010e 3C33     		adds	r3, r3, #60
1190:Drivers/STM32L4xx_HAL_Driver/Src/stm32l4xx_hal_tim_ex.c ****       {
 2667              		.loc 1 1190 11
 2668 0110 1A46     		mov	r2, r3
 2669 0112 7B88     		ldrh	r3, [r7, #2]
 2670 0114 FFF7FEFF 		bl	HAL_DMA_Start_IT
 2671 0118 0346     		mov	r3, r0
1190:Drivers/STM32L4xx_HAL_Driver/Src/stm32l4xx_hal_tim_ex.c ****       {
 2672              		.loc 1 1190 10
 2673 011a 002B     		cmp	r3, #0
 2674 011c 01D0     		beq	.L140
1192:Drivers/STM32L4xx_HAL_Driver/Src/stm32l4xx_hal_tim_ex.c ****       }
 2675              		.loc 1 1192 16
 2676 011e 0123     		movs	r3, #1
 2677 0120 2EE0     		b	.L130
 2678              	.L140:
1195:Drivers/STM32L4xx_HAL_Driver/Src/stm32l4xx_hal_tim_ex.c ****       break;
 2679              		.loc 1 1195 7
 2680 0122 FB68     		ldr	r3, [r7, #12]
 2681 0124 1B68     		ldr	r3, [r3]
 2682 0126 DA68     		ldr	r2, [r3, #12]
 2683 0128 FB68     		ldr	r3, [r7, #12]
 2684 012a 1B68     		ldr	r3, [r3]
 2685 012c 42F40062 		orr	r2, r2, #2048
 2686 0130 DA60     		str	r2, [r3, #12]
1196:Drivers/STM32L4xx_HAL_Driver/Src/stm32l4xx_hal_tim_ex.c ****     }
 2687              		.loc 1 1196 7
 2688 0132 00E0     		b	.L138
 2689              	.L142:
 2690              		.loc 1 1200 7
 2691 0134 00BF     		nop
 2692              	.L138:
1201:Drivers/STM32L4xx_HAL_Driver/Src/stm32l4xx_hal_tim_ex.c ****   }
1202:Drivers/STM32L4xx_HAL_Driver/Src/stm32l4xx_hal_tim_ex.c **** 
1203:Drivers/STM32L4xx_HAL_Driver/Src/stm32l4xx_hal_tim_ex.c ****   /* Enable the complementary PWM output  */
1204:Drivers/STM32L4xx_HAL_Driver/Src/stm32l4xx_hal_tim_ex.c ****   TIM_CCxNChannelCmd(htim->Instance, Channel, TIM_CCxN_ENABLE);
 2693              		.loc 1 1204 3
 2694 0136 FB68     		ldr	r3, [r7, #12]
 2695 0138 1B68     		ldr	r3, [r3]
 2696 013a 0422     		movs	r2, #4
 2697 013c B968     		ldr	r1, [r7, #8]
 2698 013e 1846     		mov	r0, r3
 2699 0140 FFF7FEFF 		bl	TIM_CCxNChannelCmd
1205:Drivers/STM32L4xx_HAL_Driver/Src/stm32l4xx_hal_tim_ex.c **** 
1206:Drivers/STM32L4xx_HAL_Driver/Src/stm32l4xx_hal_tim_ex.c ****   /* Enable the Main Output */
1207:Drivers/STM32L4xx_HAL_Driver/Src/stm32l4xx_hal_tim_ex.c ****   __HAL_TIM_MOE_ENABLE(htim);
 2700              		.loc 1 1207 3
 2701 0144 FB68     		ldr	r3, [r7, #12]
 2702 0146 1B68     		ldr	r3, [r3]
 2703 0148 5A6C     		ldr	r2, [r3, #68]
 2704 014a FB68     		ldr	r3, [r7, #12]
 2705 014c 1B68     		ldr	r3, [r3]
 2706 014e 42F40042 		orr	r2, r2, #32768
 2707 0152 5A64     		str	r2, [r3, #68]
ARM GAS  /tmp/cc9IMTcg.s 			page 71


1208:Drivers/STM32L4xx_HAL_Driver/Src/stm32l4xx_hal_tim_ex.c **** 
1209:Drivers/STM32L4xx_HAL_Driver/Src/stm32l4xx_hal_tim_ex.c ****   /* Enable the Peripheral, except in trigger mode where enable is automatically done with trigger 
1210:Drivers/STM32L4xx_HAL_Driver/Src/stm32l4xx_hal_tim_ex.c ****   tmpsmcr = htim->Instance->SMCR & TIM_SMCR_SMS;
 2708              		.loc 1 1210 17
 2709 0154 FB68     		ldr	r3, [r7, #12]
 2710 0156 1B68     		ldr	r3, [r3]
 2711              		.loc 1 1210 27
 2712 0158 9A68     		ldr	r2, [r3, #8]
 2713              		.loc 1 1210 11
 2714 015a 0E4B     		ldr	r3, .L143+12
 2715 015c 1340     		ands	r3, r3, r2
 2716 015e 7B61     		str	r3, [r7, #20]
1211:Drivers/STM32L4xx_HAL_Driver/Src/stm32l4xx_hal_tim_ex.c ****   if (!IS_TIM_SLAVEMODE_TRIGGER_ENABLED(tmpsmcr))
 2717              		.loc 1 1211 6
 2718 0160 7B69     		ldr	r3, [r7, #20]
 2719 0162 062B     		cmp	r3, #6
 2720 0164 0BD0     		beq	.L141
 2721              		.loc 1 1211 7 discriminator 1
 2722 0166 7B69     		ldr	r3, [r7, #20]
 2723 0168 B3F5803F 		cmp	r3, #65536
 2724 016c 07D0     		beq	.L141
1212:Drivers/STM32L4xx_HAL_Driver/Src/stm32l4xx_hal_tim_ex.c ****   {
1213:Drivers/STM32L4xx_HAL_Driver/Src/stm32l4xx_hal_tim_ex.c ****     __HAL_TIM_ENABLE(htim);
 2725              		.loc 1 1213 5
 2726 016e FB68     		ldr	r3, [r7, #12]
 2727 0170 1B68     		ldr	r3, [r3]
 2728 0172 1A68     		ldr	r2, [r3]
 2729 0174 FB68     		ldr	r3, [r7, #12]
 2730 0176 1B68     		ldr	r3, [r3]
 2731 0178 42F00102 		orr	r2, r2, #1
 2732 017c 1A60     		str	r2, [r3]
 2733              	.L141:
1214:Drivers/STM32L4xx_HAL_Driver/Src/stm32l4xx_hal_tim_ex.c ****   }
1215:Drivers/STM32L4xx_HAL_Driver/Src/stm32l4xx_hal_tim_ex.c **** 
1216:Drivers/STM32L4xx_HAL_Driver/Src/stm32l4xx_hal_tim_ex.c ****   /* Return function status */
1217:Drivers/STM32L4xx_HAL_Driver/Src/stm32l4xx_hal_tim_ex.c ****   return HAL_OK;
 2734              		.loc 1 1217 10
 2735 017e 0023     		movs	r3, #0
 2736              	.L130:
1218:Drivers/STM32L4xx_HAL_Driver/Src/stm32l4xx_hal_tim_ex.c **** }
 2737              		.loc 1 1218 1
 2738 0180 1846     		mov	r0, r3
 2739 0182 1837     		adds	r7, r7, #24
 2740              	.LCFI105:
 2741              		.cfi_def_cfa_offset 8
 2742 0184 BD46     		mov	sp, r7
 2743              	.LCFI106:
 2744              		.cfi_def_cfa_register 13
 2745              		@ sp needed
 2746 0186 80BD     		pop	{r7, pc}
 2747              	.L144:
 2748              		.align	2
 2749              	.L143:
 2750 0188 00000000 		.word	TIM_DMADelayPulseCplt
 2751 018c 00000000 		.word	TIM_DMADelayPulseHalfCplt
 2752 0190 00000000 		.word	TIM_DMAError
 2753 0194 07000100 		.word	65543
ARM GAS  /tmp/cc9IMTcg.s 			page 72


 2754              		.cfi_endproc
 2755              	.LFE150:
 2757              		.section	.text.HAL_TIMEx_PWMN_Stop_DMA,"ax",%progbits
 2758              		.align	1
 2759              		.global	HAL_TIMEx_PWMN_Stop_DMA
 2760              		.syntax unified
 2761              		.thumb
 2762              		.thumb_func
 2763              		.fpu fpv4-sp-d16
 2765              	HAL_TIMEx_PWMN_Stop_DMA:
 2766              	.LFB151:
1219:Drivers/STM32L4xx_HAL_Driver/Src/stm32l4xx_hal_tim_ex.c **** 
1220:Drivers/STM32L4xx_HAL_Driver/Src/stm32l4xx_hal_tim_ex.c **** /**
1221:Drivers/STM32L4xx_HAL_Driver/Src/stm32l4xx_hal_tim_ex.c ****   * @brief  Stops the TIM PWM signal generation in DMA mode on the complementary
1222:Drivers/STM32L4xx_HAL_Driver/Src/stm32l4xx_hal_tim_ex.c ****   *         output
1223:Drivers/STM32L4xx_HAL_Driver/Src/stm32l4xx_hal_tim_ex.c ****   * @param  htim TIM handle
1224:Drivers/STM32L4xx_HAL_Driver/Src/stm32l4xx_hal_tim_ex.c ****   * @param  Channel TIM Channel to be disabled
1225:Drivers/STM32L4xx_HAL_Driver/Src/stm32l4xx_hal_tim_ex.c ****   *          This parameter can be one of the following values:
1226:Drivers/STM32L4xx_HAL_Driver/Src/stm32l4xx_hal_tim_ex.c ****   *            @arg TIM_CHANNEL_1: TIM Channel 1 selected
1227:Drivers/STM32L4xx_HAL_Driver/Src/stm32l4xx_hal_tim_ex.c ****   *            @arg TIM_CHANNEL_2: TIM Channel 2 selected
1228:Drivers/STM32L4xx_HAL_Driver/Src/stm32l4xx_hal_tim_ex.c ****   *            @arg TIM_CHANNEL_3: TIM Channel 3 selected
1229:Drivers/STM32L4xx_HAL_Driver/Src/stm32l4xx_hal_tim_ex.c ****   * @retval HAL status
1230:Drivers/STM32L4xx_HAL_Driver/Src/stm32l4xx_hal_tim_ex.c ****   */
1231:Drivers/STM32L4xx_HAL_Driver/Src/stm32l4xx_hal_tim_ex.c **** HAL_StatusTypeDef HAL_TIMEx_PWMN_Stop_DMA(TIM_HandleTypeDef *htim, uint32_t Channel)
1232:Drivers/STM32L4xx_HAL_Driver/Src/stm32l4xx_hal_tim_ex.c **** {
 2767              		.loc 1 1232 1
 2768              		.cfi_startproc
 2769              		@ args = 0, pretend = 0, frame = 8
 2770              		@ frame_needed = 1, uses_anonymous_args = 0
 2771 0000 80B5     		push	{r7, lr}
 2772              	.LCFI107:
 2773              		.cfi_def_cfa_offset 8
 2774              		.cfi_offset 7, -8
 2775              		.cfi_offset 14, -4
 2776 0002 82B0     		sub	sp, sp, #8
 2777              	.LCFI108:
 2778              		.cfi_def_cfa_offset 16
 2779 0004 00AF     		add	r7, sp, #0
 2780              	.LCFI109:
 2781              		.cfi_def_cfa_register 7
 2782 0006 7860     		str	r0, [r7, #4]
 2783 0008 3960     		str	r1, [r7]
1233:Drivers/STM32L4xx_HAL_Driver/Src/stm32l4xx_hal_tim_ex.c ****   /* Check the parameters */
1234:Drivers/STM32L4xx_HAL_Driver/Src/stm32l4xx_hal_tim_ex.c ****   assert_param(IS_TIM_CCXN_INSTANCE(htim->Instance, Channel));
1235:Drivers/STM32L4xx_HAL_Driver/Src/stm32l4xx_hal_tim_ex.c **** 
1236:Drivers/STM32L4xx_HAL_Driver/Src/stm32l4xx_hal_tim_ex.c ****   switch (Channel)
 2784              		.loc 1 1236 3
 2785 000a 3B68     		ldr	r3, [r7]
 2786 000c 082B     		cmp	r3, #8
 2787 000e 25D0     		beq	.L146
 2788 0010 3B68     		ldr	r3, [r7]
 2789 0012 082B     		cmp	r3, #8
 2790 0014 30D8     		bhi	.L154
 2791 0016 3B68     		ldr	r3, [r7]
 2792 0018 002B     		cmp	r3, #0
 2793 001a 03D0     		beq	.L148
 2794 001c 3B68     		ldr	r3, [r7]
ARM GAS  /tmp/cc9IMTcg.s 			page 73


 2795 001e 042B     		cmp	r3, #4
 2796 0020 0ED0     		beq	.L149
1237:Drivers/STM32L4xx_HAL_Driver/Src/stm32l4xx_hal_tim_ex.c ****   {
1238:Drivers/STM32L4xx_HAL_Driver/Src/stm32l4xx_hal_tim_ex.c ****     case TIM_CHANNEL_1:
1239:Drivers/STM32L4xx_HAL_Driver/Src/stm32l4xx_hal_tim_ex.c ****     {
1240:Drivers/STM32L4xx_HAL_Driver/Src/stm32l4xx_hal_tim_ex.c ****       /* Disable the TIM Capture/Compare 1 DMA request */
1241:Drivers/STM32L4xx_HAL_Driver/Src/stm32l4xx_hal_tim_ex.c ****       __HAL_TIM_DISABLE_DMA(htim, TIM_DMA_CC1);
1242:Drivers/STM32L4xx_HAL_Driver/Src/stm32l4xx_hal_tim_ex.c ****       (void)HAL_DMA_Abort_IT(htim->hdma[TIM_DMA_ID_CC1]);
1243:Drivers/STM32L4xx_HAL_Driver/Src/stm32l4xx_hal_tim_ex.c ****       break;
1244:Drivers/STM32L4xx_HAL_Driver/Src/stm32l4xx_hal_tim_ex.c ****     }
1245:Drivers/STM32L4xx_HAL_Driver/Src/stm32l4xx_hal_tim_ex.c **** 
1246:Drivers/STM32L4xx_HAL_Driver/Src/stm32l4xx_hal_tim_ex.c ****     case TIM_CHANNEL_2:
1247:Drivers/STM32L4xx_HAL_Driver/Src/stm32l4xx_hal_tim_ex.c ****     {
1248:Drivers/STM32L4xx_HAL_Driver/Src/stm32l4xx_hal_tim_ex.c ****       /* Disable the TIM Capture/Compare 2 DMA request */
1249:Drivers/STM32L4xx_HAL_Driver/Src/stm32l4xx_hal_tim_ex.c ****       __HAL_TIM_DISABLE_DMA(htim, TIM_DMA_CC2);
1250:Drivers/STM32L4xx_HAL_Driver/Src/stm32l4xx_hal_tim_ex.c ****       (void)HAL_DMA_Abort_IT(htim->hdma[TIM_DMA_ID_CC2]);
1251:Drivers/STM32L4xx_HAL_Driver/Src/stm32l4xx_hal_tim_ex.c ****       break;
1252:Drivers/STM32L4xx_HAL_Driver/Src/stm32l4xx_hal_tim_ex.c ****     }
1253:Drivers/STM32L4xx_HAL_Driver/Src/stm32l4xx_hal_tim_ex.c **** 
1254:Drivers/STM32L4xx_HAL_Driver/Src/stm32l4xx_hal_tim_ex.c ****     case TIM_CHANNEL_3:
1255:Drivers/STM32L4xx_HAL_Driver/Src/stm32l4xx_hal_tim_ex.c ****     {
1256:Drivers/STM32L4xx_HAL_Driver/Src/stm32l4xx_hal_tim_ex.c ****       /* Disable the TIM Capture/Compare 3 DMA request */
1257:Drivers/STM32L4xx_HAL_Driver/Src/stm32l4xx_hal_tim_ex.c ****       __HAL_TIM_DISABLE_DMA(htim, TIM_DMA_CC3);
1258:Drivers/STM32L4xx_HAL_Driver/Src/stm32l4xx_hal_tim_ex.c ****       (void)HAL_DMA_Abort_IT(htim->hdma[TIM_DMA_ID_CC3]);
1259:Drivers/STM32L4xx_HAL_Driver/Src/stm32l4xx_hal_tim_ex.c ****       break;
1260:Drivers/STM32L4xx_HAL_Driver/Src/stm32l4xx_hal_tim_ex.c ****     }
1261:Drivers/STM32L4xx_HAL_Driver/Src/stm32l4xx_hal_tim_ex.c **** 
1262:Drivers/STM32L4xx_HAL_Driver/Src/stm32l4xx_hal_tim_ex.c ****     default:
1263:Drivers/STM32L4xx_HAL_Driver/Src/stm32l4xx_hal_tim_ex.c ****       break;
 2797              		.loc 1 1263 7
 2798 0022 29E0     		b	.L154
 2799              	.L148:
1241:Drivers/STM32L4xx_HAL_Driver/Src/stm32l4xx_hal_tim_ex.c ****       (void)HAL_DMA_Abort_IT(htim->hdma[TIM_DMA_ID_CC1]);
 2800              		.loc 1 1241 7
 2801 0024 7B68     		ldr	r3, [r7, #4]
 2802 0026 1B68     		ldr	r3, [r3]
 2803 0028 DA68     		ldr	r2, [r3, #12]
 2804 002a 7B68     		ldr	r3, [r7, #4]
 2805 002c 1B68     		ldr	r3, [r3]
 2806 002e 22F40072 		bic	r2, r2, #512
 2807 0032 DA60     		str	r2, [r3, #12]
1242:Drivers/STM32L4xx_HAL_Driver/Src/stm32l4xx_hal_tim_ex.c ****       break;
 2808              		.loc 1 1242 13
 2809 0034 7B68     		ldr	r3, [r7, #4]
 2810 0036 5B6A     		ldr	r3, [r3, #36]
 2811 0038 1846     		mov	r0, r3
 2812 003a FFF7FEFF 		bl	HAL_DMA_Abort_IT
1243:Drivers/STM32L4xx_HAL_Driver/Src/stm32l4xx_hal_tim_ex.c ****     }
 2813              		.loc 1 1243 7
 2814 003e 1CE0     		b	.L150
 2815              	.L149:
1249:Drivers/STM32L4xx_HAL_Driver/Src/stm32l4xx_hal_tim_ex.c ****       (void)HAL_DMA_Abort_IT(htim->hdma[TIM_DMA_ID_CC2]);
 2816              		.loc 1 1249 7
 2817 0040 7B68     		ldr	r3, [r7, #4]
 2818 0042 1B68     		ldr	r3, [r3]
 2819 0044 DA68     		ldr	r2, [r3, #12]
 2820 0046 7B68     		ldr	r3, [r7, #4]
ARM GAS  /tmp/cc9IMTcg.s 			page 74


 2821 0048 1B68     		ldr	r3, [r3]
 2822 004a 22F48062 		bic	r2, r2, #1024
 2823 004e DA60     		str	r2, [r3, #12]
1250:Drivers/STM32L4xx_HAL_Driver/Src/stm32l4xx_hal_tim_ex.c ****       break;
 2824              		.loc 1 1250 13
 2825 0050 7B68     		ldr	r3, [r7, #4]
 2826 0052 9B6A     		ldr	r3, [r3, #40]
 2827 0054 1846     		mov	r0, r3
 2828 0056 FFF7FEFF 		bl	HAL_DMA_Abort_IT
1251:Drivers/STM32L4xx_HAL_Driver/Src/stm32l4xx_hal_tim_ex.c ****     }
 2829              		.loc 1 1251 7
 2830 005a 0EE0     		b	.L150
 2831              	.L146:
1257:Drivers/STM32L4xx_HAL_Driver/Src/stm32l4xx_hal_tim_ex.c ****       (void)HAL_DMA_Abort_IT(htim->hdma[TIM_DMA_ID_CC3]);
 2832              		.loc 1 1257 7
 2833 005c 7B68     		ldr	r3, [r7, #4]
 2834 005e 1B68     		ldr	r3, [r3]
 2835 0060 DA68     		ldr	r2, [r3, #12]
 2836 0062 7B68     		ldr	r3, [r7, #4]
 2837 0064 1B68     		ldr	r3, [r3]
 2838 0066 22F40062 		bic	r2, r2, #2048
 2839 006a DA60     		str	r2, [r3, #12]
1258:Drivers/STM32L4xx_HAL_Driver/Src/stm32l4xx_hal_tim_ex.c ****       break;
 2840              		.loc 1 1258 13
 2841 006c 7B68     		ldr	r3, [r7, #4]
 2842 006e DB6A     		ldr	r3, [r3, #44]
 2843 0070 1846     		mov	r0, r3
 2844 0072 FFF7FEFF 		bl	HAL_DMA_Abort_IT
1259:Drivers/STM32L4xx_HAL_Driver/Src/stm32l4xx_hal_tim_ex.c ****     }
 2845              		.loc 1 1259 7
 2846 0076 00E0     		b	.L150
 2847              	.L154:
 2848              		.loc 1 1263 7
 2849 0078 00BF     		nop
 2850              	.L150:
1264:Drivers/STM32L4xx_HAL_Driver/Src/stm32l4xx_hal_tim_ex.c ****   }
1265:Drivers/STM32L4xx_HAL_Driver/Src/stm32l4xx_hal_tim_ex.c **** 
1266:Drivers/STM32L4xx_HAL_Driver/Src/stm32l4xx_hal_tim_ex.c ****   /* Disable the complementary PWM output */
1267:Drivers/STM32L4xx_HAL_Driver/Src/stm32l4xx_hal_tim_ex.c ****   TIM_CCxNChannelCmd(htim->Instance, Channel, TIM_CCxN_DISABLE);
 2851              		.loc 1 1267 3
 2852 007a 7B68     		ldr	r3, [r7, #4]
 2853 007c 1B68     		ldr	r3, [r3]
 2854 007e 0022     		movs	r2, #0
 2855 0080 3968     		ldr	r1, [r7]
 2856 0082 1846     		mov	r0, r3
 2857 0084 FFF7FEFF 		bl	TIM_CCxNChannelCmd
1268:Drivers/STM32L4xx_HAL_Driver/Src/stm32l4xx_hal_tim_ex.c **** 
1269:Drivers/STM32L4xx_HAL_Driver/Src/stm32l4xx_hal_tim_ex.c ****   /* Disable the Main Output */
1270:Drivers/STM32L4xx_HAL_Driver/Src/stm32l4xx_hal_tim_ex.c ****   __HAL_TIM_MOE_DISABLE(htim);
 2858              		.loc 1 1270 3
 2859 0088 7B68     		ldr	r3, [r7, #4]
 2860 008a 1B68     		ldr	r3, [r3]
 2861 008c 1A6A     		ldr	r2, [r3, #32]
 2862 008e 41F21113 		movw	r3, #4369
 2863 0092 1340     		ands	r3, r3, r2
 2864 0094 002B     		cmp	r3, #0
 2865 0096 0FD1     		bne	.L151
ARM GAS  /tmp/cc9IMTcg.s 			page 75


 2866              		.loc 1 1270 3 is_stmt 0 discriminator 1
 2867 0098 7B68     		ldr	r3, [r7, #4]
 2868 009a 1B68     		ldr	r3, [r3]
 2869 009c 1A6A     		ldr	r2, [r3, #32]
 2870 009e 40F24443 		movw	r3, #1092
 2871 00a2 1340     		ands	r3, r3, r2
 2872 00a4 002B     		cmp	r3, #0
 2873 00a6 07D1     		bne	.L151
 2874              		.loc 1 1270 3 discriminator 2
 2875 00a8 7B68     		ldr	r3, [r7, #4]
 2876 00aa 1B68     		ldr	r3, [r3]
 2877 00ac 5A6C     		ldr	r2, [r3, #68]
 2878 00ae 7B68     		ldr	r3, [r7, #4]
 2879 00b0 1B68     		ldr	r3, [r3]
 2880 00b2 22F40042 		bic	r2, r2, #32768
 2881 00b6 5A64     		str	r2, [r3, #68]
 2882              	.L151:
1271:Drivers/STM32L4xx_HAL_Driver/Src/stm32l4xx_hal_tim_ex.c **** 
1272:Drivers/STM32L4xx_HAL_Driver/Src/stm32l4xx_hal_tim_ex.c ****   /* Disable the Peripheral */
1273:Drivers/STM32L4xx_HAL_Driver/Src/stm32l4xx_hal_tim_ex.c ****   __HAL_TIM_DISABLE(htim);
 2883              		.loc 1 1273 3 is_stmt 1
 2884 00b8 7B68     		ldr	r3, [r7, #4]
 2885 00ba 1B68     		ldr	r3, [r3]
 2886 00bc 1A6A     		ldr	r2, [r3, #32]
 2887 00be 41F21113 		movw	r3, #4369
 2888 00c2 1340     		ands	r3, r3, r2
 2889 00c4 002B     		cmp	r3, #0
 2890 00c6 0FD1     		bne	.L152
 2891              		.loc 1 1273 3 is_stmt 0 discriminator 1
 2892 00c8 7B68     		ldr	r3, [r7, #4]
 2893 00ca 1B68     		ldr	r3, [r3]
 2894 00cc 1A6A     		ldr	r2, [r3, #32]
 2895 00ce 40F24443 		movw	r3, #1092
 2896 00d2 1340     		ands	r3, r3, r2
 2897 00d4 002B     		cmp	r3, #0
 2898 00d6 07D1     		bne	.L152
 2899              		.loc 1 1273 3 discriminator 2
 2900 00d8 7B68     		ldr	r3, [r7, #4]
 2901 00da 1B68     		ldr	r3, [r3]
 2902 00dc 1A68     		ldr	r2, [r3]
 2903 00de 7B68     		ldr	r3, [r7, #4]
 2904 00e0 1B68     		ldr	r3, [r3]
 2905 00e2 22F00102 		bic	r2, r2, #1
 2906 00e6 1A60     		str	r2, [r3]
 2907              	.L152:
1274:Drivers/STM32L4xx_HAL_Driver/Src/stm32l4xx_hal_tim_ex.c **** 
1275:Drivers/STM32L4xx_HAL_Driver/Src/stm32l4xx_hal_tim_ex.c ****   /* Change the htim state */
1276:Drivers/STM32L4xx_HAL_Driver/Src/stm32l4xx_hal_tim_ex.c ****   htim->State = HAL_TIM_STATE_READY;
 2908              		.loc 1 1276 15 is_stmt 1
 2909 00e8 7B68     		ldr	r3, [r7, #4]
 2910 00ea 0122     		movs	r2, #1
 2911 00ec 83F83D20 		strb	r2, [r3, #61]
1277:Drivers/STM32L4xx_HAL_Driver/Src/stm32l4xx_hal_tim_ex.c **** 
1278:Drivers/STM32L4xx_HAL_Driver/Src/stm32l4xx_hal_tim_ex.c ****   /* Return function status */
1279:Drivers/STM32L4xx_HAL_Driver/Src/stm32l4xx_hal_tim_ex.c ****   return HAL_OK;
 2912              		.loc 1 1279 10
 2913 00f0 0023     		movs	r3, #0
ARM GAS  /tmp/cc9IMTcg.s 			page 76


1280:Drivers/STM32L4xx_HAL_Driver/Src/stm32l4xx_hal_tim_ex.c **** }
 2914              		.loc 1 1280 1
 2915 00f2 1846     		mov	r0, r3
 2916 00f4 0837     		adds	r7, r7, #8
 2917              	.LCFI110:
 2918              		.cfi_def_cfa_offset 8
 2919 00f6 BD46     		mov	sp, r7
 2920              	.LCFI111:
 2921              		.cfi_def_cfa_register 13
 2922              		@ sp needed
 2923 00f8 80BD     		pop	{r7, pc}
 2924              		.cfi_endproc
 2925              	.LFE151:
 2927              		.section	.text.HAL_TIMEx_OnePulseN_Start,"ax",%progbits
 2928              		.align	1
 2929              		.global	HAL_TIMEx_OnePulseN_Start
 2930              		.syntax unified
 2931              		.thumb
 2932              		.thumb_func
 2933              		.fpu fpv4-sp-d16
 2935              	HAL_TIMEx_OnePulseN_Start:
 2936              	.LFB152:
1281:Drivers/STM32L4xx_HAL_Driver/Src/stm32l4xx_hal_tim_ex.c **** 
1282:Drivers/STM32L4xx_HAL_Driver/Src/stm32l4xx_hal_tim_ex.c **** /**
1283:Drivers/STM32L4xx_HAL_Driver/Src/stm32l4xx_hal_tim_ex.c ****   * @}
1284:Drivers/STM32L4xx_HAL_Driver/Src/stm32l4xx_hal_tim_ex.c ****   */
1285:Drivers/STM32L4xx_HAL_Driver/Src/stm32l4xx_hal_tim_ex.c **** 
1286:Drivers/STM32L4xx_HAL_Driver/Src/stm32l4xx_hal_tim_ex.c **** /** @defgroup TIMEx_Exported_Functions_Group4 Extended Timer Complementary One Pulse functions
1287:Drivers/STM32L4xx_HAL_Driver/Src/stm32l4xx_hal_tim_ex.c ****   * @brief    Timer Complementary One Pulse functions
1288:Drivers/STM32L4xx_HAL_Driver/Src/stm32l4xx_hal_tim_ex.c ****   *
1289:Drivers/STM32L4xx_HAL_Driver/Src/stm32l4xx_hal_tim_ex.c **** @verbatim
1290:Drivers/STM32L4xx_HAL_Driver/Src/stm32l4xx_hal_tim_ex.c ****   ==============================================================================
1291:Drivers/STM32L4xx_HAL_Driver/Src/stm32l4xx_hal_tim_ex.c ****                 ##### Timer Complementary One Pulse functions #####
1292:Drivers/STM32L4xx_HAL_Driver/Src/stm32l4xx_hal_tim_ex.c ****   ==============================================================================
1293:Drivers/STM32L4xx_HAL_Driver/Src/stm32l4xx_hal_tim_ex.c ****   [..]
1294:Drivers/STM32L4xx_HAL_Driver/Src/stm32l4xx_hal_tim_ex.c ****     This section provides functions allowing to:
1295:Drivers/STM32L4xx_HAL_Driver/Src/stm32l4xx_hal_tim_ex.c ****     (+) Start the Complementary One Pulse generation.
1296:Drivers/STM32L4xx_HAL_Driver/Src/stm32l4xx_hal_tim_ex.c ****     (+) Stop the Complementary One Pulse.
1297:Drivers/STM32L4xx_HAL_Driver/Src/stm32l4xx_hal_tim_ex.c ****     (+) Start the Complementary One Pulse and enable interrupts.
1298:Drivers/STM32L4xx_HAL_Driver/Src/stm32l4xx_hal_tim_ex.c ****     (+) Stop the Complementary One Pulse and disable interrupts.
1299:Drivers/STM32L4xx_HAL_Driver/Src/stm32l4xx_hal_tim_ex.c **** 
1300:Drivers/STM32L4xx_HAL_Driver/Src/stm32l4xx_hal_tim_ex.c **** @endverbatim
1301:Drivers/STM32L4xx_HAL_Driver/Src/stm32l4xx_hal_tim_ex.c ****   * @{
1302:Drivers/STM32L4xx_HAL_Driver/Src/stm32l4xx_hal_tim_ex.c ****   */
1303:Drivers/STM32L4xx_HAL_Driver/Src/stm32l4xx_hal_tim_ex.c **** 
1304:Drivers/STM32L4xx_HAL_Driver/Src/stm32l4xx_hal_tim_ex.c **** /**
1305:Drivers/STM32L4xx_HAL_Driver/Src/stm32l4xx_hal_tim_ex.c ****   * @brief  Starts the TIM One Pulse signal generation on the complementary
1306:Drivers/STM32L4xx_HAL_Driver/Src/stm32l4xx_hal_tim_ex.c ****   *         output.
1307:Drivers/STM32L4xx_HAL_Driver/Src/stm32l4xx_hal_tim_ex.c ****   * @param  htim TIM One Pulse handle
1308:Drivers/STM32L4xx_HAL_Driver/Src/stm32l4xx_hal_tim_ex.c ****   * @param  OutputChannel TIM Channel to be enabled
1309:Drivers/STM32L4xx_HAL_Driver/Src/stm32l4xx_hal_tim_ex.c ****   *          This parameter can be one of the following values:
1310:Drivers/STM32L4xx_HAL_Driver/Src/stm32l4xx_hal_tim_ex.c ****   *            @arg TIM_CHANNEL_1: TIM Channel 1 selected
1311:Drivers/STM32L4xx_HAL_Driver/Src/stm32l4xx_hal_tim_ex.c ****   *            @arg TIM_CHANNEL_2: TIM Channel 2 selected
1312:Drivers/STM32L4xx_HAL_Driver/Src/stm32l4xx_hal_tim_ex.c ****   * @retval HAL status
1313:Drivers/STM32L4xx_HAL_Driver/Src/stm32l4xx_hal_tim_ex.c ****   */
1314:Drivers/STM32L4xx_HAL_Driver/Src/stm32l4xx_hal_tim_ex.c **** HAL_StatusTypeDef HAL_TIMEx_OnePulseN_Start(TIM_HandleTypeDef *htim, uint32_t OutputChannel)
1315:Drivers/STM32L4xx_HAL_Driver/Src/stm32l4xx_hal_tim_ex.c **** {
ARM GAS  /tmp/cc9IMTcg.s 			page 77


 2937              		.loc 1 1315 1
 2938              		.cfi_startproc
 2939              		@ args = 0, pretend = 0, frame = 8
 2940              		@ frame_needed = 1, uses_anonymous_args = 0
 2941 0000 80B5     		push	{r7, lr}
 2942              	.LCFI112:
 2943              		.cfi_def_cfa_offset 8
 2944              		.cfi_offset 7, -8
 2945              		.cfi_offset 14, -4
 2946 0002 82B0     		sub	sp, sp, #8
 2947              	.LCFI113:
 2948              		.cfi_def_cfa_offset 16
 2949 0004 00AF     		add	r7, sp, #0
 2950              	.LCFI114:
 2951              		.cfi_def_cfa_register 7
 2952 0006 7860     		str	r0, [r7, #4]
 2953 0008 3960     		str	r1, [r7]
1316:Drivers/STM32L4xx_HAL_Driver/Src/stm32l4xx_hal_tim_ex.c ****   /* Check the parameters */
1317:Drivers/STM32L4xx_HAL_Driver/Src/stm32l4xx_hal_tim_ex.c ****   assert_param(IS_TIM_CCXN_INSTANCE(htim->Instance, OutputChannel));
1318:Drivers/STM32L4xx_HAL_Driver/Src/stm32l4xx_hal_tim_ex.c **** 
1319:Drivers/STM32L4xx_HAL_Driver/Src/stm32l4xx_hal_tim_ex.c ****   /* Enable the complementary One Pulse output */
1320:Drivers/STM32L4xx_HAL_Driver/Src/stm32l4xx_hal_tim_ex.c ****   TIM_CCxNChannelCmd(htim->Instance, OutputChannel, TIM_CCxN_ENABLE);
 2954              		.loc 1 1320 3
 2955 000a 7B68     		ldr	r3, [r7, #4]
 2956 000c 1B68     		ldr	r3, [r3]
 2957 000e 0422     		movs	r2, #4
 2958 0010 3968     		ldr	r1, [r7]
 2959 0012 1846     		mov	r0, r3
 2960 0014 FFF7FEFF 		bl	TIM_CCxNChannelCmd
1321:Drivers/STM32L4xx_HAL_Driver/Src/stm32l4xx_hal_tim_ex.c **** 
1322:Drivers/STM32L4xx_HAL_Driver/Src/stm32l4xx_hal_tim_ex.c ****   /* Enable the Main Output */
1323:Drivers/STM32L4xx_HAL_Driver/Src/stm32l4xx_hal_tim_ex.c ****   __HAL_TIM_MOE_ENABLE(htim);
 2961              		.loc 1 1323 3
 2962 0018 7B68     		ldr	r3, [r7, #4]
 2963 001a 1B68     		ldr	r3, [r3]
 2964 001c 5A6C     		ldr	r2, [r3, #68]
 2965 001e 7B68     		ldr	r3, [r7, #4]
 2966 0020 1B68     		ldr	r3, [r3]
 2967 0022 42F40042 		orr	r2, r2, #32768
 2968 0026 5A64     		str	r2, [r3, #68]
1324:Drivers/STM32L4xx_HAL_Driver/Src/stm32l4xx_hal_tim_ex.c **** 
1325:Drivers/STM32L4xx_HAL_Driver/Src/stm32l4xx_hal_tim_ex.c ****   /* Return function status */
